---
triple:          'arm64-apple-darwin'
binary-path:     crashpad_handler
relocations:
  - { offsetInCU: 0x26, offset: 0x26, size: 0x8, addend: 0x0, symName: _main, symObjAddr: 0x0, symBinAddr: 0x10000423C, symSize: 0x8 }
  - { offsetInCU: 0x2E44, offset: 0x2E44, size: 0x8, addend: 0x0, symName: _main, symObjAddr: 0x0, symBinAddr: 0x10000423C, symSize: 0x8 }
  - { offsetInCU: 0x4727, offset: 0x75FA, size: 0x8, addend: 0x0, symName: __ZNSt3__119piecewise_constructE, symObjAddr: 0x1FF7, symBinAddr: 0x10007B557, symSize: 0x0 }
  - { offsetInCU: 0xE63A, offset: 0x1150D, size: 0x8, addend: 0x0, symName: __ZNSt3__120__throw_length_errorB8ue170006EPKc, symObjAddr: 0x1208, symBinAddr: 0x10000544C, symSize: 0x50 }
  - { offsetInCU: 0xECF1, offset: 0x11BC4, size: 0x8, addend: 0x0, symName: __ZNSt3__127__tree_balance_after_insertB8ue170006IPNS_16__tree_node_baseIPvEEEEvT_S5_, symObjAddr: 0x1A60, symBinAddr: 0x100005CA4, symSize: 0x1B4 }
  - { offsetInCU: 0xF3E2, offset: 0x122B5, size: 0x8, addend: 0x0, symName: __ZSt28__throw_bad_array_new_lengthB8ue170006v, symObjAddr: 0x127C, symBinAddr: 0x1000054C0, symSize: 0x28 }
  - { offsetInCU: 0x12462, offset: 0x15335, size: 0x8, addend: 0x0, symName: __ZN8crashpad19CrashReportDatabase6ReportC2Ev, symObjAddr: 0x0, symBinAddr: 0x100004244, symSize: 0x48 }
  - { offsetInCU: 0x124A1, offset: 0x15374, size: 0x8, addend: 0x0, symName: __ZN8crashpad19CrashReportDatabase6ReportC1Ev, symObjAddr: 0x48, symBinAddr: 0x10000428C, symSize: 0x48 }
  - { offsetInCU: 0x127FC, offset: 0x156CF, size: 0x8, addend: 0x0, symName: __ZN8crashpad19CrashReportDatabase9NewReportC2Ev, symObjAddr: 0x90, symBinAddr: 0x1000042D4, symSize: 0xD4 }
  - { offsetInCU: 0x12AF8, offset: 0x159CB, size: 0x8, addend: 0x0, symName: __ZN8crashpad19CrashReportDatabase9NewReportC1Ev, symObjAddr: 0x164, symBinAddr: 0x1000043A8, symSize: 0x4 }
  - { offsetInCU: 0x12B26, offset: 0x159F9, size: 0x8, addend: 0x0, symName: __ZN8crashpad19CrashReportDatabase9NewReportC1Ev, symObjAddr: 0x164, symBinAddr: 0x1000043A8, symSize: 0x4 }
  - { offsetInCU: 0x12DEA, offset: 0x15CBD, size: 0x8, addend: 0x0, symName: __ZN8crashpad19CrashReportDatabase9NewReportD2Ev, symObjAddr: 0x168, symBinAddr: 0x1000043AC, symSize: 0x100 }
  - { offsetInCU: 0x1345B, offset: 0x1632E, size: 0x8, addend: 0x0, symName: __ZN4base13ScopedGenericINS_8FilePathEN8crashpad22ScopedRemoveFileTraitsEE15FreeIfNecessaryEv, symObjAddr: 0x1808, symBinAddr: 0x100005A4C, symSize: 0x84 }
  - { offsetInCU: 0x134AC, offset: 0x1637F, size: 0x8, addend: 0x0, symName: __ZN4base13ScopedGenericINS_8FilePathEN8crashpad22ScopedRemoveFileTraitsEED1Ev, symObjAddr: 0x268, symBinAddr: 0x1000044AC, symSize: 0x28 }
  - { offsetInCU: 0x13545, offset: 0x16418, size: 0x8, addend: 0x0, symName: __ZN8crashpad19CrashReportDatabase9NewReportD1Ev, symObjAddr: 0x290, symBinAddr: 0x1000044D4, symSize: 0x4 }
  - { offsetInCU: 0x13573, offset: 0x16446, size: 0x8, addend: 0x0, symName: __ZN8crashpad19CrashReportDatabase9NewReportD1Ev, symObjAddr: 0x290, symBinAddr: 0x1000044D4, symSize: 0x4 }
  - { offsetInCU: 0x138F4, offset: 0x167C7, size: 0x8, addend: 0x0, symName: __ZN8crashpad19CrashReportDatabase9NewReport10InitializeEPS0_RKN4base8FilePathERKNSt3__112basic_stringIcNS7_11char_traitsIcEENS7_9allocatorIcEEEE, symObjAddr: 0x294, symBinAddr: 0x1000044D8, symSize: 0x204 }
  - { offsetInCU: 0x14516, offset: 0x173E9, size: 0x8, addend: 0x0, symName: __ZN4base13ScopedGenericINS_8FilePathEN8crashpad22ScopedRemoveFileTraitsEE5resetERKS1_, symObjAddr: 0x498, symBinAddr: 0x1000046DC, symSize: 0x98 }
  - { offsetInCU: 0x14577, offset: 0x1744A, size: 0x8, addend: 0x0, symName: __ZNKSt3__112basic_stringIcNS_11char_traitsIcEENS_9allocatorIcEEE20__throw_length_errorB8ue170006Ev, symObjAddr: 0x11F4, symBinAddr: 0x100005438, symSize: 0x14 }
  - { offsetInCU: 0x145A1, offset: 0x17474, size: 0x8, addend: 0x0, symName: __ZNSt3__120__throw_length_errorB8ue170006EPKc, symObjAddr: 0x1208, symBinAddr: 0x10000544C, symSize: 0x50 }
  - { offsetInCU: 0x145E3, offset: 0x174B6, size: 0x8, addend: 0x0, symName: __ZN8crashpad19CrashReportDatabase9NewReport6ReaderEv, symObjAddr: 0x530, symBinAddr: 0x100004774, symSize: 0xB0 }
  - { offsetInCU: 0x14D74, offset: 0x17C47, size: 0x8, addend: 0x0, symName: __ZN8crashpad19CrashReportDatabase9NewReport13AddAttachmentERKNSt3__112basic_stringIcNS2_11char_traitsIcEENS2_9allocatorIcEEEE, symObjAddr: 0x5E0, symBinAddr: 0x100004824, symSize: 0x340 }
  - { offsetInCU: 0x15CF3, offset: 0x18BC6, size: 0x8, addend: 0x0, symName: __ZN8crashpad19CrashReportDatabase15AttachmentsPathERKNS_4UUIDE, symObjAddr: 0x920, symBinAddr: 0x100004B64, symSize: 0x12C }
  - { offsetInCU: 0x1648A, offset: 0x1935D, size: 0x8, addend: 0x0, symName: __ZNSt3__16vectorINS_10unique_ptrIN8crashpad10FileWriterENS_14default_deleteIS3_EEEENS_9allocatorIS6_EEE24__emplace_back_slow_pathIJS6_EEEvDpOT_, symObjAddr: 0x12A4, symBinAddr: 0x1000054E8, symSize: 0x128 }
  - { offsetInCU: 0x16B4C, offset: 0x19A1F, size: 0x8, addend: 0x0, symName: __ZNKSt3__16vectorINS_10unique_ptrIN8crashpad10FileWriterENS_14default_deleteIS3_EEEENS_9allocatorIS6_EEE20__throw_length_errorB8ue170006Ev, symObjAddr: 0x13CC, symBinAddr: 0x100005610, symSize: 0x14 }
  - { offsetInCU: 0x16B62, offset: 0x19A35, size: 0x8, addend: 0x0, symName: __ZN4base13ScopedGenericINS_8FilePathEN8crashpad22ScopedRemoveFileTraitsEEC2EOS4_, symObjAddr: 0x15C4, symBinAddr: 0x100005808, symSize: 0x8C }
  - { offsetInCU: 0x16C20, offset: 0x19AF3, size: 0x8, addend: 0x0, symName: __ZNSt3__16vectorIN4base13ScopedGenericINS1_8FilePathEN8crashpad22ScopedRemoveFileTraitsEEENS_9allocatorIS6_EEE24__emplace_back_slow_pathIJS6_EEEvDpOT_, symObjAddr: 0x13E0, symBinAddr: 0x100005624, symSize: 0x1E4 }
  - { offsetInCU: 0x17893, offset: 0x1A766, size: 0x8, addend: 0x0, symName: __ZN8crashpad19CrashReportDatabase12UploadReport21InitializeAttachmentsEv, symObjAddr: 0xA4C, symBinAddr: 0x100004C90, symSize: 0x290 }
  - { offsetInCU: 0x18415, offset: 0x1B2E8, size: 0x8, addend: 0x0, symName: __ZNSt3__16vectorINS_10unique_ptrIN8crashpad10FileReaderENS_14default_deleteIS3_EEEENS_9allocatorIS6_EEE24__emplace_back_slow_pathIJS6_EEEvDpOT_, symObjAddr: 0x16CC, symBinAddr: 0x100005910, symSize: 0x128 }
  - { offsetInCU: 0x18AD7, offset: 0x1B9AA, size: 0x8, addend: 0x0, symName: __ZNKSt3__16vectorINS_10unique_ptrIN8crashpad10FileReaderENS_14default_deleteIS3_EEEENS_9allocatorIS6_EEE20__throw_length_errorB8ue170006Ev, symObjAddr: 0x17F4, symBinAddr: 0x100005A38, symSize: 0x14 }
  - { offsetInCU: 0x18B04, offset: 0x1B9D7, size: 0x8, addend: 0x0, symName: __ZNSt3__16__treeINS_12__value_typeINS_12basic_stringIcNS_11char_traitsIcEENS_9allocatorIcEEEEPN8crashpad10FileReaderEEENS_19__map_value_compareIS7_SB_NS_4lessIS7_EELb1EEENS5_ISB_EEE25__emplace_unique_key_argsIS7_JRKNS_21piecewise_construct_tENS_5tupleIJRKS7_EEENSM_IJEEEEEENS_4pairINS_15__tree_iteratorISB_PNS_11__tree_nodeISB_PvEElEEbEERKT_DpOT0_, symObjAddr: 0x188C, symBinAddr: 0x100005AD0, symSize: 0x1D4 }
  - { offsetInCU: 0x196CE, offset: 0x1C5A1, size: 0x8, addend: 0x0, symName: __ZN8crashpad19CrashReportDatabase12UploadReportC2Ev, symObjAddr: 0xCDC, symBinAddr: 0x100004F20, symSize: 0xBC }
  - { offsetInCU: 0x198FE, offset: 0x1C7D1, size: 0x8, addend: 0x0, symName: __ZN8crashpad19CrashReportDatabase6ReportD2Ev, symObjAddr: 0xD98, symBinAddr: 0x100004FDC, symSize: 0x50 }
  - { offsetInCU: 0x19A81, offset: 0x1C954, size: 0x8, addend: 0x0, symName: __ZN8crashpad19CrashReportDatabase12UploadReportC1Ev, symObjAddr: 0xDE8, symBinAddr: 0x10000502C, symSize: 0xD4 }
  - { offsetInCU: 0x19FC5, offset: 0x1CE98, size: 0x8, addend: 0x0, symName: __ZN8crashpad19CrashReportDatabase12UploadReportD2Ev, symObjAddr: 0xEBC, symBinAddr: 0x100005100, symSize: 0x100 }
  - { offsetInCU: 0x1A6CE, offset: 0x1D5A1, size: 0x8, addend: 0x0, symName: __ZNSt3__16__treeINS_12__value_typeINS_12basic_stringIcNS_11char_traitsIcEENS_9allocatorIcEEEEPN8crashpad10FileReaderEEENS_19__map_value_compareIS7_SB_NS_4lessIS7_EELb1EEENS5_ISB_EEE7destroyEPNS_11__tree_nodeISB_PvEE, symObjAddr: 0x1C14, symBinAddr: 0x100005E58, symSize: 0x60 }
  - { offsetInCU: 0x1A98F, offset: 0x1D862, size: 0x8, addend: 0x0, symName: __ZN8crashpad19CrashReportDatabase12UploadReportD1Ev, symObjAddr: 0xFC8, symBinAddr: 0x10000520C, symSize: 0x4 }
  - { offsetInCU: 0x1A9B3, offset: 0x1D886, size: 0x8, addend: 0x0, symName: __ZN8crashpad19CrashReportDatabase12UploadReportD1Ev, symObjAddr: 0xFC8, symBinAddr: 0x10000520C, symSize: 0x4 }
  - { offsetInCU: 0x1A9E1, offset: 0x1D8B4, size: 0x8, addend: 0x0, symName: __ZN8crashpad19CrashReportDatabase12UploadReportD0Ev, symObjAddr: 0xFCC, symBinAddr: 0x100005210, symSize: 0x14 }
  - { offsetInCU: 0x1AA56, offset: 0x1D929, size: 0x8, addend: 0x0, symName: __ZN8crashpad19CrashReportDatabase12UploadReport10InitializeERKN4base8FilePathEPS0_, symObjAddr: 0xFE0, symBinAddr: 0x100005224, symSize: 0x30 }
  - { offsetInCU: 0x1AAF1, offset: 0x1D9C4, size: 0x8, addend: 0x0, symName: __ZN8crashpad19CrashReportDatabase20RecordUploadCompleteENSt3__110unique_ptrIKNS0_12UploadReportENS1_14default_deleteIS4_EEEERKNS1_12basic_stringIcNS1_11char_traitsIcEENS1_9allocatorIcEEEE, symObjAddr: 0x1010, symBinAddr: 0x100005254, symSize: 0x1C }
  - { offsetInCU: 0x1AB86, offset: 0x1DA59, size: 0x8, addend: 0x0, symName: __ZN8crashpad19CrashReportDatabase19AttachmentsRootPathEv, symObjAddr: 0x102C, symBinAddr: 0x100005270, symSize: 0xC0 }
  - { offsetInCU: 0x1B0A7, offset: 0x1DF7A, size: 0x8, addend: 0x0, symName: __ZN8crashpad19CrashReportDatabase23RemoveAttachmentsByUUIDERKNS_4UUIDE, symObjAddr: 0x10EC, symBinAddr: 0x100005330, symSize: 0x108 }
  - { offsetInCU: 0x1B1A2, offset: 0x1E075, size: 0x8, addend: 0x0, symName: __ZNSt12length_errorC1B8ue170006EPKc, symObjAddr: 0x1258, symBinAddr: 0x10000549C, symSize: 0x24 }
  - { offsetInCU: 0x1B411, offset: 0x1E2E4, size: 0x8, addend: 0x0, symName: __ZNKSt3__16vectorINS_10unique_ptrIN8crashpad10FileWriterENS_14default_deleteIS3_EEEENS_9allocatorIS6_EEE20__throw_length_errorB8ue170006Ev, symObjAddr: 0x13CC, symBinAddr: 0x100005610, symSize: 0x14 }
  - { offsetInCU: 0x1B43B, offset: 0x1E30E, size: 0x8, addend: 0x0, symName: __ZNSt3__16vectorIN4base13ScopedGenericINS1_8FilePathEN8crashpad22ScopedRemoveFileTraitsEEENS_9allocatorIS6_EEE24__emplace_back_slow_pathIJS6_EEEvDpOT_, symObjAddr: 0x13E0, symBinAddr: 0x100005624, symSize: 0x1E4 }
  - { offsetInCU: 0x1B793, offset: 0x1E666, size: 0x8, addend: 0x0, symName: __ZNKSt3__16vectorIN4base13ScopedGenericINS1_8FilePathEN8crashpad22ScopedRemoveFileTraitsEEENS_9allocatorIS6_EEE20__throw_length_errorB8ue170006Ev, symObjAddr: 0x16B8, symBinAddr: 0x1000058FC, symSize: 0x14 }
  - { offsetInCU: 0x1B7BD, offset: 0x1E690, size: 0x8, addend: 0x0, symName: __ZNSt3__16vectorINS_10unique_ptrIN8crashpad10FileReaderENS_14default_deleteIS3_EEEENS_9allocatorIS6_EEE24__emplace_back_slow_pathIJS6_EEEvDpOT_, symObjAddr: 0x16CC, symBinAddr: 0x100005910, symSize: 0x128 }
  - { offsetInCU: 0x1B7C8, offset: 0x1E69B, size: 0x8, addend: 0x0, symName: __ZNSt3__114__split_bufferIN4base13ScopedGenericINS1_8FilePathEN8crashpad22ScopedRemoveFileTraitsEEERNS_9allocatorIS6_EEED1Ev, symObjAddr: 0x1650, symBinAddr: 0x100005894, symSize: 0x68 }
  - { offsetInCU: 0x1BC4B, offset: 0x1EB1E, size: 0x8, addend: 0x0, symName: __ZNKSt3__16vectorINS_10unique_ptrIN8crashpad10FileReaderENS_14default_deleteIS3_EEEENS_9allocatorIS6_EEE20__throw_length_errorB8ue170006Ev, symObjAddr: 0x17F4, symBinAddr: 0x100005A38, symSize: 0x14 }
  - { offsetInCU: 0x1BC75, offset: 0x1EB48, size: 0x8, addend: 0x0, symName: __ZN4base13ScopedGenericINS_8FilePathEN8crashpad22ScopedRemoveFileTraitsEE15FreeIfNecessaryEv, symObjAddr: 0x1808, symBinAddr: 0x100005A4C, symSize: 0x84 }
  - { offsetInCU: 0x44, offset: 0x1F127, size: 0x8, addend: 0x0, symName: __ZN8crashpad15g_crashpad_infoE, symObjAddr: 0x5E8, symBinAddr: 0x100088370, symSize: 0x0 }
  - { offsetInCU: 0x4D99, offset: 0x23E7C, size: 0x8, addend: 0x0, symName: __ZNSt3__124__put_character_sequenceB8ue170006IcNS_11char_traitsIcEEEERNS_13basic_ostreamIT_T0_EES7_PKS4_m, symObjAddr: 0x1C8, symBinAddr: 0x100006080, symSize: 0x164 }
  - { offsetInCU: 0x72A2, offset: 0x26385, size: 0x8, addend: 0x0, symName: __ZNSt3__116__pad_and_outputB8ue170006IcNS_11char_traitsIcEEEENS_19ostreambuf_iteratorIT_T0_EES6_PKS4_S8_S8_RNS_8ios_baseES4_, symObjAddr: 0x32C, symBinAddr: 0x1000061E4, symSize: 0x194 }
  - { offsetInCU: 0xA10C, offset: 0x291EF, size: 0x8, addend: 0x0, symName: __ZN8crashpad12CrashpadInfoC1Ev, symObjAddr: 0x0, symBinAddr: 0x100005EB8, symSize: 0x28 }
  - { offsetInCU: 0xA155, offset: 0x29238, size: 0x8, addend: 0x0, symName: __ZN8crashpad12CrashpadInfo15GetCrashpadInfoEv, symObjAddr: 0x28, symBinAddr: 0x100005EE0, symSize: 0xC }
  - { offsetInCU: 0xA16B, offset: 0x2924E, size: 0x8, addend: 0x0, symName: __ZN8crashpad12CrashpadInfoC2Ev, symObjAddr: 0x34, symBinAddr: 0x100005EEC, symSize: 0x28 }
  - { offsetInCU: 0xA18C, offset: 0x2926F, size: 0x8, addend: 0x0, symName: __ZN8crashpad12CrashpadInfo25AddUserDataMinidumpStreamEjPKvm, symObjAddr: 0x5C, symBinAddr: 0x100005F14, symSize: 0x54 }
  - { offsetInCU: 0xA2CE, offset: 0x293B1, size: 0x8, addend: 0x0, symName: __ZN8crashpad12CrashpadInfo28UpdateUserDataMinidumpStreamEPNS_8internal31UserDataMinidumpStreamListEntryEjPKvm, symObjAddr: 0xB0, symBinAddr: 0x100005F68, symSize: 0x118 }
  - { offsetInCU: 0x7F3, offset: 0x2A2D3, size: 0x8, addend: 0x0, symName: __ZN8crashpad24PruneCrashReportDatabaseEPNS_19CrashReportDatabaseEPNS_14PruneConditionE, symObjAddr: 0x0, symBinAddr: 0x100006378, symSize: 0x380 }
  - { offsetInCU: 0x8BE9, offset: 0x326C9, size: 0x8, addend: 0x0, symName: '__ZNSt3__111__introsortINS_17_ClassicAlgPolicyERZN8crashpad24PruneCrashReportDatabaseEPNS2_19CrashReportDatabaseEPNS2_14PruneConditionEE3$_0PNS3_6ReportELb0EEEvT1_SB_T0_NS_15iterator_traitsISB_E15difference_typeEb', symObjAddr: 0x141C, symBinAddr: 0x1000076D8, symSize: 0x128C }
  - { offsetInCU: 0xC4CE, offset: 0x35FAE, size: 0x8, addend: 0x0, symName: '__ZNSt3__127__insertion_sort_incompleteB8ue170006INS_17_ClassicAlgPolicyERZN8crashpad24PruneCrashReportDatabaseEPNS2_19CrashReportDatabaseEPNS2_14PruneConditionEE3$_0PNS3_6ReportEEEbT1_SB_T0_', symObjAddr: 0x26A8, symBinAddr: 0x100008964, symSize: 0x404 }
  - { offsetInCU: 0xF91D, offset: 0x393FD, size: 0x8, addend: 0x0, symName: __ZNSt3__135__uninitialized_allocator_copy_implB8ue170006INS_9allocatorIN8crashpad19CrashReportDatabase6ReportEEEPS4_S6_S6_EET2_RT_T0_T1_S7_, symObjAddr: 0xE1C, symBinAddr: 0x100007188, symSize: 0x154 }
  - { offsetInCU: 0xFE86, offset: 0x39966, size: 0x8, addend: 0x0, symName: __ZNSt3__142__uninitialized_allocator_move_if_noexceptB8ue170006INS_9allocatorIN8crashpad19CrashReportDatabase6ReportEEENS_16reverse_iteratorIPS4_EES8_S8_EET2_RT_T0_T1_S9_, symObjAddr: 0x10FC, symBinAddr: 0x1000073B8, symSize: 0x164 }
  - { offsetInCU: 0x10412, offset: 0x39EF2, size: 0x8, addend: 0x0, symName: __ZNSt3__142__uninitialized_allocator_move_if_noexceptB8ue170006INS_9allocatorIN8crashpad19CrashReportDatabase6ReportEEEPS4_S6_S6_EET2_RT_T0_T1_S7_, symObjAddr: 0x1260, symBinAddr: 0x10000751C, symSize: 0x154 }
  - { offsetInCU: 0x11778, offset: 0x3B258, size: 0x8, addend: 0x0, symName: __ZNSt3__14swapB8ue170006IN8crashpad19CrashReportDatabase6ReportEEENS_9enable_ifIXaasr21is_move_constructibleIT_EE5valuesr18is_move_assignableIS5_EE5valueEvE4typeERS5_S8_, symObjAddr: 0x2AAC, symBinAddr: 0x100008D68, symSize: 0x158 }
  - { offsetInCU: 0x11BFE, offset: 0x3B6DE, size: 0x8, addend: 0x0, symName: '__ZNSt3__17__sort4B8ue170006INS_17_ClassicAlgPolicyERZN8crashpad24PruneCrashReportDatabaseEPNS2_19CrashReportDatabaseEPNS2_14PruneConditionEE3$_0PNS3_6ReportEEEvT1_SB_SB_SB_T0_', symObjAddr: 0x2C04, symBinAddr: 0x100008EC0, symSize: 0x104 }
  - { offsetInCU: 0x1518B, offset: 0x3EC6B, size: 0x8, addend: 0x0, symName: __ZNSt3__16vectorIN8crashpad19CrashReportDatabase6ReportENS_9allocatorIS3_EEE18__insert_with_sizeB8ue170006INS_11__wrap_iterIPS3_EESA_EESA_NS8_IPKS3_EET_T0_l, symObjAddr: 0x7E8, symBinAddr: 0x100006B54, symSize: 0x454 }
  - { offsetInCU: 0x15FE9, offset: 0x3FAC9, size: 0x8, addend: 0x0, symName: __ZNSt3__16vectorIN8crashpad19CrashReportDatabase6ReportENS_9allocatorIS3_EEED1B8ue170006Ev, symObjAddr: 0x380, symBinAddr: 0x1000066F8, symSize: 0x80 }
  - { offsetInCU: 0x166A4, offset: 0x40184, size: 0x8, addend: 0x0, symName: __ZN8crashpad14PruneCondition10GetDefaultEv, symObjAddr: 0x400, symBinAddr: 0x100006778, symSize: 0xD8 }
  - { offsetInCU: 0x16941, offset: 0x40421, size: 0x8, addend: 0x0, symName: __ZN8crashpad26DatabaseSizePruneConditionC1Em, symObjAddr: 0x4D8, symBinAddr: 0x100006850, symSize: 0x14 }
  - { offsetInCU: 0x1696C, offset: 0x4044C, size: 0x8, addend: 0x0, symName: __ZN8crashpad26DatabaseSizePruneConditionC1Em, symObjAddr: 0x4D8, symBinAddr: 0x100006850, symSize: 0x14 }
  - { offsetInCU: 0x16990, offset: 0x40470, size: 0x8, addend: 0x0, symName: __ZN8crashpad17AgePruneConditionC1Ei, symObjAddr: 0x4EC, symBinAddr: 0x100006864, symSize: 0x70 }
  - { offsetInCU: 0x169F7, offset: 0x404D7, size: 0x8, addend: 0x0, symName: __ZN8crashpad17AgePruneConditionC2Ei, symObjAddr: 0x55C, symBinAddr: 0x1000068D4, symSize: 0x70 }
  - { offsetInCU: 0x16A38, offset: 0x40518, size: 0x8, addend: 0x0, symName: __ZN8crashpad17AgePruneConditionD2Ev, symObjAddr: 0x5CC, symBinAddr: 0x100006944, symSize: 0x4 }
  - { offsetInCU: 0x16A63, offset: 0x40543, size: 0x8, addend: 0x0, symName: __ZN8crashpad17AgePruneConditionD1Ev, symObjAddr: 0x5D0, symBinAddr: 0x100006948, symSize: 0x4 }
  - { offsetInCU: 0x16A8E, offset: 0x4056E, size: 0x8, addend: 0x0, symName: __ZN8crashpad17AgePruneConditionD0Ev, symObjAddr: 0x5D4, symBinAddr: 0x10000694C, symSize: 0x4 }
  - { offsetInCU: 0x16AB9, offset: 0x40599, size: 0x8, addend: 0x0, symName: __ZN8crashpad17AgePruneCondition17ShouldPruneReportERKNS_19CrashReportDatabase6ReportE, symObjAddr: 0x5D8, symBinAddr: 0x100006950, symSize: 0x14 }
  - { offsetInCU: 0x16AEF, offset: 0x405CF, size: 0x8, addend: 0x0, symName: __ZN8crashpad26DatabaseSizePruneConditionC2Em, symObjAddr: 0x5EC, symBinAddr: 0x100006964, symSize: 0x14 }
  - { offsetInCU: 0x16B18, offset: 0x405F8, size: 0x8, addend: 0x0, symName: __ZN8crashpad26DatabaseSizePruneConditionD2Ev, symObjAddr: 0x600, symBinAddr: 0x100006978, symSize: 0x4 }
  - { offsetInCU: 0x16B43, offset: 0x40623, size: 0x8, addend: 0x0, symName: __ZN8crashpad26DatabaseSizePruneConditionD1Ev, symObjAddr: 0x604, symBinAddr: 0x10000697C, symSize: 0x4 }
  - { offsetInCU: 0x16B6E, offset: 0x4064E, size: 0x8, addend: 0x0, symName: __ZN8crashpad26DatabaseSizePruneConditionD0Ev, symObjAddr: 0x608, symBinAddr: 0x100006980, symSize: 0x4 }
  - { offsetInCU: 0x16B99, offset: 0x40679, size: 0x8, addend: 0x0, symName: __ZN8crashpad26DatabaseSizePruneCondition17ShouldPruneReportERKNS_19CrashReportDatabase6ReportE, symObjAddr: 0x60C, symBinAddr: 0x100006984, symSize: 0x20 }
  - { offsetInCU: 0x16BCF, offset: 0x406AF, size: 0x8, addend: 0x0, symName: __ZN8crashpad20BinaryPruneConditionC2ENS0_8OperatorEPNS_14PruneConditionES3_, symObjAddr: 0x62C, symBinAddr: 0x1000069A4, symSize: 0x18 }
  - { offsetInCU: 0x16CB8, offset: 0x40798, size: 0x8, addend: 0x0, symName: __ZN8crashpad20BinaryPruneConditionC1ENS0_8OperatorEPNS_14PruneConditionES3_, symObjAddr: 0x644, symBinAddr: 0x1000069BC, symSize: 0x18 }
  - { offsetInCU: 0x16CF3, offset: 0x407D3, size: 0x8, addend: 0x0, symName: __ZN8crashpad20BinaryPruneConditionC1ENS0_8OperatorEPNS_14PruneConditionES3_, symObjAddr: 0x644, symBinAddr: 0x1000069BC, symSize: 0x18 }
  - { offsetInCU: 0x16E61, offset: 0x40941, size: 0x8, addend: 0x0, symName: __ZN8crashpad20BinaryPruneConditionD2Ev, symObjAddr: 0x65C, symBinAddr: 0x1000069D4, symSize: 0x50 }
  - { offsetInCU: 0x16FE8, offset: 0x40AC8, size: 0x8, addend: 0x0, symName: __ZN8crashpad20BinaryPruneConditionD1Ev, symObjAddr: 0x6AC, symBinAddr: 0x100006A24, symSize: 0x50 }
  - { offsetInCU: 0x1718D, offset: 0x40C6D, size: 0x8, addend: 0x0, symName: __ZN8crashpad20BinaryPruneConditionD0Ev, symObjAddr: 0x6FC, symBinAddr: 0x100006A74, symSize: 0x50 }
  - { offsetInCU: 0x17359, offset: 0x40E39, size: 0x8, addend: 0x0, symName: __ZN8crashpad20BinaryPruneCondition17ShouldPruneReportERKNS_19CrashReportDatabase6ReportE, symObjAddr: 0x74C, symBinAddr: 0x100006AC4, symSize: 0x90 }
  - { offsetInCU: 0x17AEC, offset: 0x415CC, size: 0x8, addend: 0x0, symName: __ZNSt3__114__split_bufferIN8crashpad19CrashReportDatabase6ReportERNS_9allocatorIS3_EEE28__construct_at_end_with_sizeINS_11__wrap_iterIPS3_EEEEvT_m, symObjAddr: 0xC3C, symBinAddr: 0x100006FA8, symSize: 0x174 }
  - { offsetInCU: 0x1811B, offset: 0x41BFB, size: 0x8, addend: 0x0, symName: __ZNKSt3__16vectorIN8crashpad19CrashReportDatabase6ReportENS_9allocatorIS3_EEE20__throw_length_errorB8ue170006Ev, symObjAddr: 0x10E8, symBinAddr: 0x1000073A4, symSize: 0x14 }
  - { offsetInCU: 0x18145, offset: 0x41C25, size: 0x8, addend: 0x0, symName: __ZNSt3__142__uninitialized_allocator_move_if_noexceptB8ue170006INS_9allocatorIN8crashpad19CrashReportDatabase6ReportEEENS_16reverse_iteratorIPS4_EES8_S8_EET2_RT_T0_T1_S9_, symObjAddr: 0x10FC, symBinAddr: 0x1000073B8, symSize: 0x164 }
  - { offsetInCU: 0x18150, offset: 0x41C30, size: 0x8, addend: 0x0, symName: __ZNSt3__114__split_bufferIN8crashpad19CrashReportDatabase6ReportERNS_9allocatorIS3_EEED1Ev, symObjAddr: 0xDB0, symBinAddr: 0x10000711C, symSize: 0x6C }
  - { offsetInCU: 0x18796, offset: 0x42276, size: 0x8, addend: 0x0, symName: __ZNSt3__128__exception_guard_exceptionsINS_29_AllocatorDestroyRangeReverseINS_9allocatorIN8crashpad19CrashReportDatabase6ReportEEEPS5_EEED1B8ue170006Ev, symObjAddr: 0xF70, symBinAddr: 0x1000072DC, symSize: 0x78 }
  - { offsetInCU: 0x18A93, offset: 0x42573, size: 0x8, addend: 0x0, symName: __ZN8crashpad19CrashReportDatabase6ReportD1Ev, symObjAddr: 0x1098, symBinAddr: 0x100007354, symSize: 0x50 }
  - { offsetInCU: 0x18CA1, offset: 0x42781, size: 0x8, addend: 0x0, symName: __ZNSt3__128__exception_guard_exceptionsINS_29_AllocatorDestroyRangeReverseINS_9allocatorIN8crashpad19CrashReportDatabase6ReportEEENS_16reverse_iteratorIPS5_EEEEED1B8ue170006Ev, symObjAddr: 0x13B4, symBinAddr: 0x100007670, symSize: 0x68 }
  - { offsetInCU: 0x7A0E, offset: 0x4A7F9, size: 0x8, addend: 0x0, symName: __ZN8crashpad8internal28ScopedLockedFileHandleTraits4FreeEi, symObjAddr: 0x0, symBinAddr: 0x100008FC4, symSize: 0x30 }
  - { offsetInCU: 0x7A88, offset: 0x4A873, size: 0x8, addend: 0x0, symName: __ZN8crashpad8SettingsC2Ev, symObjAddr: 0x30, symBinAddr: 0x100008FF4, symSize: 0x18 }
  - { offsetInCU: 0x7B0A, offset: 0x4A8F5, size: 0x8, addend: 0x0, symName: __ZN8crashpad8SettingsC1Ev, symObjAddr: 0x48, symBinAddr: 0x10000900C, symSize: 0x18 }
  - { offsetInCU: 0x7BC7, offset: 0x4A9B2, size: 0x8, addend: 0x0, symName: __ZN8crashpad8SettingsD2Ev, symObjAddr: 0x60, symBinAddr: 0x100009024, symSize: 0xC }
  - { offsetInCU: 0x7C44, offset: 0x4AA2F, size: 0x8, addend: 0x0, symName: __ZN8crashpad8SettingsD1Ev, symObjAddr: 0x6C, symBinAddr: 0x100009030, symSize: 0xC }
  - { offsetInCU: 0x7DAC, offset: 0x4AB97, size: 0x8, addend: 0x0, symName: __ZN8crashpad8Settings10InitializeERKN4base8FilePathE, symObjAddr: 0x78, symBinAddr: 0x10000903C, symSize: 0x84 }
  - { offsetInCU: 0x7F38, offset: 0x4AD23, size: 0x8, addend: 0x0, symName: __ZN8crashpad8Settings29OpenForWritingAndReadSettingsEPNS0_4DataE, symObjAddr: 0xFC, symBinAddr: 0x1000090C0, symSize: 0x168 }
  - { offsetInCU: 0x8558, offset: 0x4B343, size: 0x8, addend: 0x0, symName: __ZN8crashpad8Settings26MakeScopedLockedFileHandleERKNS_8internal33MakeScopedLockedFileHandleOptionsENS_11FileLockingERKN4base8FilePathE, symObjAddr: 0x6AC, symBinAddr: 0x100009670, symSize: 0x140 }
  - { offsetInCU: 0x875A, offset: 0x4B545, size: 0x8, addend: 0x0, symName: __ZN8crashpad8Settings12ReadSettingsEiPNS0_4DataEb, symObjAddr: 0x8D8, symBinAddr: 0x10000989C, symSize: 0x180 }
  - { offsetInCU: 0x88C4, offset: 0x4B6AF, size: 0x8, addend: 0x0, symName: __ZN8crashpad8Settings15RecoverSettingsEiPNS0_4DataE, symObjAddr: 0xA58, symBinAddr: 0x100009A1C, symSize: 0x1BC }
  - { offsetInCU: 0x8C85, offset: 0x4BA70, size: 0x8, addend: 0x0, symName: __ZN4base13ScopedGenericIiN8crashpad8internal28ScopedLockedFileHandleTraitsEED1Ev, symObjAddr: 0x264, symBinAddr: 0x100009228, symSize: 0x48 }
  - { offsetInCU: 0x8D26, offset: 0x4BB11, size: 0x8, addend: 0x0, symName: __ZN8crashpad8Settings11GetClientIDEPNS_4UUIDE, symObjAddr: 0x2AC, symBinAddr: 0x100009270, symSize: 0x4C }
  - { offsetInCU: 0x8DCA, offset: 0x4BBB5, size: 0x8, addend: 0x0, symName: __ZN8crashpad8Settings19OpenAndReadSettingsEPNS0_4DataE, symObjAddr: 0x2F8, symBinAddr: 0x1000092BC, symSize: 0x108 }
  - { offsetInCU: 0x900E, offset: 0x4BDF9, size: 0x8, addend: 0x0, symName: __ZN8crashpad8Settings17GetUploadsEnabledEPb, symObjAddr: 0x400, symBinAddr: 0x1000093C4, symSize: 0x50 }
  - { offsetInCU: 0x90E5, offset: 0x4BED0, size: 0x8, addend: 0x0, symName: __ZN8crashpad8Settings17SetUploadsEnabledEb, symObjAddr: 0x450, symBinAddr: 0x100009414, symSize: 0xE0 }
  - { offsetInCU: 0x92E4, offset: 0x4C0CF, size: 0x8, addend: 0x0, symName: __ZN8crashpad8Settings13WriteSettingsEiRKNS0_4DataE, symObjAddr: 0x530, symBinAddr: 0x1000094F4, symSize: 0x5C }
  - { offsetInCU: 0x9370, offset: 0x4C15B, size: 0x8, addend: 0x0, symName: __ZN8crashpad8Settings24GetLastUploadAttemptTimeEPl, symObjAddr: 0x58C, symBinAddr: 0x100009550, symSize: 0x4C }
  - { offsetInCU: 0x9414, offset: 0x4C1FF, size: 0x8, addend: 0x0, symName: __ZN8crashpad8Settings24SetLastUploadAttemptTimeEl, symObjAddr: 0x5D8, symBinAddr: 0x10000959C, symSize: 0xD4 }
  - { offsetInCU: 0x9762, offset: 0x4C54D, size: 0x8, addend: 0x0, symName: __ZN4base13ScopedGenericIiNS_8internal19ScopedFDCloseTraitsEED1Ev, symObjAddr: 0x830, symBinAddr: 0x1000097F4, symSize: 0x3C }
  - { offsetInCU: 0x97C3, offset: 0x4C5AE, size: 0x8, addend: 0x0, symName: __ZN8crashpad8Settings20GetHandleFromOptionsERKN4base8FilePathERKNS_8internal33MakeScopedLockedFileHandleOptionsE, symObjAddr: 0x7EC, symBinAddr: 0x1000097B0, symSize: 0x44 }
  - { offsetInCU: 0x9830, offset: 0x4C61B, size: 0x8, addend: 0x0, symName: __ZN8crashpad8Settings14OpenForReadingEv, symObjAddr: 0x86C, symBinAddr: 0x100009830, symSize: 0x2C }
  - { offsetInCU: 0x9884, offset: 0x4C66F, size: 0x8, addend: 0x0, symName: __ZN8crashpad8Settings24OpenForReadingAndWritingENS_13FileWriteModeEb, symObjAddr: 0x898, symBinAddr: 0x10000985C, symSize: 0x40 }
  - { offsetInCU: 0x99C8, offset: 0x4C7B3, size: 0x8, addend: 0x0, symName: __ZN8crashpad8Settings18InitializeSettingsEi, symObjAddr: 0xC14, symBinAddr: 0x100009BD8, symSize: 0x90 }
  - { offsetInCU: 0xD49B, offset: 0x5A270, size: 0x8, addend: 0x0, symName: __ZNSt3__117__call_once_proxyB8ue170006INS_5tupleIJOZN8crashpad22CrashReportDatabaseMac16SettingsInternalEvEUlvE_EEEEEvPv, symObjAddr: 0x3F98, symBinAddr: 0x10000DAB8, symSize: 0x4 }
  - { offsetInCU: 0xD4D7, offset: 0x5A2AC, size: 0x8, addend: 0x0, symName: __ZNSt3__117__call_once_proxyB8ue170006INS_5tupleIJOZN8crashpad22CrashReportDatabaseMac16SettingsInternalEvEUlvE_EEEEEvPv, symObjAddr: 0x3F98, symBinAddr: 0x10000DAB8, symSize: 0x4 }
  - { offsetInCU: 0xD4F7, offset: 0x5A2CC, size: 0x8, addend: 0x0, symName: __ZNSt3__117__call_once_proxyB8ue170006INS_5tupleIJOZN8crashpad22CrashReportDatabaseMac16SettingsInternalEvEUlvE_EEEEEvPv, symObjAddr: 0x3F98, symBinAddr: 0x10000DAB8, symSize: 0x4 }
  - { offsetInCU: 0xDE2A, offset: 0x5ABFF, size: 0x8, addend: 0x0, symName: __ZN8crashpad12_GLOBAL__N_125kXattrDatabaseInitializedE, symObjAddr: 0x5208, symBinAddr: 0x10007B620, symSize: 0x0 }
  - { offsetInCU: 0xDE44, offset: 0x5AC19, size: 0x8, addend: 0x0, symName: __ZN8crashpad12_GLOBAL__N_125kCrashReportFileExtensionE, symObjAddr: 0x5214, symBinAddr: 0x10007B62C, symSize: 0x0 }
  - { offsetInCU: 0xDE5E, offset: 0x5AC33, size: 0x8, addend: 0x0, symName: __ZN8crashpad12_GLOBAL__N_110kXattrUUIDE, symObjAddr: 0x5218, symBinAddr: 0x10007B630, symSize: 0x0 }
  - { offsetInCU: 0xDE78, offset: 0x5AC4D, size: 0x8, addend: 0x0, symName: __ZN8crashpad12_GLOBAL__N_118kXattrCreationTimeE, symObjAddr: 0x521D, symBinAddr: 0x10007B635, symSize: 0x0 }
  - { offsetInCU: 0xDE92, offset: 0x5AC67, size: 0x8, addend: 0x0, symName: __ZN8crashpad12_GLOBAL__N_116kXattrIsUploadedE, symObjAddr: 0x522B, symBinAddr: 0x10007B643, symSize: 0x0 }
  - { offsetInCU: 0xDEAC, offset: 0x5AC81, size: 0x8, addend: 0x0, symName: __ZN8crashpad12_GLOBAL__N_117kXattrCollectorIDE, symObjAddr: 0x5234, symBinAddr: 0x10007B64C, symSize: 0x0 }
  - { offsetInCU: 0xDEC6, offset: 0x5AC9B, size: 0x8, addend: 0x0, symName: __ZN8crashpad12_GLOBAL__N_120kXattrLastUploadTimeE, symObjAddr: 0x5237, symBinAddr: 0x10007B64F, symSize: 0x0 }
  - { offsetInCU: 0xDEE0, offset: 0x5ACB5, size: 0x8, addend: 0x0, symName: __ZN8crashpad12_GLOBAL__N_124kXattrUploadAttemptCountE, symObjAddr: 0x5248, symBinAddr: 0x10007B660, symSize: 0x0 }
  - { offsetInCU: 0xDEFA, offset: 0x5ACCF, size: 0x8, addend: 0x0, symName: __ZN8crashpad12_GLOBAL__N_133kXattrIsUploadExplicitlyRequestedE, symObjAddr: 0x5255, symBinAddr: 0x10007B66D, symSize: 0x0 }
  - { offsetInCU: 0xDF2F, offset: 0x5AD04, size: 0x8, addend: 0x0, symName: __ZN8crashpad12_GLOBAL__N_129CreateOrEnsureDirectoryExistsERKN4base8FilePathE, symObjAddr: 0x524, symBinAddr: 0x10000A18C, symSize: 0x104 }
  - { offsetInCU: 0xE109, offset: 0x5AEDE, size: 0x8, addend: 0x0, symName: __ZN8crashpad12_GLOBAL__N_121EnsureDirectoryExistsERKN4base8FilePathE, symObjAddr: 0x628, symBinAddr: 0x10000A290, symSize: 0x170 }
  - { offsetInCU: 0xF302, offset: 0x5C0D7, size: 0x8, addend: 0x0, symName: __ZN8crashpad18InitializeInternalERKN4base8FilePathEb, symObjAddr: 0x3DF8, symBinAddr: 0x10000D9D4, symSize: 0xD4 }
  - { offsetInCU: 0x10DE5, offset: 0x5DBBA, size: 0x8, addend: 0x0, symName: __ZN8crashpad22CrashReportDatabaseMac16SettingsInternalEv, symObjAddr: 0x884, symBinAddr: 0x10000A4EC, symSize: 0x5C }
  - { offsetInCU: 0x13172, offset: 0x5FF47, size: 0x8, addend: 0x0, symName: __ZN8crashpad22CrashReportDatabaseMacC2ERKN4base8FilePathE, symObjAddr: 0x0, symBinAddr: 0x100009C68, symSize: 0x68 }
  - { offsetInCU: 0x1320C, offset: 0x5FFE1, size: 0x8, addend: 0x0, symName: __ZN8crashpad22CrashReportDatabaseMacC1ERKN4base8FilePathE, symObjAddr: 0x68, symBinAddr: 0x100009CD0, symSize: 0x68 }
  - { offsetInCU: 0x132A0, offset: 0x60075, size: 0x8, addend: 0x0, symName: __ZN8crashpad22CrashReportDatabaseMacD2Ev, symObjAddr: 0xD0, symBinAddr: 0x100009D38, symSize: 0x40 }
  - { offsetInCU: 0x132DF, offset: 0x600B4, size: 0x8, addend: 0x0, symName: __ZN8crashpad22CrashReportDatabaseMacD1Ev, symObjAddr: 0x110, symBinAddr: 0x100009D78, symSize: 0x40 }
  - { offsetInCU: 0x1333D, offset: 0x60112, size: 0x8, addend: 0x0, symName: __ZN8crashpad22CrashReportDatabaseMacD0Ev, symObjAddr: 0x150, symBinAddr: 0x100009DB8, symSize: 0x40 }
  - { offsetInCU: 0x136ED, offset: 0x604C2, size: 0x8, addend: 0x0, symName: __ZN8crashpad22CrashReportDatabaseMac10InitializeEb, symObjAddr: 0x190, symBinAddr: 0x100009DF8, symSize: 0x394 }
  - { offsetInCU: 0x14664, offset: 0x61439, size: 0x8, addend: 0x0, symName: __ZN8crashpad22CrashReportDatabaseMac9XattrNameERKN4base16BasicStringPieceINSt3__112basic_stringIcNS3_11char_traitsIcEENS3_9allocatorIcEEEEEE, symObjAddr: 0x798, symBinAddr: 0x10000A400, symSize: 0x84 }
  - { offsetInCU: 0x1476C, offset: 0x61541, size: 0x8, addend: 0x0, symName: __ZN8crashpad22CrashReportDatabaseMac12DatabasePathEv, symObjAddr: 0x81C, symBinAddr: 0x10000A484, symSize: 0xC }
  - { offsetInCU: 0x1499C, offset: 0x61771, size: 0x8, addend: 0x0, symName: __ZN8crashpad22CrashReportDatabaseMac11GetSettingsEv, symObjAddr: 0x828, symBinAddr: 0x10000A490, symSize: 0x5C }
  - { offsetInCU: 0x14D6D, offset: 0x61B42, size: 0x8, addend: 0x0, symName: __ZN8crashpad22CrashReportDatabaseMac21PrepareNewCrashReportEPNSt3__110unique_ptrINS_19CrashReportDatabase9NewReportENS1_14default_deleteIS4_EEEE, symObjAddr: 0x8E0, symBinAddr: 0x10000A548, symSize: 0x2C4 }
  - { offsetInCU: 0x15F27, offset: 0x62CFC, size: 0x8, addend: 0x0, symName: __ZNSt3__110unique_ptrIN8crashpad19CrashReportDatabase9NewReportENS_14default_deleteIS3_EEED1B8ue170006Ev, symObjAddr: 0xBA4, symBinAddr: 0x10000A80C, symSize: 0x34 }
  - { offsetInCU: 0x1616E, offset: 0x62F43, size: 0x8, addend: 0x0, symName: __ZN8crashpad22CrashReportDatabaseMac26FinishedWritingCrashReportENSt3__110unique_ptrINS_19CrashReportDatabase9NewReportENS1_14default_deleteIS4_EEEEPNS_4UUIDE, symObjAddr: 0xBD8, symBinAddr: 0x10000A840, symSize: 0x5E0 }
  - { offsetInCU: 0x1791F, offset: 0x646F4, size: 0x8, addend: 0x0, symName: __ZN4base13ScopedGenericINS_8FilePathEN8crashpad22ScopedRemoveFileTraitsEE7releaseEv, symObjAddr: 0x11B8, symBinAddr: 0x10000AE20, symSize: 0x74 }
  - { offsetInCU: 0x17AA8, offset: 0x6487D, size: 0x8, addend: 0x0, symName: __ZN8crashpad22CrashReportDatabaseMac17LookUpCrashReportERKNS_4UUIDEPNS_19CrashReportDatabase6ReportE, symObjAddr: 0x122C, symBinAddr: 0x10000AE94, symSize: 0x16C }
  - { offsetInCU: 0x17E9A, offset: 0x64C6F, size: 0x8, addend: 0x0, symName: __ZN8crashpad22CrashReportDatabaseMac17LocateCrashReportERKNS_4UUIDEh, symObjAddr: 0x1398, symBinAddr: 0x10000B000, symSize: 0x630 }
  - { offsetInCU: 0x1A821, offset: 0x675F6, size: 0x8, addend: 0x0, symName: __ZN8crashpad22CrashReportDatabaseMac16ObtainReportLockERKN4base8FilePathE, symObjAddr: 0x19C8, symBinAddr: 0x10000B630, symSize: 0xF4 }
  - { offsetInCU: 0x1AA87, offset: 0x6785C, size: 0x8, addend: 0x0, symName: __ZN8crashpad22CrashReportDatabaseMac24ReadReportMetadataLockedERKN4base8FilePathEPNS_19CrashReportDatabase6ReportE, symObjAddr: 0x1B0C, symBinAddr: 0x10000B724, symSize: 0x570 }
  - { offsetInCU: 0x1CA09, offset: 0x697DE, size: 0x8, addend: 0x0, symName: __ZNSt3__16vectorINS_12basic_stringIcNS_11char_traitsIcEENS_9allocatorIcEEEENS4_IS6_EEE21__push_back_slow_pathIS6_EEvOT_, symObjAddr: 0x4060, symBinAddr: 0x10000DB80, symSize: 0x16C }
  - { offsetInCU: 0x1D105, offset: 0x69EDA, size: 0x8, addend: 0x0, symName: __ZNKSt3__16vectorINS_12basic_stringIcNS_11char_traitsIcEENS_9allocatorIcEEEENS4_IS6_EEE20__throw_length_errorB8ue170006Ev, symObjAddr: 0x41CC, symBinAddr: 0x10000DCEC, symSize: 0x14 }
  - { offsetInCU: 0x1D157, offset: 0x69F2C, size: 0x8, addend: 0x0, symName: __ZNSt3__16vectorINS_12basic_stringIcNS_11char_traitsIcEENS_9allocatorIcEEEENS4_IS6_EEED1B8ue170006Ev, symObjAddr: 0x32D8, symBinAddr: 0x10000CEB4, symSize: 0x74 }
  - { offsetInCU: 0x1D500, offset: 0x6A2D5, size: 0x8, addend: 0x0, symName: __ZN8crashpad22CrashReportDatabaseMac17GetPendingReportsEPNSt3__16vectorINS_19CrashReportDatabase6ReportENS1_9allocatorIS4_EEEE, symObjAddr: 0x20B8, symBinAddr: 0x10000BC94, symSize: 0xCC }
  - { offsetInCU: 0x1D9B6, offset: 0x6A78B, size: 0x8, addend: 0x0, symName: __ZN8crashpad22CrashReportDatabaseMac18ReportsInDirectoryERKN4base8FilePathEPNSt3__16vectorINS_19CrashReportDatabase6ReportENS5_9allocatorIS8_EEEE, symObjAddr: 0x2184, symBinAddr: 0x10000BD60, symSize: 0x59C }
  - { offsetInCU: 0x1ED48, offset: 0x6BB1D, size: 0x8, addend: 0x0, symName: __ZNSt3__16vectorIN8crashpad19CrashReportDatabase6ReportENS_9allocatorIS3_EEE7reserveEm, symObjAddr: 0x3CC0, symBinAddr: 0x10000D89C, symSize: 0x138 }
  - { offsetInCU: 0x1F30D, offset: 0x6C0E2, size: 0x8, addend: 0x0, symName: __ZNSt3__16vectorIN8crashpad19CrashReportDatabase6ReportENS_9allocatorIS3_EEE21__push_back_slow_pathIRKS3_EEvOT_, symObjAddr: 0x442C, symBinAddr: 0x10000DD00, symSize: 0x258 }
  - { offsetInCU: 0x1FD91, offset: 0x6CB66, size: 0x8, addend: 0x0, symName: __ZN8crashpad22CrashReportDatabaseMac19GetCompletedReportsEPNSt3__16vectorINS_19CrashReportDatabase6ReportENS1_9allocatorIS4_EEEE, symObjAddr: 0x2720, symBinAddr: 0x10000C2FC, symSize: 0xC8 }
  - { offsetInCU: 0x2047C, offset: 0x6D251, size: 0x8, addend: 0x0, symName: __ZN8crashpad22CrashReportDatabaseMac21GetReportForUploadingERKNS_4UUIDEPNSt3__110unique_ptrIKNS_19CrashReportDatabase12UploadReportENS4_14default_deleteIS8_EEEEb, symObjAddr: 0x27E8, symBinAddr: 0x10000C3C4, symSize: 0x1FC }
  - { offsetInCU: 0x20907, offset: 0x6D6DC, size: 0x8, addend: 0x0, symName: __ZN8crashpad22CrashReportDatabaseMac19RecordUploadAttemptEPNS_19CrashReportDatabase12UploadReportEbRKNSt3__112basic_stringIcNS4_11char_traitsIcEENS4_9allocatorIcEEEE, symObjAddr: 0x29E4, symBinAddr: 0x10000C5C0, symSize: 0x3D8 }
  - { offsetInCU: 0x217FF, offset: 0x6E5D4, size: 0x8, addend: 0x0, symName: __ZN8crashpad22CrashReportDatabaseMac25MarkReportCompletedLockedERKN4base8FilePathEPS2_, symObjAddr: 0x2DBC, symBinAddr: 0x10000C998, symSize: 0x2E0 }
  - { offsetInCU: 0x224AC, offset: 0x6F281, size: 0x8, addend: 0x0, symName: __ZN8crashpad22CrashReportDatabaseMac16SkipReportUploadERKNS_4UUIDENS_7Metrics18CrashSkippedReasonE, symObjAddr: 0x309C, symBinAddr: 0x10000CC78, symSize: 0xD4 }
  - { offsetInCU: 0x2267E, offset: 0x6F453, size: 0x8, addend: 0x0, symName: __ZN8crashpad22CrashReportDatabaseMac12DeleteReportERKNS_4UUIDE, symObjAddr: 0x3170, symBinAddr: 0x10000CD4C, symSize: 0x168 }
  - { offsetInCU: 0x229DB, offset: 0x6F7B0, size: 0x8, addend: 0x0, symName: __ZN8crashpad22CrashReportDatabaseMac13RequestUploadERKNS_4UUIDE, symObjAddr: 0x334C, symBinAddr: 0x10000CF28, symSize: 0x3FC }
  - { offsetInCU: 0x23980, offset: 0x70755, size: 0x8, addend: 0x0, symName: __ZN8crashpad22CrashReportDatabaseMac13CleanDatabaseEl, symObjAddr: 0x3748, symBinAddr: 0x10000D324, symSize: 0x178 }
  - { offsetInCU: 0x23F3A, offset: 0x70D0F, size: 0x8, addend: 0x0, symName: __ZN8crashpad22CrashReportDatabaseMac24CleanOrphanedAttachmentsEv, symObjAddr: 0x38C0, symBinAddr: 0x10000D49C, symSize: 0x400 }
  - { offsetInCU: 0x25682, offset: 0x72457, size: 0x8, addend: 0x0, symName: __ZN8crashpad19CrashReportDatabase10InitializeERKN4base8FilePathE, symObjAddr: 0x3ECC, symBinAddr: 0x10000DAA8, symSize: 0x8 }
  - { offsetInCU: 0x256CA, offset: 0x7249F, size: 0x8, addend: 0x0, symName: __ZN8crashpad19CrashReportDatabase25InitializeWithoutCreatingERKN4base8FilePathE, symObjAddr: 0x3ED4, symBinAddr: 0x10000DAB0, symSize: 0x8 }
  - { offsetInCU: 0x2578C, offset: 0x72561, size: 0x8, addend: 0x0, symName: __ZNSt3__117__call_once_paramINS_5tupleIJOZN8crashpad22CrashReportDatabaseMac16SettingsInternalEvEUlvE_EEEE9__executeB8ue170006IJEEEvNS_15__tuple_indicesIJXspT_EEEE, symObjAddr: 0x3F9C, symBinAddr: 0x10000DABC, symSize: 0xC4 }
  - { offsetInCU: 0x25F95, offset: 0x72D6A, size: 0x8, addend: 0x0, symName: __ZNKSt3__16vectorINS_12basic_stringIcNS_11char_traitsIcEENS_9allocatorIcEEEENS4_IS6_EEE20__throw_length_errorB8ue170006Ev, symObjAddr: 0x41CC, symBinAddr: 0x10000DCEC, symSize: 0x14 }
  - { offsetInCU: 0x26567, offset: 0x7333C, size: 0x8, addend: 0x0, symName: __ZN8crashpad22CrashReportDatabaseMac15UploadReportMacD1Ev, symObjAddr: 0x497C, symBinAddr: 0x10000DF58, symSize: 0x4C }
  - { offsetInCU: 0x26617, offset: 0x733EC, size: 0x8, addend: 0x0, symName: __ZN8crashpad22CrashReportDatabaseMac15UploadReportMacD0Ev, symObjAddr: 0x49C8, symBinAddr: 0x10000DFA4, symSize: 0x50 }
  - { offsetInCU: 0x11663, offset: 0x84C72, size: 0x8, addend: 0x0, symName: __ZN8crashpad14CrashpadClientC2Ev, symObjAddr: 0x0, symBinAddr: 0x10000DFF4, symSize: 0x8 }
  - { offsetInCU: 0x11686, offset: 0x84C95, size: 0x8, addend: 0x0, symName: __ZN8crashpad14CrashpadClientC2Ev, symObjAddr: 0x0, symBinAddr: 0x10000DFF4, symSize: 0x8 }
  - { offsetInCU: 0x116A4, offset: 0x84CB3, size: 0x8, addend: 0x0, symName: __ZN8crashpad14CrashpadClientC2Ev, symObjAddr: 0x0, symBinAddr: 0x10000DFF4, symSize: 0x8 }
  - { offsetInCU: 0x116C1, offset: 0x84CD0, size: 0x8, addend: 0x0, symName: __ZN8crashpad14CrashpadClientC2Ev, symObjAddr: 0x0, symBinAddr: 0x10000DFF4, symSize: 0x8 }
  - { offsetInCU: 0x116DE, offset: 0x84CED, size: 0x8, addend: 0x0, symName: __ZN8crashpad14CrashpadClientC2Ev, symObjAddr: 0x0, symBinAddr: 0x10000DFF4, symSize: 0x8 }
  - { offsetInCU: 0x1171F, offset: 0x84D2E, size: 0x8, addend: 0x0, symName: __ZN8crashpad14CrashpadClientC1Ev, symObjAddr: 0x8, symBinAddr: 0x10000DFFC, symSize: 0x8 }
  - { offsetInCU: 0x1174D, offset: 0x84D5C, size: 0x8, addend: 0x0, symName: __ZN8crashpad14CrashpadClientC1Ev, symObjAddr: 0x8, symBinAddr: 0x10000DFFC, symSize: 0x8 }
  - { offsetInCU: 0x1176B, offset: 0x84D7A, size: 0x8, addend: 0x0, symName: __ZN8crashpad14CrashpadClientC1Ev, symObjAddr: 0x8, symBinAddr: 0x10000DFFC, symSize: 0x8 }
  - { offsetInCU: 0x11789, offset: 0x84D98, size: 0x8, addend: 0x0, symName: __ZN8crashpad14CrashpadClientC1Ev, symObjAddr: 0x8, symBinAddr: 0x10000DFFC, symSize: 0x8 }
  - { offsetInCU: 0x117A6, offset: 0x84DB5, size: 0x8, addend: 0x0, symName: __ZN8crashpad14CrashpadClientC1Ev, symObjAddr: 0x8, symBinAddr: 0x10000DFFC, symSize: 0x8 }
  - { offsetInCU: 0x117C3, offset: 0x84DD2, size: 0x8, addend: 0x0, symName: __ZN8crashpad14CrashpadClientC1Ev, symObjAddr: 0x8, symBinAddr: 0x10000DFFC, symSize: 0x8 }
  - { offsetInCU: 0x1182D, offset: 0x84E3C, size: 0x8, addend: 0x0, symName: __ZN8crashpad14CrashpadClientD2Ev, symObjAddr: 0x10, symBinAddr: 0x10000E004, symSize: 0x34 }
  - { offsetInCU: 0x1189F, offset: 0x84EAE, size: 0x8, addend: 0x0, symName: __ZN4base13ScopedGenericIjNS_5apple8internal15SendRightTraitsEED1Ev, symObjAddr: 0x44, symBinAddr: 0x10000E038, symSize: 0x34 }
  - { offsetInCU: 0x11915, offset: 0x84F24, size: 0x8, addend: 0x0, symName: __ZN8crashpad14CrashpadClientD1Ev, symObjAddr: 0x78, symBinAddr: 0x10000E06C, symSize: 0x34 }
  - { offsetInCU: 0x127D8, offset: 0x85DE7, size: 0x8, addend: 0x0, symName: __ZN8crashpad14CrashpadClient12StartHandlerERKN4base8FilePathES4_S4_RKNSt3__112basic_stringIcNS5_11char_traitsIcEENS5_9allocatorIcEEEESD_RKNS5_3mapISB_SB_NS5_4lessISB_EENS9_INS5_4pairISC_SB_EEEEEERKNS5_6vectorISB_NS9_ISB_EEEEbbRKNSN_IS2_NS9_IS2_EEEE, symObjAddr: 0xAC, symBinAddr: 0x10000E0A0, symSize: 0x74C }
  - { offsetInCU: 0x13EDD, offset: 0x874EC, size: 0x8, addend: 0x0, symName: __ZN8crashpad12_GLOBAL__N_114HandlerStarterD1Ev, symObjAddr: 0x1840, symBinAddr: 0x10000F828, symSize: 0x110 }
  - { offsetInCU: 0x14724, offset: 0x87D33, size: 0x8, addend: 0x0, symName: __ZN8crashpad12_GLOBAL__N_114HandlerStarter11CommonStartERKN4base8FilePathES5_S5_RKNSt3__112basic_stringIcNS6_11char_traitsIcEENS6_9allocatorIcEEEESE_RKNS6_3mapISC_SC_NS6_4lessISC_EENSA_INS6_4pairISD_SC_EEEEEERKNS6_6vectorISC_NSA_ISC_EEEERKNSO_IS3_NSA_IS3_EEEENS2_13ScopedGenericIjNS2_5apple8internal18ReceiveRightTraitsEEEPS1_b, symObjAddr: 0xB14, symBinAddr: 0x10000EB08, symSize: 0xCB8 }
  - { offsetInCU: 0x195BF, offset: 0x8CBCE, size: 0x8, addend: 0x0, symName: __ZNSt3__16__treeINS_12__value_typeINS_12basic_stringIcNS_11char_traitsIcEENS_9allocatorIcEEEES7_EENS_19__map_value_compareIS7_S8_NS_4lessIS7_EELb1EEENS5_IS8_EEE14__assign_multiINS_21__tree_const_iteratorIS8_PNS_11__tree_nodeIS8_PvEElEEEEvT_SM_, symObjAddr: 0x27FC, symBinAddr: 0x10001020C, symSize: 0x25C }
  - { offsetInCU: 0x199EA, offset: 0x8CFF9, size: 0x8, addend: 0x0, symName: __ZNSt3__16vectorINS_12basic_stringIcNS_11char_traitsIcEENS_9allocatorIcEEEENS4_IS6_EEE18__assign_with_sizeB8ue170006IPS6_SA_EEvT_T0_l, symObjAddr: 0x3050, symBinAddr: 0x1000108AC, symSize: 0x22C }
  - { offsetInCU: 0x1A3AA, offset: 0x8D9B9, size: 0x8, addend: 0x0, symName: __ZNSt3__16vectorINS_12basic_stringIcNS_11char_traitsIcEENS_9allocatorIcEEEENS4_IS6_EEE18__construct_at_endIPS6_SA_EEvT_T0_m, symObjAddr: 0x327C, symBinAddr: 0x100010AD8, symSize: 0x144 }
  - { offsetInCU: 0x1A3CF, offset: 0x8D9DE, size: 0x8, addend: 0x0, symName: __ZNSt3__16vectorIN4base8FilePathENS_9allocatorIS2_EEE18__assign_with_sizeB8ue170006IPS2_S7_EEvT_T0_l, symObjAddr: 0x33C0, symBinAddr: 0x100010C1C, symSize: 0x270 }
  - { offsetInCU: 0x1AFD8, offset: 0x8E5E7, size: 0x8, addend: 0x0, symName: __ZN8crashpad12_GLOBAL__N_124ScopedPthreadAttrDestroyD1Ev, symObjAddr: 0x2760, symBinAddr: 0x100010170, symSize: 0x9C }
  - { offsetInCU: 0x1B09E, offset: 0x8E6AD, size: 0x8, addend: 0x0, symName: __ZN8crashpad14CrashpadClient12StartHandlerERKN4base8FilePathES4_S4_RKNSt3__112basic_stringIcNS5_11char_traitsIcEENS5_9allocatorIcEEEESD_RKNS5_3mapISB_SB_NS5_4lessISB_EENS9_INS5_4pairISC_SB_EEEEEERKNS5_6vectorISB_NS9_ISB_EEEEbbRKNSN_IS2_NS9_IS2_EEEE.cold.1, symObjAddr: 0x3644, symBinAddr: 0x100065E9C, symSize: 0x5C }
  - { offsetInCU: 0x1B285, offset: 0x8E894, size: 0x8, addend: 0x0, symName: __ZNSt3__16__treeINS_12__value_typeINS_12basic_stringIcNS_11char_traitsIcEENS_9allocatorIcEEEES7_EENS_19__map_value_compareIS7_S8_NS_4lessIS7_EELb1EEENS5_IS8_EEE7destroyEPNS_11__tree_nodeIS8_PvEE, symObjAddr: 0x19C4, symBinAddr: 0x10000F938, symSize: 0x78 }
  - { offsetInCU: 0x1B66E, offset: 0x8EC7D, size: 0x8, addend: 0x0, symName: __ZN4base13ScopedGenericIjNS_5apple8internal18ReceiveRightTraitsEED1Ev, symObjAddr: 0x17CC, symBinAddr: 0x10000F7C0, symSize: 0x34 }
  - { offsetInCU: 0x1B6C7, offset: 0x8ECD6, size: 0x8, addend: 0x0, symName: __ZNSt3__110unique_ptrIN8crashpad12_GLOBAL__N_114HandlerStarterENS_14default_deleteIS3_EEED1B8ue170006Ev, symObjAddr: 0x1800, symBinAddr: 0x10000F7F4, symSize: 0x34 }
  - { offsetInCU: 0x1B766, offset: 0x8ED75, size: 0x8, addend: 0x0, symName: __ZN8crashpad14CrashpadClient18SetHandlerMachPortEN4base13ScopedGenericIjNS1_5apple8internal15SendRightTraitsEEE, symObjAddr: 0x7F8, symBinAddr: 0x10000E7EC, symSize: 0x98 }
  - { offsetInCU: 0x1B835, offset: 0x8EE44, size: 0x8, addend: 0x0, symName: __ZN8crashpad14CrashpadClient21SetHandlerMachServiceERKNSt3__112basic_stringIcNS1_11char_traitsIcEENS1_9allocatorIcEEEE, symObjAddr: 0x890, symBinAddr: 0x10000E884, symSize: 0xE4 }
  - { offsetInCU: 0x1BB00, offset: 0x8F10F, size: 0x8, addend: 0x0, symName: __ZNK8crashpad14CrashpadClient18GetHandlerMachPortEv, symObjAddr: 0x974, symBinAddr: 0x10000E968, symSize: 0xCC }
  - { offsetInCU: 0x1BC7A, offset: 0x8F289, size: 0x8, addend: 0x0, symName: __ZN8crashpad14CrashpadClient23UseSystemDefaultHandlerEv, symObjAddr: 0xA40, symBinAddr: 0x10000EA34, symSize: 0xD4 }
  - { offsetInCU: 0x1C576, offset: 0x8FB85, size: 0x8, addend: 0x0, symName: __ZNSt3__16vectorINS_12basic_stringIcNS_11char_traitsIcEENS_9allocatorIcEEEENS4_IS6_EEEC2EmRKS6_, symObjAddr: 0x2054, symBinAddr: 0x10000FBE4, symSize: 0x19C }
  - { offsetInCU: 0x1CBCF, offset: 0x901DE, size: 0x8, addend: 0x0, symName: __ZNSt3__16vectorINS_12basic_stringIcNS_11char_traitsIcEENS_9allocatorIcEEEENS4_IS6_EEE7reserveEm, symObjAddr: 0x1B38, symBinAddr: 0x10000FAAC, symSize: 0x138 }
  - { offsetInCU: 0x1D1DF, offset: 0x907EE, size: 0x8, addend: 0x0, symName: __ZNSt3__16vectorINS_12basic_stringIcNS_11char_traitsIcEENS_9allocatorIcEEEENS4_IS6_EEE21__push_back_slow_pathIRKS6_EEvOT_, symObjAddr: 0x2300, symBinAddr: 0x10000FE7C, symSize: 0x228 }
  - { offsetInCU: 0x1E13E, offset: 0x9174D, size: 0x8, addend: 0x0, symName: __ZN8crashpad12_GLOBAL__N_114HandlerStarter17RestartThreadMainEPv, symObjAddr: 0x2694, symBinAddr: 0x1000100A4, symSize: 0xCC }
  - { offsetInCU: 0x1E4EA, offset: 0x91AF9, size: 0x8, addend: 0x0, symName: __ZN8crashpad12_GLOBAL__N_114HandlerStarter25DoMachNotifyPortDestroyedEjjPK18mach_msg_trailer_tPb, symObjAddr: 0x1A3C, symBinAddr: 0x10000F9B0, symSize: 0xFC }
  - { offsetInCU: 0x1E887, offset: 0x91E96, size: 0x8, addend: 0x0, symName: __ZNSt3__114__split_bufferINS_12basic_stringIcNS_11char_traitsIcEENS_9allocatorIcEEEERNS4_IS6_EEED1Ev, symObjAddr: 0x229C, symBinAddr: 0x10000FE18, symSize: 0x64 }
  - { offsetInCU: 0x1ECC1, offset: 0x922D0, size: 0x8, addend: 0x0, symName: __ZNSt3__128__exception_guard_exceptionsINS_6vectorINS_12basic_stringIcNS_11char_traitsIcEENS_9allocatorIcEEEENS5_IS7_EEE16__destroy_vectorEED1B8ue170006Ev, symObjAddr: 0x21F0, symBinAddr: 0x10000FD80, symSize: 0x98 }
  - { offsetInCU: 0x1EFD7, offset: 0x925E6, size: 0x8, addend: 0x0, symName: __ZNSt3__114__split_bufferINS_12basic_stringIcNS_11char_traitsIcEENS_9allocatorIcEEEERNS4_IS6_EEED1Ev, symObjAddr: 0x229C, symBinAddr: 0x10000FE18, symSize: 0x64 }
  - { offsetInCU: 0x1F388, offset: 0x92997, size: 0x8, addend: 0x0, symName: __ZN8crashpad12_GLOBAL__N_114HandlerStarter17RestartThreadMainEPv, symObjAddr: 0x2694, symBinAddr: 0x1000100A4, symSize: 0xCC }
  - { offsetInCU: 0x1F658, offset: 0x92C67, size: 0x8, addend: 0x0, symName: __ZNSt3__16__treeINS_12__value_typeINS_12basic_stringIcNS_11char_traitsIcEENS_9allocatorIcEEEES7_EENS_19__map_value_compareIS7_S8_NS_4lessIS7_EELb1EEENS5_IS8_EEE19__node_insert_multiEPNS_11__tree_nodeIS8_PvEE, symObjAddr: 0x2A58, symBinAddr: 0x100010468, symSize: 0x100 }
  - { offsetInCU: 0x1F8E9, offset: 0x92EF8, size: 0x8, addend: 0x0, symName: __ZNSt3__16__treeINS_12__value_typeINS_12basic_stringIcNS_11char_traitsIcEENS_9allocatorIcEEEES7_EENS_19__map_value_compareIS7_S8_NS_4lessIS7_EELb1EEENS5_IS8_EEE15__emplace_multiIJRKNS_4pairIKS7_S7_EEEEENS_15__tree_iteratorIS8_PNS_11__tree_nodeIS8_PvEElEEDpOT_, symObjAddr: 0x2D60, symBinAddr: 0x1000105BC, symSize: 0x130 }
  - { offsetInCU: 0x1FE0F, offset: 0x9341E, size: 0x8, addend: 0x0, symName: __ZNSt3__16__treeINS_12__value_typeINS_12basic_stringIcNS_11char_traitsIcEENS_9allocatorIcEEEES7_EENS_19__map_value_compareIS7_S8_NS_4lessIS7_EELb1EEENS5_IS8_EEE18_DetachedTreeCacheD1B8ue170006Ev, symObjAddr: 0x2B58, symBinAddr: 0x100010568, symSize: 0x54 }
  - { offsetInCU: 0x202A0, offset: 0x938AF, size: 0x8, addend: 0x0, symName: __ZNSt3__14pairIKNS_12basic_stringIcNS_11char_traitsIcEENS_9allocatorIcEEEES6_EC2B8ue170006ERKS8_, symObjAddr: 0x2EF8, symBinAddr: 0x100010754, symSize: 0x158 }
  - { offsetInCU: 0x20B80, offset: 0x9418F, size: 0x8, addend: 0x0, symName: __ZNSt3__110unique_ptrINS_11__tree_nodeINS_12__value_typeINS_12basic_stringIcNS_11char_traitsIcEENS_9allocatorIcEEEES8_EEPvEENS_22__tree_node_destructorINS6_ISB_EEEEED1B8ue170006Ev, symObjAddr: 0x2E90, symBinAddr: 0x1000106EC, symSize: 0x68 }
  - { offsetInCU: 0x21109, offset: 0x94718, size: 0x8, addend: 0x0, symName: __ZNSt3__16vectorINS_12basic_stringIcNS_11char_traitsIcEENS_9allocatorIcEEEENS4_IS6_EEE18__construct_at_endIPS6_SA_EEvT_T0_m, symObjAddr: 0x327C, symBinAddr: 0x100010AD8, symSize: 0x144 }
  - { offsetInCU: 0x21DB2, offset: 0x953C1, size: 0x8, addend: 0x0, symName: __ZNKSt3__16vectorIN4base8FilePathENS_9allocatorIS2_EEE20__throw_length_errorB8ue170006Ev, symObjAddr: 0x3630, symBinAddr: 0x100010E8C, symSize: 0x14 }
  - { offsetInCU: 0x21DDC, offset: 0x953EB, size: 0x8, addend: 0x0, symName: __ZN8crashpad14CrashpadClient12StartHandlerERKN4base8FilePathES4_S4_RKNSt3__112basic_stringIcNS5_11char_traitsIcEENS5_9allocatorIcEEEESD_RKNS5_3mapISB_SB_NS5_4lessISB_EENS9_INS5_4pairISC_SB_EEEEEERKNS5_6vectorISB_NS9_ISB_EEEEbbRKNSN_IS2_NS9_IS2_EEEE.cold.1, symObjAddr: 0x3644, symBinAddr: 0x100065E9C, symSize: 0x5C }
  - { offsetInCU: 0x1D2EA, offset: 0xB26E9, size: 0x8, addend: 0x0, symName: __ZN8crashpad23CrashReportUploadThread12UploadReportEPKNS_19CrashReportDatabase12UploadReportEPNSt3__112basic_stringIcNS5_11char_traitsIcEENS5_9allocatorIcEEEE, symObjAddr: 0xBB0, symBinAddr: 0x100011980, symSize: 0xB7C }
  - { offsetInCU: 0x1D312, offset: 0xB2711, size: 0x8, addend: 0x0, symName: __ZZN8crashpad23CrashReportUploadThread12UploadReportEPKNS_19CrashReportDatabase12UploadReportEPNSt3__112basic_stringIcNS5_11char_traitsIcEENS5_9allocatorIcEEEEE12kMinidumpKey, symObjAddr: 0x25B0, symBinAddr: 0x10007B740, symSize: 0x0 }
  - { offsetInCU: 0x1D329, offset: 0xB2728, size: 0x8, addend: 0x0, symName: __ZZN8crashpad23CrashReportUploadThread12UploadReportEPKNS_19CrashReportDatabase12UploadReportEPNSt3__112basic_stringIcNS5_11char_traitsIcEENS5_9allocatorIcEEEEE21kURLParameterMappings, symObjAddr: 0x2528, symBinAddr: 0x100080CF0, symSize: 0x0 }
  - { offsetInCU: 0x23A04, offset: 0xB8E03, size: 0x8, addend: 0x0, symName: __ZN8crashpad23CrashReportUploadThreadC2EPNS_19CrashReportDatabaseENSt3__112basic_stringIcNS3_11char_traitsIcEENS3_9allocatorIcEEEES9_RKNS0_7OptionsENS3_8functionIFvvEEE, symObjAddr: 0x0, symBinAddr: 0x100010EA0, symSize: 0x1B0 }
  - { offsetInCU: 0x24043, offset: 0xB9442, size: 0x8, addend: 0x0, symName: __ZN8crashpad23CrashReportUploadThreadC1EPNS_19CrashReportDatabaseENSt3__112basic_stringIcNS3_11char_traitsIcEENS3_9allocatorIcEEEES9_RKNS0_7OptionsENS3_8functionIFvvEEE, symObjAddr: 0x1B0, symBinAddr: 0x100011050, symSize: 0x4 }
  - { offsetInCU: 0x240B5, offset: 0xB94B4, size: 0x8, addend: 0x0, symName: __ZN8crashpad23CrashReportUploadThreadC1EPNS_19CrashReportDatabaseENSt3__112basic_stringIcNS3_11char_traitsIcEENS3_9allocatorIcEEEES9_RKNS0_7OptionsENS3_8functionIFvvEEE, symObjAddr: 0x1B0, symBinAddr: 0x100011050, symSize: 0x4 }
  - { offsetInCU: 0x24152, offset: 0xB9551, size: 0x8, addend: 0x0, symName: __ZN8crashpad23CrashReportUploadThreadD2Ev, symObjAddr: 0x1B4, symBinAddr: 0x100011054, symSize: 0xB4 }
  - { offsetInCU: 0x2460D, offset: 0xB9A0C, size: 0x8, addend: 0x0, symName: __ZN8crashpad23CrashReportUploadThreadD1Ev, symObjAddr: 0x268, symBinAddr: 0x100011108, symSize: 0x4 }
  - { offsetInCU: 0x24631, offset: 0xB9A30, size: 0x8, addend: 0x0, symName: __ZN8crashpad23CrashReportUploadThreadD1Ev, symObjAddr: 0x268, symBinAddr: 0x100011108, symSize: 0x4 }
  - { offsetInCU: 0x24664, offset: 0xB9A63, size: 0x8, addend: 0x0, symName: __ZThn8_N8crashpad23CrashReportUploadThreadD1Ev, symObjAddr: 0x26C, symBinAddr: 0x10001110C, symSize: 0x8 }
  - { offsetInCU: 0x246A6, offset: 0xB9AA5, size: 0x8, addend: 0x0, symName: __ZN8crashpad23CrashReportUploadThreadD0Ev, symObjAddr: 0x274, symBinAddr: 0x100011114, symSize: 0x14 }
  - { offsetInCU: 0x24717, offset: 0xB9B16, size: 0x8, addend: 0x0, symName: __ZThn8_N8crashpad23CrashReportUploadThreadD0Ev, symObjAddr: 0x288, symBinAddr: 0x100011128, symSize: 0x18 }
  - { offsetInCU: 0x2478D, offset: 0xB9B8C, size: 0x8, addend: 0x0, symName: __ZN8crashpad23CrashReportUploadThread13ReportPendingERKNS_4UUIDE, symObjAddr: 0x2A0, symBinAddr: 0x100011140, symSize: 0x3C }
  - { offsetInCU: 0x247FD, offset: 0xB9BFC, size: 0x8, addend: 0x0, symName: __ZN8crashpad16ThreadSafeVectorINS_4UUIDEE8PushBackERKS1_, symObjAddr: 0x2DC, symBinAddr: 0x10001117C, symSize: 0x13C }
  - { offsetInCU: 0x2525D, offset: 0xBA65C, size: 0x8, addend: 0x0, symName: __ZNKSt3__16vectorIN8crashpad4UUIDENS_9allocatorIS2_EEE20__throw_length_errorB8ue170006Ev, symObjAddr: 0x21E0, symBinAddr: 0x1000129E8, symSize: 0x14 }
  - { offsetInCU: 0x25292, offset: 0xBA691, size: 0x8, addend: 0x0, symName: __ZN8crashpad23CrashReportUploadThread5StartEv, symObjAddr: 0x418, symBinAddr: 0x1000112B8, symSize: 0x24 }
  - { offsetInCU: 0x252CD, offset: 0xBA6CC, size: 0x8, addend: 0x0, symName: __ZThn8_N8crashpad23CrashReportUploadThread5StartEv, symObjAddr: 0x43C, symBinAddr: 0x1000112DC, symSize: 0x24 }
  - { offsetInCU: 0x252E7, offset: 0xBA6E6, size: 0x8, addend: 0x0, symName: __ZThn8_N8crashpad23CrashReportUploadThread5StartEv, symObjAddr: 0x43C, symBinAddr: 0x1000112DC, symSize: 0x24 }
  - { offsetInCU: 0x25303, offset: 0xBA702, size: 0x8, addend: 0x0, symName: __ZN8crashpad23CrashReportUploadThread4StopEv, symObjAddr: 0x460, symBinAddr: 0x100011300, symSize: 0x8 }
  - { offsetInCU: 0x2533E, offset: 0xBA73D, size: 0x8, addend: 0x0, symName: __ZThn8_N8crashpad23CrashReportUploadThread4StopEv, symObjAddr: 0x468, symBinAddr: 0x100011308, symSize: 0x8 }
  - { offsetInCU: 0x25358, offset: 0xBA757, size: 0x8, addend: 0x0, symName: __ZThn8_N8crashpad23CrashReportUploadThread4StopEv, symObjAddr: 0x468, symBinAddr: 0x100011308, symSize: 0x8 }
  - { offsetInCU: 0x25640, offset: 0xBAA3F, size: 0x8, addend: 0x0, symName: __ZN8crashpad23CrashReportUploadThread21ProcessPendingReportsEv, symObjAddr: 0x470, symBinAddr: 0x100011310, symSize: 0x280 }
  - { offsetInCU: 0x261DD, offset: 0xBB5DC, size: 0x8, addend: 0x0, symName: __ZN8crashpad23CrashReportUploadThread20ProcessPendingReportERKNS_19CrashReportDatabase6ReportE, symObjAddr: 0x6F0, symBinAddr: 0x100011590, symSize: 0x304 }
  - { offsetInCU: 0x27135, offset: 0xBC534, size: 0x8, addend: 0x0, symName: __ZN8crashpad23CrashReportUploadThread21ShouldRateLimitUploadERKNS_19CrashReportDatabase6ReportE, symObjAddr: 0xAC4, symBinAddr: 0x100011894, symSize: 0xEC }
  - { offsetInCU: 0x288FC, offset: 0xBDCFB, size: 0x8, addend: 0x0, symName: __ZNSt3__16__treeINS_12__value_typeINS_12basic_stringIcNS_11char_traitsIcEENS_9allocatorIcEEEEPN8crashpad10FileReaderEEENS_19__map_value_compareIS7_SB_NS_4lessIS7_EELb1EEENS5_ISB_EEE30__emplace_hint_unique_key_argsIS7_JRKNS_4pairIKS7_SA_EEEEENSJ_INS_15__tree_iteratorISB_PNS_11__tree_nodeISB_PvEElEEbEENS_21__tree_const_iteratorISB_SS_lEERKT_DpOT0_, symObjAddr: 0x173C, symBinAddr: 0x100012500, symSize: 0x140 }
  - { offsetInCU: 0x29290, offset: 0xBE68F, size: 0x8, addend: 0x0, symName: __ZN8crashpad23CrashReportUploadThread6DoWorkEPKNS_12WorkerThreadE, symObjAddr: 0x172C, symBinAddr: 0x1000124FC, symSize: 0x4 }
  - { offsetInCU: 0x292C8, offset: 0xBE6C7, size: 0x8, addend: 0x0, symName: __ZN8crashpad23CrashReportUploadThread6DoWorkEPKNS_12WorkerThreadE, symObjAddr: 0x172C, symBinAddr: 0x1000124FC, symSize: 0x4 }
  - { offsetInCU: 0x2951C, offset: 0xBE91B, size: 0x8, addend: 0x0, symName: __ZNSt3__16__treeINS_12__value_typeINS_12basic_stringIcNS_11char_traitsIcEENS_9allocatorIcEEEEPN8crashpad10FileReaderEEENS_19__map_value_compareIS7_SB_NS_4lessIS7_EELb1EEENS5_ISB_EEE12__find_equalIS7_EERPNS_16__tree_node_baseIPvEENS_21__tree_const_iteratorISB_PNS_11__tree_nodeISB_SK_EElEERPNS_15__tree_end_nodeISM_EESN_RKT_, symObjAddr: 0x187C, symBinAddr: 0x100012640, symSize: 0x3A8 }
  - { offsetInCU: 0x4B, offset: 0xC0D5A, size: 0x8, addend: 0x0, symName: __ZN8crashpad11HandlerMainEiPPcPKNSt3__16vectorINS2_10unique_ptrINS_20UserStreamDataSourceENS2_14default_deleteIS5_EEEENS2_9allocatorIS8_EEEE, symObjAddr: 0x0, symBinAddr: 0x1000129FC, symSize: 0xF80 }
  - { offsetInCU: 0x77, offset: 0xC0D86, size: 0x8, addend: 0x0, symName: __ZZN8crashpad11HandlerMainEiPPcPKNSt3__16vectorINS2_10unique_ptrINS_20UserStreamDataSourceENS2_14default_deleteIS5_EEEENS2_9allocatorIS8_EEEEE12long_options, symObjAddr: 0x3920, symBinAddr: 0x100080D78, symSize: 0x0 }
  - { offsetInCU: 0x409D, offset: 0xC4DAC, size: 0x8, addend: 0x0, symName: __MergedGlobals, symObjAddr: 0xACD30, symBinAddr: 0x1000883A8, symSize: 0x0 }
  - { offsetInCU: 0x4245, offset: 0xC4F54, size: 0x8, addend: 0x0, symName: __ZN8crashpad12_GLOBAL__N_116AddKeyValueToMapEPNSt3__13mapINS1_12basic_stringIcNS1_11char_traitsIcEENS1_9allocatorIcEEEES8_NS1_4lessIS8_EENS6_INS1_4pairIKS8_S8_EEEEEERSC_PKc, symObjAddr: 0xF80, symBinAddr: 0x10001397C, symSize: 0x268 }
  - { offsetInCU: 0x4F2F, offset: 0xC5C3E, size: 0x8, addend: 0x0, symName: __ZN8crashpad12_GLOBAL__N_111MonitorSelfERKNS0_7OptionsE, symObjAddr: 0x11E8, symBinAddr: 0x100013BE4, symSize: 0x548 }
  - { offsetInCU: 0x7175, offset: 0xC7E84, size: 0x8, addend: 0x0, symName: __ZN8crashpad12_GLOBAL__N_113HandleSIGTERMEiP9__siginfoPv, symObjAddr: 0x1F10, symBinAddr: 0x10001489C, symSize: 0xC }
  - { offsetInCU: 0x71B8, offset: 0xC7EC7, size: 0x8, addend: 0x0, symName: __ZN8crashpad12_GLOBAL__N_117HandleCrashSignalEiP9__siginfoPv, symObjAddr: 0x2124, symBinAddr: 0x100014AB0, symSize: 0x184 }
  - { offsetInCU: 0x7427, offset: 0xC8136, size: 0x8, addend: 0x0, symName: __ZN8crashpad12_GLOBAL__N_121HandleTerminateSignalEiP9__siginfoPv, symObjAddr: 0x22A8, symBinAddr: 0x100014C34, symSize: 0x40 }
  - { offsetInCU: 0x8559, offset: 0xC9268, size: 0x8, addend: 0x0, symName: __ZN8crashpad18MapInsertOrReplaceINSt3__13mapINS1_12basic_stringIcNS1_11char_traitsIcEENS1_9allocatorIcEEEES8_NS1_4lessIS8_EENS6_INS1_4pairIKS8_S8_EEEEEEEEbPT_RKNSG_8key_typeERKNSG_11mapped_typeEPSL_, symObjAddr: 0x269C, symBinAddr: 0x100014C74, symSize: 0xC8 }
  - { offsetInCU: 0x15EA7, offset: 0xD6BB6, size: 0x8, addend: 0x0, symName: __ZNSt3__111make_uniqueB8ue170006IN8crashpad27CrashReportExceptionHandlerEJPNS1_19CrashReportDatabaseEPNS1_23CrashReportUploadThreadEPNS_3mapINS_12basic_stringIcNS_11char_traitsIcEENS_9allocatorIcEEEESD_NS_4lessISD_EENSB_INS_4pairIKSD_SD_EEEEEEPNS_6vectorIN4base8FilePathENSB_ISO_EEEERPKNSM_INS_10unique_ptrINS1_20UserStreamDataSourceENS_14default_deleteIST_EEEENSB_ISW_EEEEEEENS_11__unique_ifIT_E15__unique_singleEDpOT0_, symObjAddr: 0x1D5C, symBinAddr: 0x100014758, symSize: 0x84 }
  - { offsetInCU: 0x1C3B8, offset: 0xDD0C7, size: 0x8, addend: 0x0, symName: __ZNSt3__112basic_stringIcNS_11char_traitsIcEENS_9allocatorIcEEE17__assign_externalEPKcm, symObjAddr: 0x2E44, symBinAddr: 0x100015254, symSize: 0x150 }
  - { offsetInCU: 0x1CE95, offset: 0xDDBA4, size: 0x8, addend: 0x0, symName: __ZNSt3__16vectorIN4base8FilePathENS_9allocatorIS2_EEE21__push_back_slow_pathIS2_EEvOT_, symObjAddr: 0x2C38, symBinAddr: 0x10001505C, symSize: 0x1A8 }
  - { offsetInCU: 0x1D548, offset: 0xDE257, size: 0x8, addend: 0x0, symName: __ZN8crashpad12_GLOBAL__N_17OptionsD1Ev, symObjAddr: 0x1FC4, symBinAddr: 0x100014950, symSize: 0x130 }
  - { offsetInCU: 0x1DEF4, offset: 0xDEC03, size: 0x8, addend: 0x0, symName: __ZN8crashpad23TSimpleStringDictionaryILm256ELm256ELm64EE11SetKeyValueEN4base16BasicStringPieceINSt3__112basic_stringIcNS4_11char_traitsIcEENS4_9allocatorIcEEEEEESB_, symObjAddr: 0x1730, symBinAddr: 0x10001412C, symSize: 0x62C }
  - { offsetInCU: 0x1E47E, offset: 0xDF18D, size: 0x8, addend: 0x0, symName: __ZNSt3__110unique_ptrIN8crashpad27CrashReportExceptionHandlerENS_14default_deleteIS2_EEED1B8ue170006Ev, symObjAddr: 0x1DE0, symBinAddr: 0x1000147DC, symSize: 0x34 }
  - { offsetInCU: 0x1E51F, offset: 0xDF22E, size: 0x8, addend: 0x0, symName: __ZN4base13ScopedGenericIjNS_5apple8internal18ReceiveRightTraitsEE5resetERKj, symObjAddr: 0x1E14, symBinAddr: 0x100014810, symSize: 0x48 }
  - { offsetInCU: 0x1E5A3, offset: 0xDF2B2, size: 0x8, addend: 0x0, symName: __ZN4base13ScopedGenericIjNS_5apple8internal18ReceiveRightTraitsEEaSEOS4_, symObjAddr: 0x1E98, symBinAddr: 0x100014858, symSize: 0x44 }
  - { offsetInCU: 0x1E671, offset: 0xDF380, size: 0x8, addend: 0x0, symName: __ZN4base13ScopedGenericIP9sigactionN8crashpad12_GLOBAL__N_118ResetSIGTERMTraitsEE5resetERKS2_, symObjAddr: 0x1F1C, symBinAddr: 0x1000148A8, symSize: 0x44 }
  - { offsetInCU: 0x1E6B6, offset: 0xDF3C5, size: 0x8, addend: 0x0, symName: __ZN4base13ScopedGenericIP9sigactionN8crashpad12_GLOBAL__N_118ResetSIGTERMTraitsEE15FreeIfNecessaryEv, symObjAddr: 0x3450, symBinAddr: 0x1000154B0, symSize: 0xA4 }
  - { offsetInCU: 0x1E790, offset: 0xDF49F, size: 0x8, addend: 0x0, symName: __ZN8crashpad12_GLOBAL__N_115ScopedStoppableD1Ev, symObjAddr: 0x1F60, symBinAddr: 0x1000148EC, symSize: 0x64 }
  - { offsetInCU: 0x1EB22, offset: 0xDF831, size: 0x8, addend: 0x0, symName: __ZN8crashpad12_GLOBAL__N_127CallMetricsRecordNormalExitD1Ev, symObjAddr: 0x20F4, symBinAddr: 0x100014A80, symSize: 0x30 }
  - { offsetInCU: 0x1F085, offset: 0xDFD94, size: 0x8, addend: 0x0, symName: __ZNSt3__16vectorINS_12basic_stringIcNS_11char_traitsIcEENS_9allocatorIcEEEENS4_IS6_EEEC2ERKS8_, symObjAddr: 0x31E0, symBinAddr: 0x1000153FC, symSize: 0xB4 }
  - { offsetInCU: 0x1F28C, offset: 0xDFF9B, size: 0x8, addend: 0x0, symName: __ZNSt3__16vectorIN4base8FilePathENS_9allocatorIS2_EEED1B8ue170006Ev, symObjAddr: 0x3114, symBinAddr: 0x1000153A4, symSize: 0x58 }
  - { offsetInCU: 0x1FEA9, offset: 0xE0BB8, size: 0x8, addend: 0x0, symName: __ZNSt3__14pairINS_12basic_stringIcNS_11char_traitsIcEENS_9allocatorIcEEEES6_EC2B8ue170006ILb1ELPv0EEERKS6_SB_, symObjAddr: 0x2AE4, symBinAddr: 0x100014F08, symSize: 0x154 }
  - { offsetInCU: 0x207C1, offset: 0xE14D0, size: 0x8, addend: 0x0, symName: __ZNSt3__16__treeINS_12__value_typeINS_12basic_stringIcNS_11char_traitsIcEENS_9allocatorIcEEEES7_EENS_19__map_value_compareIS7_S8_NS_4lessIS7_EELb1EEENS5_IS8_EEE25__emplace_unique_key_argsIS7_JNS_4pairIS7_S7_EEEEENSG_INS_15__tree_iteratorIS8_PNS_11__tree_nodeIS8_PvEElEEbEERKT_DpOT0_, symObjAddr: 0x27BC, symBinAddr: 0x100014D94, symSize: 0x174 }
  - { offsetInCU: 0x20DB3, offset: 0xE1AC2, size: 0x8, addend: 0x0, symName: __ZNSt3__14pairINS_12basic_stringIcNS_11char_traitsIcEENS_9allocatorIcEEEES6_ED1Ev, symObjAddr: 0x2764, symBinAddr: 0x100014D3C, symSize: 0x58 }
  - { offsetInCU: 0x21701, offset: 0xE2410, size: 0x8, addend: 0x0, symName: __ZNSt3__112basic_stringIcNS_11char_traitsIcEENS_9allocatorIcEEE17__assign_externalEPKcm, symObjAddr: 0x2E44, symBinAddr: 0x100015254, symSize: 0x150 }
  - { offsetInCU: 0x2170D, offset: 0xE241C, size: 0x8, addend: 0x0, symName: __ZNSt3__114__split_bufferIN4base8FilePathERNS_9allocatorIS2_EEED1Ev, symObjAddr: 0x2DE0, symBinAddr: 0x100015204, symSize: 0x50 }
  - { offsetInCU: 0x21C84, offset: 0xE2993, size: 0x8, addend: 0x0, symName: __ZNSt3__16vectorIN4base8FilePathENS_9allocatorIS2_EEED1B8ue170006Ev, symObjAddr: 0x3114, symBinAddr: 0x1000153A4, symSize: 0x58 }
  - { offsetInCU: 0x22249, offset: 0xE2F58, size: 0x8, addend: 0x0, symName: __ZNSt3__16vectorINS_12basic_stringIcNS_11char_traitsIcEENS_9allocatorIcEEEENS4_IS6_EEEC2ERKS8_.cold.1, symObjAddr: 0x34F4, symBinAddr: 0x100065EF8, symSize: 0x64 }
  - { offsetInCU: 0x477, offset: 0xE3934, size: 0x8, addend: 0x0, symName: __ZN8crashpad38BreakpadHTTPFormParametersFromMinidumpEPKNS_15ProcessSnapshotE, symObjAddr: 0x0, symBinAddr: 0x100015554, symSize: 0x101C }
  - { offsetInCU: 0x5C40, offset: 0xE90FD, size: 0x8, addend: 0x0, symName: __ZN8crashpad12_GLOBAL__N_123InsertOrReplaceMapEntryEPNSt3__13mapINS1_12basic_stringIcNS1_11char_traitsIcEENS1_9allocatorIcEEEES8_NS1_4lessIS8_EENS6_INS1_4pairIKS8_S8_EEEEEERSC_SH_, symObjAddr: 0x1140, symBinAddr: 0x1000165C8, symSize: 0x120 }
  - { offsetInCU: 0x15042, offset: 0xF84FF, size: 0x8, addend: 0x0, symName: __ZNSt3__16__treeINS_12__value_typeINS_12basic_stringIcNS_11char_traitsIcEENS_9allocatorIcEEEES7_EENS_19__map_value_compareIS7_S8_NS_4lessIS7_EELb1EEENS5_IS8_EEE30__emplace_hint_unique_key_argsIS7_JRKNS_4pairIKS7_S7_EEEEENSG_INS_15__tree_iteratorIS8_PNS_11__tree_nodeIS8_PvEElEEbEENS_21__tree_const_iteratorIS8_SP_lEERKT_DpOT0_, symObjAddr: 0x1B30, symBinAddr: 0x1000166E8, symSize: 0xD8 }
  - { offsetInCU: 0x15BB3, offset: 0xF9070, size: 0x8, addend: 0x0, symName: __ZNSt3__14pairIKNS_12basic_stringIcNS_11char_traitsIcEENS_9allocatorIcEEEES6_EC2B8ue170006IS6_S6_LPv0EEERKNS0_IT_T0_EE, symObjAddr: 0x2180, symBinAddr: 0x100016B68, symSize: 0x158 }
  - { offsetInCU: 0x1664A, offset: 0xF9B07, size: 0x8, addend: 0x0, symName: __ZNSt3__16vectorIN8crashpad18AnnotationSnapshotENS_9allocatorIS2_EEED1B8ue170006Ev, symObjAddr: 0x10E8, symBinAddr: 0x100016570, symSize: 0x58 }
  - { offsetInCU: 0x178EE, offset: 0xFADAB, size: 0x8, addend: 0x0, symName: __ZNSt3__16__treeINS_12__value_typeINS_12basic_stringIcNS_11char_traitsIcEENS_9allocatorIcEEEES7_EENS_19__map_value_compareIS7_S8_NS_4lessIS7_EELb1EEENS5_IS8_EEE12__find_equalIS7_EERPNS_16__tree_node_baseIPvEENS_21__tree_const_iteratorIS8_PNS_11__tree_nodeIS8_SH_EElEERPNS_15__tree_end_nodeISJ_EESK_RKT_, symObjAddr: 0x1C08, symBinAddr: 0x1000167C0, symSize: 0x3A8 }
  - { offsetInCU: 0x26, offset: 0xFBBED, size: 0x8, addend: 0x0, symName: __ZN8crashpad22PruneCrashReportThreadC2EPNS_19CrashReportDatabaseENSt3__110unique_ptrINS_14PruneConditionENS3_14default_deleteIS5_EEEE, symObjAddr: 0x0, symBinAddr: 0x100016CC0, symSize: 0x60 }
  - { offsetInCU: 0x7C95, offset: 0x10385C, size: 0x8, addend: 0x0, symName: __ZN8crashpad22PruneCrashReportThreadC2EPNS_19CrashReportDatabaseENSt3__110unique_ptrINS_14PruneConditionENS3_14default_deleteIS5_EEEE, symObjAddr: 0x0, symBinAddr: 0x100016CC0, symSize: 0x60 }
  - { offsetInCU: 0x7DDC, offset: 0x1039A3, size: 0x8, addend: 0x0, symName: __ZN8crashpad22PruneCrashReportThreadC1EPNS_19CrashReportDatabaseENSt3__110unique_ptrINS_14PruneConditionENS3_14default_deleteIS5_EEEE, symObjAddr: 0x60, symBinAddr: 0x100016D20, symSize: 0x60 }
  - { offsetInCU: 0x7FB9, offset: 0x103B80, size: 0x8, addend: 0x0, symName: __ZN8crashpad22PruneCrashReportThreadD2Ev, symObjAddr: 0xC0, symBinAddr: 0x100016D80, symSize: 0x50 }
  - { offsetInCU: 0x809C, offset: 0x103C63, size: 0x8, addend: 0x0, symName: __ZN8crashpad22PruneCrashReportThreadD1Ev, symObjAddr: 0x110, symBinAddr: 0x100016DD0, symSize: 0x50 }
  - { offsetInCU: 0x819E, offset: 0x103D65, size: 0x8, addend: 0x0, symName: __ZThn8_N8crashpad22PruneCrashReportThreadD1Ev, symObjAddr: 0x160, symBinAddr: 0x100016E20, symSize: 0x4C }
  - { offsetInCU: 0x8297, offset: 0x103E5E, size: 0x8, addend: 0x0, symName: __ZN8crashpad22PruneCrashReportThreadD0Ev, symObjAddr: 0x1AC, symBinAddr: 0x100016E6C, symSize: 0x50 }
  - { offsetInCU: 0x83B7, offset: 0x103F7E, size: 0x8, addend: 0x0, symName: __ZThn8_N8crashpad22PruneCrashReportThreadD0Ev, symObjAddr: 0x1FC, symBinAddr: 0x100016EBC, symSize: 0x58 }
  - { offsetInCU: 0x84D1, offset: 0x104098, size: 0x8, addend: 0x0, symName: __ZN8crashpad22PruneCrashReportThread5StartEv, symObjAddr: 0x254, symBinAddr: 0x100016F14, symSize: 0x14 }
  - { offsetInCU: 0x850C, offset: 0x1040D3, size: 0x8, addend: 0x0, symName: __ZThn8_N8crashpad22PruneCrashReportThread5StartEv, symObjAddr: 0x268, symBinAddr: 0x100016F28, symSize: 0x14 }
  - { offsetInCU: 0x8526, offset: 0x1040ED, size: 0x8, addend: 0x0, symName: __ZThn8_N8crashpad22PruneCrashReportThread5StartEv, symObjAddr: 0x268, symBinAddr: 0x100016F28, symSize: 0x14 }
  - { offsetInCU: 0x8542, offset: 0x104109, size: 0x8, addend: 0x0, symName: __ZN8crashpad22PruneCrashReportThread4StopEv, symObjAddr: 0x27C, symBinAddr: 0x100016F3C, symSize: 0x8 }
  - { offsetInCU: 0x857D, offset: 0x104144, size: 0x8, addend: 0x0, symName: __ZThn8_N8crashpad22PruneCrashReportThread4StopEv, symObjAddr: 0x284, symBinAddr: 0x100016F44, symSize: 0x8 }
  - { offsetInCU: 0x8597, offset: 0x10415E, size: 0x8, addend: 0x0, symName: __ZThn8_N8crashpad22PruneCrashReportThread4StopEv, symObjAddr: 0x284, symBinAddr: 0x100016F44, symSize: 0x8 }
  - { offsetInCU: 0x85B3, offset: 0x10417A, size: 0x8, addend: 0x0, symName: __ZN8crashpad22PruneCrashReportThread6DoWorkEPKNS_12WorkerThreadE, symObjAddr: 0x28C, symBinAddr: 0x100016F4C, symSize: 0x38 }
  - { offsetInCU: 0x4B4, offset: 0x10467B, size: 0x8, addend: 0x0, symName: __ZN8crashpad23AddUserExtensionStreamsEPKNSt3__16vectorINS0_10unique_ptrINS_20UserStreamDataSourceENS0_14default_deleteIS3_EEEENS0_9allocatorIS6_EEEEPNS_15ProcessSnapshotEPNS_18MinidumpFileWriterE, symObjAddr: 0x0, symBinAddr: 0x100016F84, symSize: 0x1A4 }
  - { offsetInCU: 0x26, offset: 0x1131B7, size: 0x8, addend: 0x0, symName: __ZN8crashpad25RecordFileLimitAnnotationEv, symObjAddr: 0x0, symBinAddr: 0x100017128, symSize: 0x664 }
  - { offsetInCU: 0x616, offset: 0x1137A7, size: 0x8, addend: 0x0, symName: __ZN8crashpad25RecordFileLimitAnnotationEv, symObjAddr: 0x0, symBinAddr: 0x100017128, symSize: 0x664 }
  - { offsetInCU: 0x8467, offset: 0x11B5F8, size: 0x8, addend: 0x0, symName: __ZN4base13ScopedGenericIP3DIRN8crashpad8internal20ScopedDIRCloseTraitsEED1Ev, symObjAddr: 0xC90, symBinAddr: 0x10001778C, symSize: 0x34 }
  - { offsetInCU: 0x1C65A, offset: 0x137E10, size: 0x8, addend: 0x0, symName: __ZN8crashpad27CrashReportExceptionHandlerC2EPNS_19CrashReportDatabaseEPNS_23CrashReportUploadThreadEPKNSt3__13mapINS5_12basic_stringIcNS5_11char_traitsIcEENS5_9allocatorIcEEEESC_NS5_4lessISC_EENSA_INS5_4pairIKSC_SC_EEEEEEPKNS5_6vectorIN4base8FilePathENSA_ISO_EEEEPKNSM_INS5_10unique_ptrINS_20UserStreamDataSourceENS5_14default_deleteISU_EEEENSA_ISX_EEEE, symObjAddr: 0x0, symBinAddr: 0x1000177C0, symSize: 0x18 }
  - { offsetInCU: 0x1C6FB, offset: 0x137EB1, size: 0x8, addend: 0x0, symName: __ZN8crashpad27CrashReportExceptionHandlerC1EPNS_19CrashReportDatabaseEPNS_23CrashReportUploadThreadEPKNSt3__13mapINS5_12basic_stringIcNS5_11char_traitsIcEENS5_9allocatorIcEEEESC_NS5_4lessISC_EENSA_INS5_4pairIKSC_SC_EEEEEEPKNS5_6vectorIN4base8FilePathENSA_ISO_EEEEPKNSM_INS5_10unique_ptrINS_20UserStreamDataSourceENS5_14default_deleteISU_EEEENSA_ISX_EEEE, symObjAddr: 0x18, symBinAddr: 0x1000177D8, symSize: 0x18 }
  - { offsetInCU: 0x1C76A, offset: 0x137F20, size: 0x8, addend: 0x0, symName: __ZN8crashpad27CrashReportExceptionHandlerC1EPNS_19CrashReportDatabaseEPNS_23CrashReportUploadThreadEPKNSt3__13mapINS5_12basic_stringIcNS5_11char_traitsIcEENS5_9allocatorIcEEEESC_NS5_4lessISC_EENSA_INS5_4pairIKSC_SC_EEEEEEPKNS5_6vectorIN4base8FilePathENSA_ISO_EEEEPKNSM_INS5_10unique_ptrINS_20UserStreamDataSourceENS5_14default_deleteISU_EEEENSA_ISX_EEEE, symObjAddr: 0x18, symBinAddr: 0x1000177D8, symSize: 0x18 }
  - { offsetInCU: 0x1C7AD, offset: 0x137F63, size: 0x8, addend: 0x0, symName: __ZN8crashpad27CrashReportExceptionHandlerD2Ev, symObjAddr: 0x30, symBinAddr: 0x1000177F0, symSize: 0x4 }
  - { offsetInCU: 0x1C7D8, offset: 0x137F8E, size: 0x8, addend: 0x0, symName: __ZN8crashpad27CrashReportExceptionHandlerD1Ev, symObjAddr: 0x34, symBinAddr: 0x1000177F4, symSize: 0x4 }
  - { offsetInCU: 0x1DEB3, offset: 0x139669, size: 0x8, addend: 0x0, symName: __ZN8crashpad27CrashReportExceptionHandler18CatchMachExceptionEijjjiPKxjPiPKjjPjS6_PK18mach_msg_trailer_tPb, symObjAddr: 0x38, symBinAddr: 0x1000177F8, symSize: 0xA00 }
  - { offsetInCU: 0x8C9B, offset: 0x145D60, size: 0x8, addend: 0x0, symName: __ZN8crashpad22ExceptionHandlerServerC2EN4base13ScopedGenericIjNS1_5apple8internal18ReceiveRightTraitsEEEb, symObjAddr: 0x0, symBinAddr: 0x1000181F8, symSize: 0x160 }
  - { offsetInCU: 0x9030, offset: 0x1460F5, size: 0x8, addend: 0x0, symName: __ZN8crashpad22ExceptionHandlerServerC1EN4base13ScopedGenericIjNS1_5apple8internal18ReceiveRightTraitsEEEb, symObjAddr: 0x194, symBinAddr: 0x100018358, symSize: 0x4 }
  - { offsetInCU: 0x907E, offset: 0x146143, size: 0x8, addend: 0x0, symName: __ZN8crashpad22ExceptionHandlerServerC1EN4base13ScopedGenericIjNS1_5apple8internal18ReceiveRightTraitsEEEb, symObjAddr: 0x194, symBinAddr: 0x100018358, symSize: 0x4 }
  - { offsetInCU: 0x90B8, offset: 0x14617D, size: 0x8, addend: 0x0, symName: __ZN8crashpad22ExceptionHandlerServerD2Ev, symObjAddr: 0x198, symBinAddr: 0x10001835C, symSize: 0x48 }
  - { offsetInCU: 0x919A, offset: 0x14625F, size: 0x8, addend: 0x0, symName: __ZN8crashpad22ExceptionHandlerServerD1Ev, symObjAddr: 0x1E0, symBinAddr: 0x1000183A4, symSize: 0x48 }
  - { offsetInCU: 0x9818, offset: 0x1468DD, size: 0x8, addend: 0x0, symName: __ZN8crashpad22ExceptionHandlerServer3RunEPNS_22UniversalMachExcServer9InterfaceE, symObjAddr: 0x228, symBinAddr: 0x1000183EC, symSize: 0x464 }
  - { offsetInCU: 0x9F8B, offset: 0x147050, size: 0x8, addend: 0x0, symName: __ZN4base13ScopedGenericIjNS_5apple8internal13PortSetTraitsEED1Ev, symObjAddr: 0x9B8, symBinAddr: 0x100018B7C, symSize: 0x34 }
  - { offsetInCU: 0x9FE4, offset: 0x1470A9, size: 0x8, addend: 0x0, symName: __ZN8crashpad12_GLOBAL__N_125ExceptionHandlerServerRunD1Ev, symObjAddr: 0x68C, symBinAddr: 0x100018850, symSize: 0x3C }
  - { offsetInCU: 0xA025, offset: 0x1470EA, size: 0x8, addend: 0x0, symName: __ZN8crashpad22ExceptionHandlerServer4StopEv, symObjAddr: 0x6C8, symBinAddr: 0x10001888C, symSize: 0xF0 }
  - { offsetInCU: 0xA1D6, offset: 0x14729B, size: 0x8, addend: 0x0, symName: __ZN8crashpad12_GLOBAL__N_125ExceptionHandlerServerRun18CatchMachExceptionEijjjiPKxjPiPKjjPjS7_PK18mach_msg_trailer_tPb, symObjAddr: 0x7B8, symBinAddr: 0x10001897C, symSize: 0xC0 }
  - { offsetInCU: 0xA33E, offset: 0x147403, size: 0x8, addend: 0x0, symName: __ZN8crashpad12_GLOBAL__N_125ExceptionHandlerServerRun21DoMachNotifyNoSendersEjjPK18mach_msg_trailer_t, symObjAddr: 0x878, symBinAddr: 0x100018A3C, symSize: 0xA0 }
  - { offsetInCU: 0xA410, offset: 0x1474D5, size: 0x8, addend: 0x0, symName: __ZThn8_N8crashpad12_GLOBAL__N_125ExceptionHandlerServerRun21DoMachNotifyNoSendersEjjPK18mach_msg_trailer_t, symObjAddr: 0x918, symBinAddr: 0x100018ADC, symSize: 0xA0 }
  - { offsetInCU: 0x1242E, offset: 0x159F46, size: 0x8, addend: 0x0, symName: __ZN8crashpad24MinidumpAnnotationWriterC2Ev, symObjAddr: 0x0, symBinAddr: 0x100018BB0, symSize: 0x80 }
  - { offsetInCU: 0x124A9, offset: 0x159FC1, size: 0x8, addend: 0x0, symName: __ZN8crashpad24MinidumpAnnotationWriterC1Ev, symObjAddr: 0x80, symBinAddr: 0x100018C30, symSize: 0x80 }
  - { offsetInCU: 0x12520, offset: 0x15A038, size: 0x8, addend: 0x0, symName: __ZN8crashpad24MinidumpAnnotationWriterD2Ev, symObjAddr: 0x100, symBinAddr: 0x100018CB0, symSize: 0x30 }
  - { offsetInCU: 0x1255F, offset: 0x15A077, size: 0x8, addend: 0x0, symName: __ZN8crashpad24MinidumpAnnotationWriterD1Ev, symObjAddr: 0x130, symBinAddr: 0x100018CE0, symSize: 0x30 }
  - { offsetInCU: 0x125BE, offset: 0x15A0D6, size: 0x8, addend: 0x0, symName: __ZN8crashpad24MinidumpAnnotationWriterD0Ev, symObjAddr: 0x160, symBinAddr: 0x100018D10, symSize: 0x34 }
  - { offsetInCU: 0x12727, offset: 0x15A23F, size: 0x8, addend: 0x0, symName: __ZN8crashpad24MinidumpAnnotationWriter22InitializeFromSnapshotERKNS_18AnnotationSnapshotE, symObjAddr: 0x194, symBinAddr: 0x100018D44, symSize: 0x58 }
  - { offsetInCU: 0x128A4, offset: 0x15A3BC, size: 0x8, addend: 0x0, symName: __ZNSt3__16vectorIhNS_9allocatorIhEEE18__assign_with_sizeB8ue170006IPhS5_EEvT_T0_l, symObjAddr: 0xB80, symBinAddr: 0x100019674, symSize: 0x148 }
  - { offsetInCU: 0x1334B, offset: 0x15AE63, size: 0x8, addend: 0x0, symName: __ZNKSt3__16vectorIhNS_9allocatorIhEEE20__throw_length_errorB8ue170006Ev, symObjAddr: 0xCC8, symBinAddr: 0x1000197BC, symSize: 0x14 }
  - { offsetInCU: 0x13370, offset: 0x15AE88, size: 0x8, addend: 0x0, symName: __ZN8crashpad24MinidumpAnnotationWriter18InitializeWithDataERKNSt3__112basic_stringIcNS1_11char_traitsIcEENS1_9allocatorIcEEEEtRKNS1_6vectorIhNS5_IhEEEE, symObjAddr: 0x1EC, symBinAddr: 0x100018D9C, symSize: 0x60 }
  - { offsetInCU: 0x1351D, offset: 0x15B035, size: 0x8, addend: 0x0, symName: __ZN8crashpad24MinidumpAnnotationWriter6FreezeEv, symObjAddr: 0x24C, symBinAddr: 0x100018DFC, symSize: 0x44 }
  - { offsetInCU: 0x13546, offset: 0x15B05E, size: 0x8, addend: 0x0, symName: __ZN8crashpad24MinidumpAnnotationWriter12SizeOfObjectEv, symObjAddr: 0x290, symBinAddr: 0x100018E40, symSize: 0x8 }
  - { offsetInCU: 0x13737, offset: 0x15B24F, size: 0x8, addend: 0x0, symName: __ZN8crashpad24MinidumpAnnotationWriter8ChildrenEv, symObjAddr: 0x298, symBinAddr: 0x100018E48, symSize: 0x48 }
  - { offsetInCU: 0x139D4, offset: 0x15B4EC, size: 0x8, addend: 0x0, symName: __ZN8crashpad24MinidumpAnnotationWriter11WriteObjectEPNS_19FileWriterInterfaceE, symObjAddr: 0x2E0, symBinAddr: 0x100018E90, symSize: 0x8 }
  - { offsetInCU: 0x13C27, offset: 0x15B73F, size: 0x8, addend: 0x0, symName: __ZN8crashpad28MinidumpAnnotationListWriterC2Ev, symObjAddr: 0x2E8, symBinAddr: 0x100018E98, symSize: 0x58 }
  - { offsetInCU: 0x13D63, offset: 0x15B87B, size: 0x8, addend: 0x0, symName: __ZN8crashpad28MinidumpAnnotationListWriterC1Ev, symObjAddr: 0x340, symBinAddr: 0x100018EF0, symSize: 0x58 }
  - { offsetInCU: 0x140D2, offset: 0x15BBEA, size: 0x8, addend: 0x0, symName: __ZN8crashpad28MinidumpAnnotationListWriterD2Ev, symObjAddr: 0x398, symBinAddr: 0x100018F48, symSize: 0x94 }
  - { offsetInCU: 0x14435, offset: 0x15BF4D, size: 0x8, addend: 0x0, symName: __ZN8crashpad28MinidumpAnnotationListWriterD1Ev, symObjAddr: 0x42C, symBinAddr: 0x100018FDC, symSize: 0x4 }
  - { offsetInCU: 0x14459, offset: 0x15BF71, size: 0x8, addend: 0x0, symName: __ZN8crashpad28MinidumpAnnotationListWriterD1Ev, symObjAddr: 0x42C, symBinAddr: 0x100018FDC, symSize: 0x4 }
  - { offsetInCU: 0x14487, offset: 0x15BF9F, size: 0x8, addend: 0x0, symName: __ZN8crashpad28MinidumpAnnotationListWriterD0Ev, symObjAddr: 0x430, symBinAddr: 0x100018FE0, symSize: 0x14 }
  - { offsetInCU: 0x148B4, offset: 0x15C3CC, size: 0x8, addend: 0x0, symName: __ZN8crashpad28MinidumpAnnotationListWriter18InitializeFromListERKNSt3__16vectorINS_18AnnotationSnapshotENS1_9allocatorIS3_EEEE, symObjAddr: 0x444, symBinAddr: 0x100018FF4, symSize: 0x1A8 }
  - { offsetInCU: 0x15071, offset: 0x15CB89, size: 0x8, addend: 0x0, symName: __ZNSt3__16vectorINS_10unique_ptrIN8crashpad24MinidumpAnnotationWriterENS_14default_deleteIS3_EEEENS_9allocatorIS6_EEE21__push_back_slow_pathIS6_EEvOT_, symObjAddr: 0xCF0, symBinAddr: 0x1000197E4, symSize: 0x138 }
  - { offsetInCU: 0x15761, offset: 0x15D279, size: 0x8, addend: 0x0, symName: __ZNKSt3__16vectorINS_10unique_ptrIN8crashpad24MinidumpAnnotationWriterENS_14default_deleteIS3_EEEENS_9allocatorIS6_EEE20__throw_length_errorB8ue170006Ev, symObjAddr: 0xE28, symBinAddr: 0x10001991C, symSize: 0x14 }
  - { offsetInCU: 0x15775, offset: 0x15D28D, size: 0x8, addend: 0x0, symName: __ZNSt3__110unique_ptrIN8crashpad24MinidumpAnnotationWriterENS_14default_deleteIS2_EEED1B8ue170006Ev, symObjAddr: 0x614, symBinAddr: 0x1000191C4, symSize: 0x48 }
  - { offsetInCU: 0x1584A, offset: 0x15D362, size: 0x8, addend: 0x0, symName: __ZN8crashpad28MinidumpAnnotationListWriter9AddObjectENSt3__110unique_ptrINS_24MinidumpAnnotationWriterENS1_14default_deleteIS3_EEEE, symObjAddr: 0x5EC, symBinAddr: 0x10001919C, symSize: 0x28 }
  - { offsetInCU: 0x15A49, offset: 0x15D561, size: 0x8, addend: 0x0, symName: __ZNK8crashpad28MinidumpAnnotationListWriter8IsUsefulEv, symObjAddr: 0x65C, symBinAddr: 0x10001920C, symSize: 0x10 }
  - { offsetInCU: 0x15A74, offset: 0x15D58C, size: 0x8, addend: 0x0, symName: __ZNK8crashpad28MinidumpAnnotationListWriter8IsUsefulEv, symObjAddr: 0x65C, symBinAddr: 0x10001920C, symSize: 0x10 }
  - { offsetInCU: 0x15B6D, offset: 0x15D685, size: 0x8, addend: 0x0, symName: __ZN8crashpad28MinidumpAnnotationListWriter6FreezeEv, symObjAddr: 0x66C, symBinAddr: 0x10001921C, symSize: 0xE0 }
  - { offsetInCU: 0x15CA5, offset: 0x15D7BD, size: 0x8, addend: 0x0, symName: __ZN8crashpad28MinidumpAnnotationListWriter12SizeOfObjectEv, symObjAddr: 0x74C, symBinAddr: 0x1000192FC, symSize: 0x1C }
  - { offsetInCU: 0x15CD0, offset: 0x15D7E8, size: 0x8, addend: 0x0, symName: __ZN8crashpad28MinidumpAnnotationListWriter12SizeOfObjectEv, symObjAddr: 0x74C, symBinAddr: 0x1000192FC, symSize: 0x1C }
  - { offsetInCU: 0x15F37, offset: 0x15DA4F, size: 0x8, addend: 0x0, symName: __ZN8crashpad28MinidumpAnnotationListWriter8ChildrenEv, symObjAddr: 0x768, symBinAddr: 0x100019318, symSize: 0xC4 }
  - { offsetInCU: 0x16313, offset: 0x15DE2B, size: 0x8, addend: 0x0, symName: __ZNKSt3__16vectorIPN8crashpad8internal16MinidumpWritableENS_9allocatorIS4_EEE20__throw_length_errorB8ue170006Ev, symObjAddr: 0xCDC, symBinAddr: 0x1000197D0, symSize: 0x14 }
  - { offsetInCU: 0x1633D, offset: 0x15DE55, size: 0x8, addend: 0x0, symName: __ZNSt3__16vectorINS_10unique_ptrIN8crashpad24MinidumpAnnotationWriterENS_14default_deleteIS3_EEEENS_9allocatorIS6_EEE21__push_back_slow_pathIS6_EEvOT_, symObjAddr: 0xCF0, symBinAddr: 0x1000197E4, symSize: 0x138 }
  - { offsetInCU: 0x168BF, offset: 0x15E3D7, size: 0x8, addend: 0x0, symName: __ZN8crashpad28MinidumpAnnotationListWriter11WriteObjectEPNS_19FileWriterInterfaceE, symObjAddr: 0x82C, symBinAddr: 0x1000193DC, symSize: 0x298 }
  - { offsetInCU: 0x1773B, offset: 0x15F253, size: 0x8, addend: 0x0, symName: __ZNKSt3__16vectorIN8crashpad13WritableIoVecENS_9allocatorIS2_EEE20__throw_length_errorB8ue170006Ev, symObjAddr: 0xE3C, symBinAddr: 0x100019930, symSize: 0x14 }
  - { offsetInCU: 0x17A82, offset: 0x15F59A, size: 0x8, addend: 0x0, symName: __ZNKSt3__16vectorIhNS_9allocatorIhEEE20__throw_length_errorB8ue170006Ev, symObjAddr: 0xCC8, symBinAddr: 0x1000197BC, symSize: 0x14 }
  - { offsetInCU: 0x17AAC, offset: 0x15F5C4, size: 0x8, addend: 0x0, symName: __ZNKSt3__16vectorIPN8crashpad8internal16MinidumpWritableENS_9allocatorIS4_EEE20__throw_length_errorB8ue170006Ev, symObjAddr: 0xCDC, symBinAddr: 0x1000197D0, symSize: 0x14 }
  - { offsetInCU: 0x17C80, offset: 0x15F798, size: 0x8, addend: 0x0, symName: __ZNKSt3__16vectorINS_10unique_ptrIN8crashpad24MinidumpAnnotationWriterENS_14default_deleteIS3_EEEENS_9allocatorIS6_EEE20__throw_length_errorB8ue170006Ev, symObjAddr: 0xE28, symBinAddr: 0x10001991C, symSize: 0x14 }
  - { offsetInCU: 0x17CAA, offset: 0x15F7C2, size: 0x8, addend: 0x0, symName: __ZNKSt3__16vectorIN8crashpad13WritableIoVecENS_9allocatorIS2_EEE20__throw_length_errorB8ue170006Ev, symObjAddr: 0xE3C, symBinAddr: 0x100019930, symSize: 0x14 }
  - { offsetInCU: 0xD9E3, offset: 0x16D667, size: 0x8, addend: 0x0, symName: __ZN8crashpad23MinidumpByteArrayWriterC2Ev, symObjAddr: 0x0, symBinAddr: 0x100019944, symSize: 0x58 }
  - { offsetInCU: 0xDB1F, offset: 0x16D7A3, size: 0x8, addend: 0x0, symName: __ZN8crashpad23MinidumpByteArrayWriterC1Ev, symObjAddr: 0x58, symBinAddr: 0x10001999C, symSize: 0x58 }
  - { offsetInCU: 0xDDE0, offset: 0x16DA64, size: 0x8, addend: 0x0, symName: __ZN8crashpad23MinidumpByteArrayWriterD2Ev, symObjAddr: 0xB0, symBinAddr: 0x1000199F4, symSize: 0x40 }
  - { offsetInCU: 0xE00F, offset: 0x16DC93, size: 0x8, addend: 0x0, symName: __ZN8crashpad23MinidumpByteArrayWriterD1Ev, symObjAddr: 0xF0, symBinAddr: 0x100019A34, symSize: 0x40 }
  - { offsetInCU: 0xE25E, offset: 0x16DEE2, size: 0x8, addend: 0x0, symName: __ZN8crashpad23MinidumpByteArrayWriterD0Ev, symObjAddr: 0x130, symBinAddr: 0x100019A74, symSize: 0x44 }
  - { offsetInCU: 0xE543, offset: 0x16E1C7, size: 0x8, addend: 0x0, symName: __ZN8crashpad23MinidumpByteArrayWriter8set_dataEPKhm, symObjAddr: 0x174, symBinAddr: 0x100019AB8, symSize: 0x18 }
  - { offsetInCU: 0xE660, offset: 0x16E2E4, size: 0x8, addend: 0x0, symName: __ZNSt3__16vectorIhNS_9allocatorIhEEE18__insert_with_sizeB8ue170006IPKhS6_EENS_11__wrap_iterIPhEENS7_IS6_EET_T0_l, symObjAddr: 0x350, symBinAddr: 0x100019C88, symSize: 0x2BC }
  - { offsetInCU: 0xF395, offset: 0x16F019, size: 0x8, addend: 0x0, symName: __ZN8crashpad23MinidumpByteArrayWriter6FreezeEv, symObjAddr: 0x18C, symBinAddr: 0x100019AD0, symSize: 0xD4 }
  - { offsetInCU: 0xF4CE, offset: 0x16F152, size: 0x8, addend: 0x0, symName: __ZN8crashpad23MinidumpByteArrayWriter12SizeOfObjectEv, symObjAddr: 0x260, symBinAddr: 0x100019BA4, symSize: 0x10 }
  - { offsetInCU: 0xF4F9, offset: 0x16F17D, size: 0x8, addend: 0x0, symName: __ZN8crashpad23MinidumpByteArrayWriter12SizeOfObjectEv, symObjAddr: 0x260, symBinAddr: 0x100019BA4, symSize: 0x10 }
  - { offsetInCU: 0xF97E, offset: 0x16F602, size: 0x8, addend: 0x0, symName: __ZN8crashpad23MinidumpByteArrayWriter11WriteObjectEPNS_19FileWriterInterfaceE, symObjAddr: 0x270, symBinAddr: 0x100019BB4, symSize: 0xD4 }
  - { offsetInCU: 0x100C8, offset: 0x180A3A, size: 0x8, addend: 0x0, symName: __ZN8crashpad21MinidumpContextWriterD2Ev, symObjAddr: 0x0, symBinAddr: 0x100019F44, symSize: 0x4 }
  - { offsetInCU: 0x100E9, offset: 0x180A5B, size: 0x8, addend: 0x0, symName: __ZN8crashpad21MinidumpContextWriterD1Ev, symObjAddr: 0x4, symBinAddr: 0x100019F48, symSize: 0x4 }
  - { offsetInCU: 0x10112, offset: 0x180A84, size: 0x8, addend: 0x0, symName: __ZN8crashpad21MinidumpContextWriterD0Ev, symObjAddr: 0x8, symBinAddr: 0x100019F4C, symSize: 0x4 }
  - { offsetInCU: 0x107E2, offset: 0x181154, size: 0x8, addend: 0x0, symName: __ZN8crashpad21MinidumpContextWriter18CreateFromSnapshotEPKNS_10CPUContextE, symObjAddr: 0xC, symBinAddr: 0x100019F50, symSize: 0x830 }
  - { offsetInCU: 0x1106F, offset: 0x1819E1, size: 0x8, addend: 0x0, symName: __ZN8crashpad26MinidumpContextAMD64Writer22InitializeFromSnapshotEPKNS_16CPUContextX86_64E, symObjAddr: 0x98C, symBinAddr: 0x10001A8D0, symSize: 0x17C }
  - { offsetInCU: 0x11515, offset: 0x181E87, size: 0x8, addend: 0x0, symName: __ZN8crashpad24MinidumpContextX86WriterC1Ev, symObjAddr: 0x83C, symBinAddr: 0x10001A780, symSize: 0x40 }
  - { offsetInCU: 0x11574, offset: 0x181EE6, size: 0x8, addend: 0x0, symName: __ZN8crashpad24MinidumpContextX86Writer22InitializeFromSnapshotEPKNS_13CPUContextX86E, symObjAddr: 0x87C, symBinAddr: 0x10001A7C0, symSize: 0xAC }
  - { offsetInCU: 0x115A1, offset: 0x181F13, size: 0x8, addend: 0x0, symName: __ZN8crashpad26MinidumpContextAMD64WriternwEm, symObjAddr: 0x928, symBinAddr: 0x10001A86C, symSize: 0xC }
  - { offsetInCU: 0x115DA, offset: 0x181F4C, size: 0x8, addend: 0x0, symName: __ZN8crashpad26MinidumpContextAMD64WriterC1Ev, symObjAddr: 0x934, symBinAddr: 0x10001A878, symSize: 0x40 }
  - { offsetInCU: 0x1167C, offset: 0x181FEE, size: 0x8, addend: 0x0, symName: __ZN8crashpad26MinidumpContextAMD64WriterdlEPv, symObjAddr: 0x974, symBinAddr: 0x10001A8B8, symSize: 0x18 }
  - { offsetInCU: 0x11AE7, offset: 0x182459, size: 0x8, addend: 0x0, symName: __ZNSt3__16vectorINS_10unique_ptrIN8crashpad25MinidumpXSaveFeatureAMD64ENS_14default_deleteIS3_EEEENS_9allocatorIS6_EEE21__push_back_slow_pathIS6_EEvOT_, symObjAddr: 0x1978, symBinAddr: 0x10001B8B0, symSize: 0x128 }
  - { offsetInCU: 0x121A9, offset: 0x182B1B, size: 0x8, addend: 0x0, symName: __ZNKSt3__16vectorINS_10unique_ptrIN8crashpad25MinidumpXSaveFeatureAMD64ENS_14default_deleteIS3_EEEENS_9allocatorIS6_EEE20__throw_length_errorB8ue170006Ev, symObjAddr: 0x1AA0, symBinAddr: 0x10001B9D8, symSize: 0x14 }
  - { offsetInCU: 0x121BD, offset: 0x182B2F, size: 0x8, addend: 0x0, symName: __ZN8crashpad24MinidumpContextARMWriter22InitializeFromSnapshotEPKNS_13CPUContextARME, symObjAddr: 0xB08, symBinAddr: 0x10001AA4C, symSize: 0x94 }
  - { offsetInCU: 0x121E8, offset: 0x182B5A, size: 0x8, addend: 0x0, symName: __ZN8crashpad26MinidumpContextARM64Writer22InitializeFromSnapshotEPKNS_15CPUContextARM64E, symObjAddr: 0xB9C, symBinAddr: 0x10001AAE0, symSize: 0xC8 }
  - { offsetInCU: 0x12215, offset: 0x182B87, size: 0x8, addend: 0x0, symName: __ZN8crashpad25MinidumpContextMIPSWriter22InitializeFromSnapshotEPKNS_14CPUContextMIPSE, symObjAddr: 0xC64, symBinAddr: 0x10001ABA8, symSize: 0x11C }
  - { offsetInCU: 0x12259, offset: 0x182BCB, size: 0x8, addend: 0x0, symName: __ZN8crashpad27MinidumpContextMIPS64Writer22InitializeFromSnapshotEPKNS_16CPUContextMIPS64E, symObjAddr: 0xD80, symBinAddr: 0x10001ACC4, symSize: 0x11C }
  - { offsetInCU: 0x1229D, offset: 0x182C0F, size: 0x8, addend: 0x0, symName: __ZN8crashpad28MinidumpContextRISCV64Writer22InitializeFromSnapshotEPKNS_17CPUContextRISCV64E, symObjAddr: 0xE9C, symBinAddr: 0x10001ADE0, symSize: 0x124 }
  - { offsetInCU: 0x122C8, offset: 0x182C3A, size: 0x8, addend: 0x0, symName: __ZN8crashpad21MinidumpContextWriter12SizeOfObjectEv, symObjAddr: 0xFC0, symBinAddr: 0x10001AF04, symSize: 0xC }
  - { offsetInCU: 0x12315, offset: 0x182C87, size: 0x8, addend: 0x0, symName: __ZN8crashpad21MinidumpContextWriter24FreezeAndGetSizeOfObjectEv, symObjAddr: 0xFCC, symBinAddr: 0x10001AF10, symSize: 0x34 }
  - { offsetInCU: 0x12385, offset: 0x182CF7, size: 0x8, addend: 0x0, symName: __ZN8crashpad24MinidumpContextX86WriterC2Ev, symObjAddr: 0x1000, symBinAddr: 0x10001AF44, symSize: 0x40 }
  - { offsetInCU: 0x123E2, offset: 0x182D54, size: 0x8, addend: 0x0, symName: __ZN8crashpad24MinidumpContextX86WriterD2Ev, symObjAddr: 0x1040, symBinAddr: 0x10001AF84, symSize: 0x4 }
  - { offsetInCU: 0x12405, offset: 0x182D77, size: 0x8, addend: 0x0, symName: __ZN8crashpad24MinidumpContextX86WriterD2Ev, symObjAddr: 0x1040, symBinAddr: 0x10001AF84, symSize: 0x4 }
  - { offsetInCU: 0x1243D, offset: 0x182DAF, size: 0x8, addend: 0x0, symName: __ZN8crashpad24MinidumpContextX86WriterD1Ev, symObjAddr: 0x1044, symBinAddr: 0x10001AF88, symSize: 0x4 }
  - { offsetInCU: 0x12460, offset: 0x182DD2, size: 0x8, addend: 0x0, symName: __ZN8crashpad24MinidumpContextX86WriterD1Ev, symObjAddr: 0x1044, symBinAddr: 0x10001AF88, symSize: 0x4 }
  - { offsetInCU: 0x1247D, offset: 0x182DEF, size: 0x8, addend: 0x0, symName: __ZN8crashpad24MinidumpContextX86WriterD1Ev, symObjAddr: 0x1044, symBinAddr: 0x10001AF88, symSize: 0x4 }
  - { offsetInCU: 0x124B6, offset: 0x182E28, size: 0x8, addend: 0x0, symName: __ZN8crashpad24MinidumpContextX86WriterD0Ev, symObjAddr: 0x1048, symBinAddr: 0x10001AF8C, symSize: 0x14 }
  - { offsetInCU: 0x1253B, offset: 0x182EAD, size: 0x8, addend: 0x0, symName: __ZN8crashpad24MinidumpContextX86Writer11WriteObjectEPNS_19FileWriterInterfaceE, symObjAddr: 0x105C, symBinAddr: 0x10001AFA0, symSize: 0x1C }
  - { offsetInCU: 0x1258F, offset: 0x182F01, size: 0x8, addend: 0x0, symName: __ZNK8crashpad24MinidumpContextX86Writer11ContextSizeEv, symObjAddr: 0x1078, symBinAddr: 0x10001AFBC, symSize: 0x8 }
  - { offsetInCU: 0x125B4, offset: 0x182F26, size: 0x8, addend: 0x0, symName: __ZN8crashpad26MinidumpContextAMD64WriterC2Ev, symObjAddr: 0x1080, symBinAddr: 0x10001AFC4, symSize: 0x40 }
  - { offsetInCU: 0x1275B, offset: 0x1830CD, size: 0x8, addend: 0x0, symName: __ZN8crashpad26MinidumpContextAMD64WriterD2Ev, symObjAddr: 0x10C0, symBinAddr: 0x10001B004, symSize: 0x74 }
  - { offsetInCU: 0x12A27, offset: 0x183399, size: 0x8, addend: 0x0, symName: __ZN8crashpad26MinidumpContextAMD64WriterD1Ev, symObjAddr: 0x1134, symBinAddr: 0x10001B078, symSize: 0x74 }
  - { offsetInCU: 0x12D13, offset: 0x183685, size: 0x8, addend: 0x0, symName: __ZN8crashpad26MinidumpContextAMD64WriterD0Ev, symObjAddr: 0x11A8, symBinAddr: 0x10001B0EC, symSize: 0x80 }
  - { offsetInCU: 0x1302D, offset: 0x18399F, size: 0x8, addend: 0x0, symName: __ZN8crashpad22MinidumpXSaveAMD64CetU22InitializeFromSnapshotEPKNS_16CPUContextX86_64E, symObjAddr: 0x1234, symBinAddr: 0x10001B16C, symSize: 0x10 }
  - { offsetInCU: 0x13058, offset: 0x1839CA, size: 0x8, addend: 0x0, symName: __ZN8crashpad26MinidumpContextAMD64Writer9AlignmentEv, symObjAddr: 0x1244, symBinAddr: 0x10001B17C, symSize: 0x8 }
  - { offsetInCU: 0x13446, offset: 0x183DB8, size: 0x8, addend: 0x0, symName: __ZN8crashpad26MinidumpContextAMD64Writer11WriteObjectEPNS_19FileWriterInterfaceE, symObjAddr: 0x124C, symBinAddr: 0x10001B184, symSize: 0x270 }
  - { offsetInCU: 0x13D98, offset: 0x18470A, size: 0x8, addend: 0x0, symName: __ZNK8crashpad26MinidumpContextAMD64Writer11ContextSizeEv, symObjAddr: 0x14BC, symBinAddr: 0x10001B3F4, symSize: 0x6C }
  - { offsetInCU: 0x13E5D, offset: 0x1847CF, size: 0x8, addend: 0x0, symName: __ZNK8crashpad22MinidumpXSaveAMD64CetU4CopyEPv, symObjAddr: 0x1528, symBinAddr: 0x10001B460, symSize: 0x10 }
  - { offsetInCU: 0x13E96, offset: 0x184808, size: 0x8, addend: 0x0, symName: __ZN8crashpad24MinidumpContextARMWriterC2Ev, symObjAddr: 0x1538, symBinAddr: 0x10001B470, symSize: 0x70 }
  - { offsetInCU: 0x13ED6, offset: 0x184848, size: 0x8, addend: 0x0, symName: __ZN8crashpad24MinidumpContextARMWriterC1Ev, symObjAddr: 0x15A8, symBinAddr: 0x10001B4E0, symSize: 0x70 }
  - { offsetInCU: 0x13F35, offset: 0x1848A7, size: 0x8, addend: 0x0, symName: __ZN8crashpad24MinidumpContextARMWriterD2Ev, symObjAddr: 0x1618, symBinAddr: 0x10001B550, symSize: 0x4 }
  - { offsetInCU: 0x13F58, offset: 0x1848CA, size: 0x8, addend: 0x0, symName: __ZN8crashpad24MinidumpContextARMWriterD2Ev, symObjAddr: 0x1618, symBinAddr: 0x10001B550, symSize: 0x4 }
  - { offsetInCU: 0x13F92, offset: 0x184904, size: 0x8, addend: 0x0, symName: __ZN8crashpad24MinidumpContextARMWriterD1Ev, symObjAddr: 0x161C, symBinAddr: 0x10001B554, symSize: 0x4 }
  - { offsetInCU: 0x13FB5, offset: 0x184927, size: 0x8, addend: 0x0, symName: __ZN8crashpad24MinidumpContextARMWriterD1Ev, symObjAddr: 0x161C, symBinAddr: 0x10001B554, symSize: 0x4 }
  - { offsetInCU: 0x13FD3, offset: 0x184945, size: 0x8, addend: 0x0, symName: __ZN8crashpad24MinidumpContextARMWriterD1Ev, symObjAddr: 0x161C, symBinAddr: 0x10001B554, symSize: 0x4 }
  - { offsetInCU: 0x1400E, offset: 0x184980, size: 0x8, addend: 0x0, symName: __ZN8crashpad24MinidumpContextARMWriterD0Ev, symObjAddr: 0x1620, symBinAddr: 0x10001B558, symSize: 0x14 }
  - { offsetInCU: 0x14097, offset: 0x184A09, size: 0x8, addend: 0x0, symName: __ZN8crashpad24MinidumpContextARMWriter11WriteObjectEPNS_19FileWriterInterfaceE, symObjAddr: 0x1634, symBinAddr: 0x10001B56C, symSize: 0x1C }
  - { offsetInCU: 0x140ED, offset: 0x184A5F, size: 0x8, addend: 0x0, symName: __ZNK8crashpad24MinidumpContextARMWriter11ContextSizeEv, symObjAddr: 0x1650, symBinAddr: 0x10001B588, symSize: 0x8 }
  - { offsetInCU: 0x14113, offset: 0x184A85, size: 0x8, addend: 0x0, symName: __ZN8crashpad26MinidumpContextARM64WriterC2Ev, symObjAddr: 0x1658, symBinAddr: 0x10001B590, symSize: 0x40 }
  - { offsetInCU: 0x14155, offset: 0x184AC7, size: 0x8, addend: 0x0, symName: __ZN8crashpad26MinidumpContextARM64WriterC1Ev, symObjAddr: 0x1698, symBinAddr: 0x10001B5D0, symSize: 0x40 }
  - { offsetInCU: 0x141B6, offset: 0x184B28, size: 0x8, addend: 0x0, symName: __ZN8crashpad26MinidumpContextARM64WriterD2Ev, symObjAddr: 0x16D8, symBinAddr: 0x10001B610, symSize: 0x4 }
  - { offsetInCU: 0x141D9, offset: 0x184B4B, size: 0x8, addend: 0x0, symName: __ZN8crashpad26MinidumpContextARM64WriterD2Ev, symObjAddr: 0x16D8, symBinAddr: 0x10001B610, symSize: 0x4 }
  - { offsetInCU: 0x14213, offset: 0x184B85, size: 0x8, addend: 0x0, symName: __ZN8crashpad26MinidumpContextARM64WriterD1Ev, symObjAddr: 0x16DC, symBinAddr: 0x10001B614, symSize: 0x4 }
  - { offsetInCU: 0x14236, offset: 0x184BA8, size: 0x8, addend: 0x0, symName: __ZN8crashpad26MinidumpContextARM64WriterD1Ev, symObjAddr: 0x16DC, symBinAddr: 0x10001B614, symSize: 0x4 }
  - { offsetInCU: 0x14254, offset: 0x184BC6, size: 0x8, addend: 0x0, symName: __ZN8crashpad26MinidumpContextARM64WriterD1Ev, symObjAddr: 0x16DC, symBinAddr: 0x10001B614, symSize: 0x4 }
  - { offsetInCU: 0x1428F, offset: 0x184C01, size: 0x8, addend: 0x0, symName: __ZN8crashpad26MinidumpContextARM64WriterD0Ev, symObjAddr: 0x16E0, symBinAddr: 0x10001B618, symSize: 0x14 }
  - { offsetInCU: 0x14318, offset: 0x184C8A, size: 0x8, addend: 0x0, symName: __ZN8crashpad26MinidumpContextARM64Writer11WriteObjectEPNS_19FileWriterInterfaceE, symObjAddr: 0x16F4, symBinAddr: 0x10001B62C, symSize: 0x1C }
  - { offsetInCU: 0x1436E, offset: 0x184CE0, size: 0x8, addend: 0x0, symName: __ZNK8crashpad26MinidumpContextARM64Writer11ContextSizeEv, symObjAddr: 0x1710, symBinAddr: 0x10001B648, symSize: 0x8 }
  - { offsetInCU: 0x14394, offset: 0x184D06, size: 0x8, addend: 0x0, symName: __ZN8crashpad25MinidumpContextMIPSWriterC2Ev, symObjAddr: 0x1718, symBinAddr: 0x10001B650, symSize: 0x40 }
  - { offsetInCU: 0x143D6, offset: 0x184D48, size: 0x8, addend: 0x0, symName: __ZN8crashpad25MinidumpContextMIPSWriterC1Ev, symObjAddr: 0x1758, symBinAddr: 0x10001B690, symSize: 0x40 }
  - { offsetInCU: 0x14437, offset: 0x184DA9, size: 0x8, addend: 0x0, symName: __ZN8crashpad25MinidumpContextMIPSWriterD2Ev, symObjAddr: 0x1798, symBinAddr: 0x10001B6D0, symSize: 0x4 }
  - { offsetInCU: 0x1445A, offset: 0x184DCC, size: 0x8, addend: 0x0, symName: __ZN8crashpad25MinidumpContextMIPSWriterD2Ev, symObjAddr: 0x1798, symBinAddr: 0x10001B6D0, symSize: 0x4 }
  - { offsetInCU: 0x14494, offset: 0x184E06, size: 0x8, addend: 0x0, symName: __ZN8crashpad25MinidumpContextMIPSWriterD1Ev, symObjAddr: 0x179C, symBinAddr: 0x10001B6D4, symSize: 0x4 }
  - { offsetInCU: 0x144B7, offset: 0x184E29, size: 0x8, addend: 0x0, symName: __ZN8crashpad25MinidumpContextMIPSWriterD1Ev, symObjAddr: 0x179C, symBinAddr: 0x10001B6D4, symSize: 0x4 }
  - { offsetInCU: 0x144D5, offset: 0x184E47, size: 0x8, addend: 0x0, symName: __ZN8crashpad25MinidumpContextMIPSWriterD1Ev, symObjAddr: 0x179C, symBinAddr: 0x10001B6D4, symSize: 0x4 }
  - { offsetInCU: 0x14510, offset: 0x184E82, size: 0x8, addend: 0x0, symName: __ZN8crashpad25MinidumpContextMIPSWriterD0Ev, symObjAddr: 0x17A0, symBinAddr: 0x10001B6D8, symSize: 0x14 }
  - { offsetInCU: 0x14599, offset: 0x184F0B, size: 0x8, addend: 0x0, symName: __ZN8crashpad25MinidumpContextMIPSWriter11WriteObjectEPNS_19FileWriterInterfaceE, symObjAddr: 0x17B4, symBinAddr: 0x10001B6EC, symSize: 0x1C }
  - { offsetInCU: 0x145EF, offset: 0x184F61, size: 0x8, addend: 0x0, symName: __ZNK8crashpad25MinidumpContextMIPSWriter11ContextSizeEv, symObjAddr: 0x17D0, symBinAddr: 0x10001B708, symSize: 0x8 }
  - { offsetInCU: 0x14615, offset: 0x184F87, size: 0x8, addend: 0x0, symName: __ZN8crashpad27MinidumpContextMIPS64WriterC2Ev, symObjAddr: 0x17D8, symBinAddr: 0x10001B710, symSize: 0x40 }
  - { offsetInCU: 0x14657, offset: 0x184FC9, size: 0x8, addend: 0x0, symName: __ZN8crashpad27MinidumpContextMIPS64WriterC1Ev, symObjAddr: 0x1818, symBinAddr: 0x10001B750, symSize: 0x40 }
  - { offsetInCU: 0x146B8, offset: 0x18502A, size: 0x8, addend: 0x0, symName: __ZN8crashpad27MinidumpContextMIPS64WriterD2Ev, symObjAddr: 0x1858, symBinAddr: 0x10001B790, symSize: 0x4 }
  - { offsetInCU: 0x146DB, offset: 0x18504D, size: 0x8, addend: 0x0, symName: __ZN8crashpad27MinidumpContextMIPS64WriterD2Ev, symObjAddr: 0x1858, symBinAddr: 0x10001B790, symSize: 0x4 }
  - { offsetInCU: 0x14715, offset: 0x185087, size: 0x8, addend: 0x0, symName: __ZN8crashpad27MinidumpContextMIPS64WriterD1Ev, symObjAddr: 0x185C, symBinAddr: 0x10001B794, symSize: 0x4 }
  - { offsetInCU: 0x14738, offset: 0x1850AA, size: 0x8, addend: 0x0, symName: __ZN8crashpad27MinidumpContextMIPS64WriterD1Ev, symObjAddr: 0x185C, symBinAddr: 0x10001B794, symSize: 0x4 }
  - { offsetInCU: 0x14756, offset: 0x1850C8, size: 0x8, addend: 0x0, symName: __ZN8crashpad27MinidumpContextMIPS64WriterD1Ev, symObjAddr: 0x185C, symBinAddr: 0x10001B794, symSize: 0x4 }
  - { offsetInCU: 0x14791, offset: 0x185103, size: 0x8, addend: 0x0, symName: __ZN8crashpad27MinidumpContextMIPS64WriterD0Ev, symObjAddr: 0x1860, symBinAddr: 0x10001B798, symSize: 0x14 }
  - { offsetInCU: 0x1481A, offset: 0x18518C, size: 0x8, addend: 0x0, symName: __ZN8crashpad27MinidumpContextMIPS64Writer11WriteObjectEPNS_19FileWriterInterfaceE, symObjAddr: 0x1874, symBinAddr: 0x10001B7AC, symSize: 0x1C }
  - { offsetInCU: 0x14870, offset: 0x1851E2, size: 0x8, addend: 0x0, symName: __ZNK8crashpad27MinidumpContextMIPS64Writer11ContextSizeEv, symObjAddr: 0x1890, symBinAddr: 0x10001B7C8, symSize: 0x8 }
  - { offsetInCU: 0x14896, offset: 0x185208, size: 0x8, addend: 0x0, symName: __ZN8crashpad28MinidumpContextRISCV64WriterC2Ev, symObjAddr: 0x1898, symBinAddr: 0x10001B7D0, symSize: 0x44 }
  - { offsetInCU: 0x148D8, offset: 0x18524A, size: 0x8, addend: 0x0, symName: __ZN8crashpad28MinidumpContextRISCV64WriterC1Ev, symObjAddr: 0x18DC, symBinAddr: 0x10001B814, symSize: 0x44 }
  - { offsetInCU: 0x14939, offset: 0x1852AB, size: 0x8, addend: 0x0, symName: __ZN8crashpad28MinidumpContextRISCV64WriterD2Ev, symObjAddr: 0x1920, symBinAddr: 0x10001B858, symSize: 0x4 }
  - { offsetInCU: 0x1495C, offset: 0x1852CE, size: 0x8, addend: 0x0, symName: __ZN8crashpad28MinidumpContextRISCV64WriterD2Ev, symObjAddr: 0x1920, symBinAddr: 0x10001B858, symSize: 0x4 }
  - { offsetInCU: 0x14996, offset: 0x185308, size: 0x8, addend: 0x0, symName: __ZN8crashpad28MinidumpContextRISCV64WriterD1Ev, symObjAddr: 0x1924, symBinAddr: 0x10001B85C, symSize: 0x4 }
  - { offsetInCU: 0x149B9, offset: 0x18532B, size: 0x8, addend: 0x0, symName: __ZN8crashpad28MinidumpContextRISCV64WriterD1Ev, symObjAddr: 0x1924, symBinAddr: 0x10001B85C, symSize: 0x4 }
  - { offsetInCU: 0x149D7, offset: 0x185349, size: 0x8, addend: 0x0, symName: __ZN8crashpad28MinidumpContextRISCV64WriterD1Ev, symObjAddr: 0x1924, symBinAddr: 0x10001B85C, symSize: 0x4 }
  - { offsetInCU: 0x14A12, offset: 0x185384, size: 0x8, addend: 0x0, symName: __ZN8crashpad28MinidumpContextRISCV64WriterD0Ev, symObjAddr: 0x1928, symBinAddr: 0x10001B860, symSize: 0x14 }
  - { offsetInCU: 0x14A9B, offset: 0x18540D, size: 0x8, addend: 0x0, symName: __ZN8crashpad28MinidumpContextRISCV64Writer11WriteObjectEPNS_19FileWriterInterfaceE, symObjAddr: 0x193C, symBinAddr: 0x10001B874, symSize: 0x1C }
  - { offsetInCU: 0x14AF1, offset: 0x185463, size: 0x8, addend: 0x0, symName: __ZNK8crashpad28MinidumpContextRISCV64Writer11ContextSizeEv, symObjAddr: 0x1958, symBinAddr: 0x10001B890, symSize: 0x8 }
  - { offsetInCU: 0x14B17, offset: 0x185489, size: 0x8, addend: 0x0, symName: __ZN8crashpad22MinidumpXSaveAMD64CetUD1Ev, symObjAddr: 0x1960, symBinAddr: 0x10001B898, symSize: 0x4 }
  - { offsetInCU: 0x14B40, offset: 0x1854B2, size: 0x8, addend: 0x0, symName: __ZN8crashpad22MinidumpXSaveAMD64CetUD0Ev, symObjAddr: 0x1964, symBinAddr: 0x10001B89C, symSize: 0x4 }
  - { offsetInCU: 0x14B69, offset: 0x1854DB, size: 0x8, addend: 0x0, symName: __ZNK8crashpad22MinidumpXSaveAMD64CetU4SizeEv, symObjAddr: 0x1968, symBinAddr: 0x10001B8A0, symSize: 0x8 }
  - { offsetInCU: 0x14B90, offset: 0x185502, size: 0x8, addend: 0x0, symName: __ZNK8crashpad22MinidumpXSaveAMD64CetU10XCompBVBitEv, symObjAddr: 0x1970, symBinAddr: 0x10001B8A8, symSize: 0x8 }
  - { offsetInCU: 0x14D80, offset: 0x1856F2, size: 0x8, addend: 0x0, symName: __ZNKSt3__16vectorINS_10unique_ptrIN8crashpad25MinidumpXSaveFeatureAMD64ENS_14default_deleteIS3_EEEENS_9allocatorIS6_EEE20__throw_length_errorB8ue170006Ev, symObjAddr: 0x1AA0, symBinAddr: 0x10001B9D8, symSize: 0x14 }
  - { offsetInCU: 0x26, offset: 0x185CAF, size: 0x8, addend: 0x0, symName: __ZN8crashpad26MinidumpCrashpadInfoWriterC2Ev, symObjAddr: 0x0, symBinAddr: 0x10001B9EC, symSize: 0x40 }
  - { offsetInCU: 0xE582, offset: 0x19420B, size: 0x8, addend: 0x0, symName: __ZN8crashpad26MinidumpCrashpadInfoWriterC2Ev, symObjAddr: 0x0, symBinAddr: 0x10001B9EC, symSize: 0x40 }
  - { offsetInCU: 0xE677, offset: 0x194300, size: 0x8, addend: 0x0, symName: __ZN8crashpad26MinidumpCrashpadInfoWriterC1Ev, symObjAddr: 0x40, symBinAddr: 0x10001BA2C, symSize: 0x40 }
  - { offsetInCU: 0xE88C, offset: 0x194515, size: 0x8, addend: 0x0, symName: __ZN8crashpad26MinidumpCrashpadInfoWriterD2Ev, symObjAddr: 0x80, symBinAddr: 0x10001BA6C, symSize: 0x48 }
  - { offsetInCU: 0xE9E5, offset: 0x19466E, size: 0x8, addend: 0x0, symName: __ZNSt3__110unique_ptrIN8crashpad36MinidumpModuleCrashpadInfoListWriterENS_14default_deleteIS2_EEED1B8ue170006Ev, symObjAddr: 0xC8, symBinAddr: 0x10001BAB4, symSize: 0x34 }
  - { offsetInCU: 0xEA7E, offset: 0x194707, size: 0x8, addend: 0x0, symName: __ZNSt3__110unique_ptrIN8crashpad36MinidumpSimpleStringDictionaryWriterENS_14default_deleteIS2_EEED1B8ue170006Ev, symObjAddr: 0xFC, symBinAddr: 0x10001BAE8, symSize: 0x34 }
  - { offsetInCU: 0xEB33, offset: 0x1947BC, size: 0x8, addend: 0x0, symName: __ZN8crashpad26MinidumpCrashpadInfoWriterD1Ev, symObjAddr: 0x130, symBinAddr: 0x10001BB1C, symSize: 0x48 }
  - { offsetInCU: 0xECC8, offset: 0x194951, size: 0x8, addend: 0x0, symName: __ZN8crashpad26MinidumpCrashpadInfoWriterD0Ev, symObjAddr: 0x178, symBinAddr: 0x10001BB64, symSize: 0x4C }
  - { offsetInCU: 0xF2EA, offset: 0x194F73, size: 0x8, addend: 0x0, symName: __ZN8crashpad26MinidumpCrashpadInfoWriter22InitializeFromSnapshotEPKNS_15ProcessSnapshotE, symObjAddr: 0x1C4, symBinAddr: 0x10001BBB0, symSize: 0x1D8 }
  - { offsetInCU: 0xFB0A, offset: 0x195793, size: 0x8, addend: 0x0, symName: __ZN8crashpad26MinidumpCrashpadInfoWriter11SetReportIDERKNS_4UUIDE, symObjAddr: 0x39C, symBinAddr: 0x10001BD88, symSize: 0xC }
  - { offsetInCU: 0xFB33, offset: 0x1957BC, size: 0x8, addend: 0x0, symName: __ZN8crashpad26MinidumpCrashpadInfoWriter11SetClientIDERKNS_4UUIDE, symObjAddr: 0x3A8, symBinAddr: 0x10001BD94, symSize: 0xC }
  - { offsetInCU: 0xFB5C, offset: 0x1957E5, size: 0x8, addend: 0x0, symName: __ZN8crashpad26MinidumpCrashpadInfoWriter20SetSimpleAnnotationsENSt3__110unique_ptrINS_36MinidumpSimpleStringDictionaryWriterENS1_14default_deleteIS3_EEEE, symObjAddr: 0x3B4, symBinAddr: 0x10001BDA0, symSize: 0x34 }
  - { offsetInCU: 0xFC2E, offset: 0x1958B7, size: 0x8, addend: 0x0, symName: __ZN8crashpad26MinidumpCrashpadInfoWriter14SetAddressMaskEy, symObjAddr: 0x3E8, symBinAddr: 0x10001BDD4, symSize: 0x8 }
  - { offsetInCU: 0xFC7A, offset: 0x195903, size: 0x8, addend: 0x0, symName: __ZN8crashpad26MinidumpCrashpadInfoWriter13SetModuleListENSt3__110unique_ptrINS_36MinidumpModuleCrashpadInfoListWriterENS1_14default_deleteIS3_EEEE, symObjAddr: 0x3F0, symBinAddr: 0x10001BDDC, symSize: 0x34 }
  - { offsetInCU: 0xFD82, offset: 0x195A0B, size: 0x8, addend: 0x0, symName: __ZN8crashpad26MinidumpCrashpadInfoWriter6FreezeEv, symObjAddr: 0x424, symBinAddr: 0x10001BE10, symSize: 0x4C }
  - { offsetInCU: 0xFDEC, offset: 0x195A75, size: 0x8, addend: 0x0, symName: __ZN8crashpad26MinidumpCrashpadInfoWriter12SizeOfObjectEv, symObjAddr: 0x470, symBinAddr: 0x10001BE5C, symSize: 0x8 }
  - { offsetInCU: 0x101D7, offset: 0x195E60, size: 0x8, addend: 0x0, symName: __ZN8crashpad26MinidumpCrashpadInfoWriter8ChildrenEv, symObjAddr: 0x478, symBinAddr: 0x10001BE64, symSize: 0x1C8 }
  - { offsetInCU: 0x10961, offset: 0x1965EA, size: 0x8, addend: 0x0, symName: __ZN8crashpad26MinidumpCrashpadInfoWriter11WriteObjectEPNS_19FileWriterInterfaceE, symObjAddr: 0x640, symBinAddr: 0x10001C02C, symSize: 0x1C }
  - { offsetInCU: 0x109B4, offset: 0x19663D, size: 0x8, addend: 0x0, symName: __ZNK8crashpad26MinidumpCrashpadInfoWriter10StreamTypeEv, symObjAddr: 0x65C, symBinAddr: 0x10001C048, symSize: 0xC }
  - { offsetInCU: 0x109FF, offset: 0x196688, size: 0x8, addend: 0x0, symName: __ZNK8crashpad26MinidumpCrashpadInfoWriter8IsUsefulEv, symObjAddr: 0x668, symBinAddr: 0x10001C054, symSize: 0x74 }
  - { offsetInCU: 0x9D, offset: 0x196846, size: 0x8, addend: 0x0, symName: __ZN7logging17MakeCheckOpStringImmEEPNSt3__112basic_stringIcNS1_11char_traitsIcEENS1_9allocatorIcEEEERKT_RKT0_PKc, symObjAddr: 0x8A4, symBinAddr: 0x10001C5E0, symSize: 0x2A0 }
  - { offsetInCU: 0xE87B, offset: 0x1A5024, size: 0x8, addend: 0x0, symName: __ZN8crashpad23MinidumpExceptionWriterC2Ev, symObjAddr: 0x0, symBinAddr: 0x10001C0C8, symSize: 0x3C }
  - { offsetInCU: 0xE970, offset: 0x1A5119, size: 0x8, addend: 0x0, symName: __ZN8crashpad23MinidumpExceptionWriterC1Ev, symObjAddr: 0x3C, symBinAddr: 0x10001C104, symSize: 0x3C }
  - { offsetInCU: 0xEAF6, offset: 0x1A529F, size: 0x8, addend: 0x0, symName: __ZN8crashpad23MinidumpExceptionWriterD2Ev, symObjAddr: 0x78, symBinAddr: 0x10001C140, symSize: 0x38 }
  - { offsetInCU: 0xEBDC, offset: 0x1A5385, size: 0x8, addend: 0x0, symName: __ZN8crashpad23MinidumpExceptionWriterD1Ev, symObjAddr: 0xB0, symBinAddr: 0x10001C178, symSize: 0x38 }
  - { offsetInCU: 0xECE2, offset: 0x1A548B, size: 0x8, addend: 0x0, symName: __ZN8crashpad23MinidumpExceptionWriterD0Ev, symObjAddr: 0xE8, symBinAddr: 0x10001C1B0, symSize: 0x3C }
  - { offsetInCU: 0xF066, offset: 0x1A580F, size: 0x8, addend: 0x0, symName: __ZN8crashpad23MinidumpExceptionWriter22InitializeFromSnapshotEPKNS_17ExceptionSnapshotERKNSt3__13mapIyjNS4_4lessIyEENS4_9allocatorINS4_4pairIKyjEEEEEEb, symObjAddr: 0x124, symBinAddr: 0x10001C1EC, symSize: 0x158 }
  - { offsetInCU: 0xF4C2, offset: 0x1A5C6B, size: 0x8, addend: 0x0, symName: __ZN8crashpad23MinidumpExceptionWriter23SetExceptionInformationERKNSt3__16vectorIyNS1_9allocatorIyEEEE, symObjAddr: 0x27C, symBinAddr: 0x10001C344, symSize: 0x140 }
  - { offsetInCU: 0xF603, offset: 0x1A5DAC, size: 0x8, addend: 0x0, symName: __ZN8crashpad23MinidumpExceptionWriter10SetContextENSt3__110unique_ptrINS_21MinidumpContextWriterENS1_14default_deleteIS3_EEEE, symObjAddr: 0x3BC, symBinAddr: 0x10001C484, symSize: 0x28 }
  - { offsetInCU: 0xF7B4, offset: 0x1A5F5D, size: 0x8, addend: 0x0, symName: __ZN8crashpad23MinidumpExceptionWriter6FreezeEv, symObjAddr: 0x3E4, symBinAddr: 0x10001C4AC, symSize: 0xCC }
  - { offsetInCU: 0xF8B1, offset: 0x1A605A, size: 0x8, addend: 0x0, symName: __ZN8crashpad23MinidumpExceptionWriter12SizeOfObjectEv, symObjAddr: 0x4B0, symBinAddr: 0x10001C578, symSize: 0x8 }
  - { offsetInCU: 0xFAB3, offset: 0x1A625C, size: 0x8, addend: 0x0, symName: __ZN8crashpad23MinidumpExceptionWriter8ChildrenEv, symObjAddr: 0x4B8, symBinAddr: 0x10001C580, symSize: 0x3C }
  - { offsetInCU: 0xFD0C, offset: 0x1A64B5, size: 0x8, addend: 0x0, symName: __ZN8crashpad23MinidumpExceptionWriter11WriteObjectEPNS_19FileWriterInterfaceE, symObjAddr: 0x4F4, symBinAddr: 0x10001C5BC, symSize: 0x1C }
  - { offsetInCU: 0xFD60, offset: 0x1A6509, size: 0x8, addend: 0x0, symName: __ZNK8crashpad23MinidumpExceptionWriter10StreamTypeEv, symObjAddr: 0x510, symBinAddr: 0x10001C5D8, symSize: 0x8 }
  - { offsetInCU: 0x102AE, offset: 0x1A6A57, size: 0x8, addend: 0x0, symName: __ZN7logging17MakeCheckOpStringImmEEPNSt3__112basic_stringIcNS1_11char_traitsIcEENS1_9allocatorIcEEEERKT_RKT0_PKc, symObjAddr: 0x8A4, symBinAddr: 0x10001C5E0, symSize: 0x2A0 }
  - { offsetInCU: 0x10647, offset: 0x1A6DF0, size: 0x8, addend: 0x0, symName: __ZNSt3__119basic_ostringstreamIcNS_11char_traitsIcEENS_9allocatorIcEEED1Ev, symObjAddr: 0xB44, symBinAddr: 0x10001C880, symSize: 0x84 }
  - { offsetInCU: 0x2C799, offset: 0x1D3758, size: 0x8, addend: 0x0, symName: __ZN8crashpad18MinidumpFileWriterC2Ev, symObjAddr: 0x0, symBinAddr: 0x10001C904, symSize: 0x4C }
  - { offsetInCU: 0x2C8FF, offset: 0x1D38BE, size: 0x8, addend: 0x0, symName: __ZN8crashpad18MinidumpFileWriterC1Ev, symObjAddr: 0x4C, symBinAddr: 0x10001C950, symSize: 0x4C }
  - { offsetInCU: 0x2CCA0, offset: 0x1D3C5F, size: 0x8, addend: 0x0, symName: __ZN8crashpad18MinidumpFileWriterD2Ev, symObjAddr: 0x98, symBinAddr: 0x10001C99C, symSize: 0x80 }
  - { offsetInCU: 0x2CFD8, offset: 0x1D3F97, size: 0x8, addend: 0x0, symName: __ZNSt3__16__treeIN8crashpad18MinidumpStreamTypeENS_4lessIS2_EENS_9allocatorIS2_EEE7destroyEPNS_11__tree_nodeIS2_PvEE, symObjAddr: 0x21B0, symBinAddr: 0x10001E9E4, symSize: 0x40 }
  - { offsetInCU: 0x2D13C, offset: 0x1D40FB, size: 0x8, addend: 0x0, symName: __ZN8crashpad18MinidumpFileWriterD1Ev, symObjAddr: 0x118, symBinAddr: 0x10001CA1C, symSize: 0x80 }
  - { offsetInCU: 0x2D4B0, offset: 0x1D446F, size: 0x8, addend: 0x0, symName: __ZN8crashpad18MinidumpFileWriterD0Ev, symObjAddr: 0x198, symBinAddr: 0x10001CA9C, symSize: 0x84 }
  - { offsetInCU: 0x3061A, offset: 0x1D75D9, size: 0x8, addend: 0x0, symName: __ZN8crashpad18MinidumpFileWriter22InitializeFromSnapshotEPKNS_15ProcessSnapshotE, symObjAddr: 0x21C, symBinAddr: 0x10001CB20, symSize: 0x1010 }
  - { offsetInCU: 0x35C2F, offset: 0x1DCBEE, size: 0x8, addend: 0x0, symName: __ZN8crashpad18MinidumpFileWriter9AddStreamENSt3__110unique_ptrINS_8internal20MinidumpStreamWriterENS1_14default_deleteIS4_EEEE, symObjAddr: 0x1234, symBinAddr: 0x10001DB38, symSize: 0x180 }
  - { offsetInCU: 0x3611B, offset: 0x1DD0DA, size: 0x8, addend: 0x0, symName: __ZNSt3__16__treeINS_12__value_typeIyjEENS_19__map_value_compareIyS2_NS_4lessIyEELb1EEENS_9allocatorIS2_EEE7destroyEPNS_11__tree_nodeIS2_PvEE, symObjAddr: 0x24FC, symBinAddr: 0x10001EA24, symSize: 0x40 }
  - { offsetInCU: 0x36265, offset: 0x1DD224, size: 0x8, addend: 0x0, symName: __ZNKSt3__16vectorINS_10unique_ptrIN8crashpad8internal20MinidumpStreamWriterENS_14default_deleteIS4_EEEENS_9allocatorIS7_EEE20__throw_length_errorB8ue170006Ev, symObjAddr: 0x20D8, symBinAddr: 0x10001E9D0, symSize: 0x14 }
  - { offsetInCU: 0x3629A, offset: 0x1DD259, size: 0x8, addend: 0x0, symName: __ZNSt3__110unique_ptrIN8crashpad28MinidumpThreadNameListWriterENS_14default_deleteIS2_EEED1B8ue170006Ev, symObjAddr: 0x13B4, symBinAddr: 0x10001DCB8, symSize: 0x34 }
  - { offsetInCU: 0x3633B, offset: 0x1DD2FA, size: 0x8, addend: 0x0, symName: __ZNSt3__110unique_ptrIN8crashpad24MinidumpHandleDataWriterENS_14default_deleteIS2_EEED1B8ue170006Ev, symObjAddr: 0x1484, symBinAddr: 0x10001DD88, symSize: 0x34 }
  - { offsetInCU: 0x363DC, offset: 0x1DD39B, size: 0x8, addend: 0x0, symName: __ZNSt3__110unique_ptrIN8crashpad28MinidumpMemoryInfoListWriterENS_14default_deleteIS2_EEED1B8ue170006Ev, symObjAddr: 0x1450, symBinAddr: 0x10001DD54, symSize: 0x34 }
  - { offsetInCU: 0x3647D, offset: 0x1DD43C, size: 0x8, addend: 0x0, symName: __ZNSt3__110unique_ptrIN8crashpad32MinidumpUnloadedModuleListWriterENS_14default_deleteIS2_EEED1B8ue170006Ev, symObjAddr: 0x141C, symBinAddr: 0x10001DD20, symSize: 0x34 }
  - { offsetInCU: 0x3651E, offset: 0x1DD4DD, size: 0x8, addend: 0x0, symName: __ZNSt3__110unique_ptrIN8crashpad23MinidumpExceptionWriterENS_14default_deleteIS2_EEED1B8ue170006Ev, symObjAddr: 0x13E8, symBinAddr: 0x10001DCEC, symSize: 0x34 }
  - { offsetInCU: 0x365BF, offset: 0x1DD57E, size: 0x8, addend: 0x0, symName: __ZNSt3__110unique_ptrIN8crashpad24MinidumpUserStreamWriterENS_14default_deleteIS2_EEED1B8ue170006Ev, symObjAddr: 0x14B8, symBinAddr: 0x10001DDBC, symSize: 0x34 }
  - { offsetInCU: 0x36658, offset: 0x1DD617, size: 0x8, addend: 0x0, symName: __ZNSt3__16vectorIN8crashpad14HandleSnapshotENS_9allocatorIS2_EEED1B8ue170006Ev, symObjAddr: 0x14EC, symBinAddr: 0x10001DDF0, symSize: 0x58 }
  - { offsetInCU: 0x36816, offset: 0x1DD7D5, size: 0x8, addend: 0x0, symName: __ZNSt3__110unique_ptrIN8crashpad26MinidumpCrashpadInfoWriterENS_14default_deleteIS2_EEED1B8ue170006Ev, symObjAddr: 0x1544, symBinAddr: 0x10001DE48, symSize: 0x34 }
  - { offsetInCU: 0x368AF, offset: 0x1DD86E, size: 0x8, addend: 0x0, symName: __ZNSt3__16vectorIN8crashpad22UnloadedModuleSnapshotENS_9allocatorIS2_EEED1B8ue170006Ev, symObjAddr: 0x1578, symBinAddr: 0x10001DE7C, symSize: 0x58 }
  - { offsetInCU: 0x36A6D, offset: 0x1DDA2C, size: 0x8, addend: 0x0, symName: __ZNSt3__110unique_ptrIN8crashpad24MinidumpModuleListWriterENS_14default_deleteIS2_EEED1B8ue170006Ev, symObjAddr: 0x15D0, symBinAddr: 0x10001DED4, symSize: 0x34 }
  - { offsetInCU: 0x36B06, offset: 0x1DDAC5, size: 0x8, addend: 0x0, symName: __ZNSt3__110unique_ptrIN8crashpad24MinidumpThreadListWriterENS_14default_deleteIS2_EEED1B8ue170006Ev, symObjAddr: 0x1604, symBinAddr: 0x10001DF08, symSize: 0x34 }
  - { offsetInCU: 0x36B9F, offset: 0x1DDB5E, size: 0x8, addend: 0x0, symName: __ZNSt3__110unique_ptrIN8crashpad24MinidumpMemoryListWriterENS_14default_deleteIS2_EEED1B8ue170006Ev, symObjAddr: 0x1638, symBinAddr: 0x10001DF3C, symSize: 0x34 }
  - { offsetInCU: 0x36C40, offset: 0x1DDBFF, size: 0x8, addend: 0x0, symName: __ZNSt3__110unique_ptrIN8crashpad22MinidumpMiscInfoWriterENS_14default_deleteIS2_EEED1B8ue170006Ev, symObjAddr: 0x166C, symBinAddr: 0x10001DF70, symSize: 0x34 }
  - { offsetInCU: 0x36CD9, offset: 0x1DDC98, size: 0x8, addend: 0x0, symName: __ZNSt3__110unique_ptrIN8crashpad24MinidumpSystemInfoWriterENS_14default_deleteIS2_EEED1B8ue170006Ev, symObjAddr: 0x16A0, symBinAddr: 0x10001DFA4, symSize: 0x34 }
  - { offsetInCU: 0x36D72, offset: 0x1DDD31, size: 0x8, addend: 0x0, symName: __ZN8crashpad18MinidumpFileWriter12SetTimestampEl, symObjAddr: 0x122C, symBinAddr: 0x10001DB30, symSize: 0x8 }
  - { offsetInCU: 0x36E51, offset: 0x1DDE10, size: 0x8, addend: 0x0, symName: __ZNSt3__16vectorINS_10unique_ptrIN8crashpad8internal20MinidumpStreamWriterENS_14default_deleteIS4_EEEENS_9allocatorIS7_EEE21__push_back_slow_pathIS7_EEvOT_, symObjAddr: 0x1FB0, symBinAddr: 0x10001E8A8, symSize: 0x128 }
  - { offsetInCU: 0x374F8, offset: 0x1DE4B7, size: 0x8, addend: 0x0, symName: __ZNKSt3__16vectorINS_10unique_ptrIN8crashpad8internal20MinidumpStreamWriterENS_14default_deleteIS4_EEEENS_9allocatorIS7_EEE20__throw_length_errorB8ue170006Ev, symObjAddr: 0x20D8, symBinAddr: 0x10001E9D0, symSize: 0x14 }
  - { offsetInCU: 0x3795E, offset: 0x1DE91D, size: 0x8, addend: 0x0, symName: __ZN8crashpad18MinidumpFileWriter22AddUserExtensionStreamENSt3__110unique_ptrINS_37MinidumpUserExtensionStreamDataSourceENS1_14default_deleteIS3_EEEE, symObjAddr: 0x16D4, symBinAddr: 0x10001DFD8, symSize: 0xF8 }
  - { offsetInCU: 0x37E8C, offset: 0x1DEE4B, size: 0x8, addend: 0x0, symName: __ZN8crashpad18MinidumpFileWriter15WriteEverythingEPNS_19FileWriterInterfaceE, symObjAddr: 0x17CC, symBinAddr: 0x10001E0D0, symSize: 0x110 }
  - { offsetInCU: 0x37F87, offset: 0x1DEF46, size: 0x8, addend: 0x0, symName: __ZN8crashpad18MinidumpFileWriter13WriteMinidumpEPNS_19FileWriterInterfaceEb, symObjAddr: 0x18DC, symBinAddr: 0x10001E1E0, symSize: 0x140 }
  - { offsetInCU: 0x3808E, offset: 0x1DF04D, size: 0x8, addend: 0x0, symName: __ZN8crashpad18MinidumpFileWriter6FreezeEv, symObjAddr: 0x1A1C, symBinAddr: 0x10001E320, symSize: 0x150 }
  - { offsetInCU: 0x3828C, offset: 0x1DF24B, size: 0x8, addend: 0x0, symName: __ZN8crashpad18MinidumpFileWriter12SizeOfObjectEv, symObjAddr: 0x1B6C, symBinAddr: 0x10001E470, symSize: 0x1C }
  - { offsetInCU: 0x382B8, offset: 0x1DF277, size: 0x8, addend: 0x0, symName: __ZN8crashpad18MinidumpFileWriter12SizeOfObjectEv, symObjAddr: 0x1B6C, symBinAddr: 0x10001E470, symSize: 0x1C }
  - { offsetInCU: 0x38787, offset: 0x1DF746, size: 0x8, addend: 0x0, symName: __ZN8crashpad18MinidumpFileWriter8ChildrenEv, symObjAddr: 0x1B88, symBinAddr: 0x10001E48C, symSize: 0x17C }
  - { offsetInCU: 0x38E7C, offset: 0x1DFE3B, size: 0x8, addend: 0x0, symName: __ZN8crashpad18MinidumpFileWriter21WillWriteAtOffsetImplEx, symObjAddr: 0x1D04, symBinAddr: 0x10001E608, symSize: 0xC8 }
  - { offsetInCU: 0x394F6, offset: 0x1E04B5, size: 0x8, addend: 0x0, symName: __ZN8crashpad18MinidumpFileWriter11WriteObjectEPNS_19FileWriterInterfaceE, symObjAddr: 0x1DCC, symBinAddr: 0x10001E6D0, symSize: 0x1D8 }
  - { offsetInCU: 0x39F40, offset: 0x1E0EFF, size: 0x8, addend: 0x0, symName: __ZNSt3__16__treeIN8crashpad18MinidumpStreamTypeENS_4lessIS2_EENS_9allocatorIS2_EEE7destroyEPNS_11__tree_nodeIS2_PvEE, symObjAddr: 0x21B0, symBinAddr: 0x10001E9E4, symSize: 0x40 }
  - { offsetInCU: 0x3A41B, offset: 0x1E13DA, size: 0x8, addend: 0x0, symName: __ZNSt3__16__treeINS_12__value_typeIyjEENS_19__map_value_compareIyS2_NS_4lessIyEELb1EEENS_9allocatorIS2_EEE7destroyEPNS_11__tree_nodeIS2_PvEE, symObjAddr: 0x24FC, symBinAddr: 0x10001EA24, symSize: 0x40 }
  - { offsetInCU: 0x11C5B, offset: 0x1F3534, size: 0x8, addend: 0x0, symName: __ZN8crashpad24MinidumpHandleDataWriterC2Ev, symObjAddr: 0x0, symBinAddr: 0x10001EA64, symSize: 0x38 }
  - { offsetInCU: 0x11DD1, offset: 0x1F36AA, size: 0x8, addend: 0x0, symName: __ZN8crashpad24MinidumpHandleDataWriterC1Ev, symObjAddr: 0x38, symBinAddr: 0x10001EA9C, symSize: 0x38 }
  - { offsetInCU: 0x12173, offset: 0x1F3A4C, size: 0x8, addend: 0x0, symName: __ZN8crashpad24MinidumpHandleDataWriterD2Ev, symObjAddr: 0x70, symBinAddr: 0x10001EAD4, symSize: 0xA4 }
  - { offsetInCU: 0x12506, offset: 0x1F3DDF, size: 0x8, addend: 0x0, symName: __ZNSt3__16__treeINS_12__value_typeINS_12basic_stringIcNS_11char_traitsIcEENS_9allocatorIcEEEEPN8crashpad8internal25MinidumpUTF16StringWriterEEENS_19__map_value_compareIS7_SC_NS_4lessIS7_EELb1EEENS5_ISC_EEE7destroyEPNS_11__tree_nodeISC_PvEE, symObjAddr: 0xB8C, symBinAddr: 0x10001F50C, symSize: 0x60 }
  - { offsetInCU: 0x127C7, offset: 0x1F40A0, size: 0x8, addend: 0x0, symName: __ZN8crashpad24MinidumpHandleDataWriterD1Ev, symObjAddr: 0x120, symBinAddr: 0x10001EB78, symSize: 0x4 }
  - { offsetInCU: 0x127EB, offset: 0x1F40C4, size: 0x8, addend: 0x0, symName: __ZN8crashpad24MinidumpHandleDataWriterD1Ev, symObjAddr: 0x120, symBinAddr: 0x10001EB78, symSize: 0x4 }
  - { offsetInCU: 0x12819, offset: 0x1F40F2, size: 0x8, addend: 0x0, symName: __ZN8crashpad24MinidumpHandleDataWriterD0Ev, symObjAddr: 0x124, symBinAddr: 0x10001EB7C, symSize: 0x14 }
  - { offsetInCU: 0x1329F, offset: 0x1F4B78, size: 0x8, addend: 0x0, symName: __ZN8crashpad24MinidumpHandleDataWriter22InitializeFromSnapshotERKNSt3__16vectorINS_14HandleSnapshotENS1_9allocatorIS3_EEEE, symObjAddr: 0x138, symBinAddr: 0x10001EB90, symSize: 0x3CC }
  - { offsetInCU: 0x141B7, offset: 0x1F5A90, size: 0x8, addend: 0x0, symName: __ZNSt3__16vectorI26MINIDUMP_HANDLE_DESCRIPTORNS_9allocatorIS1_EEE8__appendEm, symObjAddr: 0x97C, symBinAddr: 0x10001F3D4, symSize: 0x124 }
  - { offsetInCU: 0x146C0, offset: 0x1F5F99, size: 0x8, addend: 0x0, symName: __ZNKSt3__16vectorI26MINIDUMP_HANDLE_DESCRIPTORNS_9allocatorIS1_EEE20__throw_length_errorB8ue170006Ev, symObjAddr: 0xAA0, symBinAddr: 0x10001F4F8, symSize: 0x14 }
  - { offsetInCU: 0x146CB, offset: 0x1F5FA4, size: 0x8, addend: 0x0, symName: __ZNSt3__16__treeINS_12__value_typeINS_12basic_stringIcNS_11char_traitsIcEENS_9allocatorIcEEEEPN8crashpad8internal25MinidumpUTF16StringWriterEEENS_19__map_value_compareIS7_SC_NS_4lessIS7_EELb1EEENS5_ISC_EEE12__find_equalIS7_EERPNS_16__tree_node_baseIPvEENS_21__tree_const_iteratorISC_PNS_11__tree_nodeISC_SL_EElEERPNS_15__tree_end_nodeISN_EESO_RKT_, symObjAddr: 0xEE4, symBinAddr: 0x10001F56C, symSize: 0x3A8 }
  - { offsetInCU: 0x154F2, offset: 0x1F6DCB, size: 0x8, addend: 0x0, symName: __ZN8crashpad24MinidumpHandleDataWriter6FreezeEv, symObjAddr: 0x504, symBinAddr: 0x10001EF5C, symSize: 0xE0 }
  - { offsetInCU: 0x155FB, offset: 0x1F6ED4, size: 0x8, addend: 0x0, symName: __ZN8crashpad24MinidumpHandleDataWriter12SizeOfObjectEv, symObjAddr: 0x5E4, symBinAddr: 0x10001F03C, symSize: 0x10 }
  - { offsetInCU: 0x15626, offset: 0x1F6EFF, size: 0x8, addend: 0x0, symName: __ZN8crashpad24MinidumpHandleDataWriter12SizeOfObjectEv, symObjAddr: 0x5E4, symBinAddr: 0x10001F03C, symSize: 0x10 }
  - { offsetInCU: 0x15AB0, offset: 0x1F7389, size: 0x8, addend: 0x0, symName: __ZN8crashpad24MinidumpHandleDataWriter8ChildrenEv, symObjAddr: 0x5F4, symBinAddr: 0x10001F04C, symSize: 0x1B4 }
  - { offsetInCU: 0x167B0, offset: 0x1F8089, size: 0x8, addend: 0x0, symName: __ZN8crashpad24MinidumpHandleDataWriter11WriteObjectEPNS_19FileWriterInterfaceE, symObjAddr: 0x7A8, symBinAddr: 0x10001F200, symSize: 0x1CC }
  - { offsetInCU: 0x171CE, offset: 0x1F8AA7, size: 0x8, addend: 0x0, symName: __ZNSt3__16__treeINS_12__value_typeINS_12basic_stringIcNS_11char_traitsIcEENS_9allocatorIcEEEEPN8crashpad8internal25MinidumpUTF16StringWriterEEENS_19__map_value_compareIS7_SC_NS_4lessIS7_EELb1EEENS5_ISC_EEE7destroyEPNS_11__tree_nodeISC_PvEE, symObjAddr: 0xB8C, symBinAddr: 0x10001F50C, symSize: 0x60 }
  - { offsetInCU: 0x171D9, offset: 0x1F8AB2, size: 0x8, addend: 0x0, symName: __ZNK8crashpad24MinidumpHandleDataWriter10StreamTypeEv, symObjAddr: 0x974, symBinAddr: 0x10001F3CC, symSize: 0x8 }
  - { offsetInCU: 0x17527, offset: 0x1F8E00, size: 0x8, addend: 0x0, symName: __ZNKSt3__16vectorI26MINIDUMP_HANDLE_DESCRIPTORNS_9allocatorIS1_EEE20__throw_length_errorB8ue170006Ev, symObjAddr: 0xAA0, symBinAddr: 0x10001F4F8, symSize: 0x14 }
  - { offsetInCU: 0x26, offset: 0x1F93C1, size: 0x8, addend: 0x0, symName: __ZN8crashpad28MinidumpMemoryInfoListWriterC2Ev, symObjAddr: 0x0, symBinAddr: 0x10001F914, symSize: 0x2C }
  - { offsetInCU: 0x99AC, offset: 0x202D47, size: 0x8, addend: 0x0, symName: __ZN8crashpad28MinidumpMemoryInfoListWriterC2Ev, symObjAddr: 0x0, symBinAddr: 0x10001F914, symSize: 0x2C }
  - { offsetInCU: 0x9A32, offset: 0x202DCD, size: 0x8, addend: 0x0, symName: __ZN8crashpad28MinidumpMemoryInfoListWriterC1Ev, symObjAddr: 0x2C, symBinAddr: 0x10001F940, symSize: 0x2C }
  - { offsetInCU: 0x9BB7, offset: 0x202F52, size: 0x8, addend: 0x0, symName: __ZN8crashpad28MinidumpMemoryInfoListWriterD2Ev, symObjAddr: 0x58, symBinAddr: 0x10001F96C, symSize: 0x30 }
  - { offsetInCU: 0x9D4B, offset: 0x2030E6, size: 0x8, addend: 0x0, symName: __ZN8crashpad28MinidumpMemoryInfoListWriterD1Ev, symObjAddr: 0x88, symBinAddr: 0x10001F99C, symSize: 0x30 }
  - { offsetInCU: 0x9F00, offset: 0x20329B, size: 0x8, addend: 0x0, symName: __ZN8crashpad28MinidumpMemoryInfoListWriterD0Ev, symObjAddr: 0xB8, symBinAddr: 0x10001F9CC, symSize: 0x34 }
  - { offsetInCU: 0xA465, offset: 0x203800, size: 0x8, addend: 0x0, symName: __ZN8crashpad28MinidumpMemoryInfoListWriter22InitializeFromSnapshotERKNSt3__16vectorIPKNS_23MemoryMapRegionSnapshotENS1_9allocatorIS5_EEEE, symObjAddr: 0xEC, symBinAddr: 0x10001FA00, symSize: 0x178 }
  - { offsetInCU: 0xAA24, offset: 0x203DBF, size: 0x8, addend: 0x0, symName: __ZN8crashpad28MinidumpMemoryInfoListWriter6FreezeEv, symObjAddr: 0x264, symBinAddr: 0x10001FB78, symSize: 0x4C }
  - { offsetInCU: 0xAA2F, offset: 0x203DCA, size: 0x8, addend: 0x0, symName: __ZNKSt3__16vectorI20MINIDUMP_MEMORY_INFONS_9allocatorIS1_EEE20__throw_length_errorB8ue170006Ev, symObjAddr: 0x4A0, symBinAddr: 0x10001FDB4, symSize: 0x14 }
  - { offsetInCU: 0xAA64, offset: 0x203DFF, size: 0x8, addend: 0x0, symName: __ZN8crashpad28MinidumpMemoryInfoListWriter6FreezeEv, symObjAddr: 0x264, symBinAddr: 0x10001FB78, symSize: 0x4C }
  - { offsetInCU: 0xAAAE, offset: 0x203E49, size: 0x8, addend: 0x0, symName: __ZN8crashpad28MinidumpMemoryInfoListWriter12SizeOfObjectEv, symObjAddr: 0x2B0, symBinAddr: 0x10001FBC4, symSize: 0x10 }
  - { offsetInCU: 0xAADA, offset: 0x203E75, size: 0x8, addend: 0x0, symName: __ZN8crashpad28MinidumpMemoryInfoListWriter12SizeOfObjectEv, symObjAddr: 0x2B0, symBinAddr: 0x10001FBC4, symSize: 0x10 }
  - { offsetInCU: 0xAB2C, offset: 0x203EC7, size: 0x8, addend: 0x0, symName: __ZN8crashpad28MinidumpMemoryInfoListWriter8ChildrenEv, symObjAddr: 0x2C0, symBinAddr: 0x10001FBD4, symSize: 0xC }
  - { offsetInCU: 0xAB54, offset: 0x203EEF, size: 0x8, addend: 0x0, symName: __ZN8crashpad28MinidumpMemoryInfoListWriter8ChildrenEv, symObjAddr: 0x2C0, symBinAddr: 0x10001FBD4, symSize: 0xC }
  - { offsetInCU: 0xAB71, offset: 0x203F0C, size: 0x8, addend: 0x0, symName: __ZN8crashpad28MinidumpMemoryInfoListWriter8ChildrenEv, symObjAddr: 0x2C0, symBinAddr: 0x10001FBD4, symSize: 0xC }
  - { offsetInCU: 0xB102, offset: 0x20449D, size: 0x8, addend: 0x0, symName: __ZN8crashpad28MinidumpMemoryInfoListWriter11WriteObjectEPNS_19FileWriterInterfaceE, symObjAddr: 0x2CC, symBinAddr: 0x10001FBE0, symSize: 0x1CC }
  - { offsetInCU: 0xBB2B, offset: 0x204EC6, size: 0x8, addend: 0x0, symName: __ZNK8crashpad28MinidumpMemoryInfoListWriter10StreamTypeEv, symObjAddr: 0x498, symBinAddr: 0x10001FDAC, symSize: 0x8 }
  - { offsetInCU: 0xEE9F, offset: 0x213DF2, size: 0x8, addend: 0x0, symName: '__ZNSt3__111__introsortINS_17_ClassicAlgPolicyERZN8crashpad24MinidumpMemoryListWriter19CoalesceOwnedMemoryEvE3$_0PNS_10unique_ptrINS2_28SnapshotMinidumpMemoryWriterENS_14default_deleteIS7_EEEELb0EEEvT1_SC_T0_NS_15iterator_traitsISC_E15difference_typeEb', symObjAddr: 0x16A4, symBinAddr: 0x1000213B0, symSize: 0x11E0 }
  - { offsetInCU: 0x10FCC, offset: 0x215F1F, size: 0x8, addend: 0x0, symName: '__ZNSt3__127__insertion_sort_incompleteB8ue170006INS_17_ClassicAlgPolicyERZN8crashpad24MinidumpMemoryListWriter19CoalesceOwnedMemoryEvE3$_0PNS_10unique_ptrINS2_28SnapshotMinidumpMemoryWriterENS_14default_deleteIS7_EEEEEEbT1_SC_T0_', symObjAddr: 0x2D20, symBinAddr: 0x100022A2C, symSize: 0x338 }
  - { offsetInCU: 0x15B8A, offset: 0x21AADD, size: 0x8, addend: 0x0, symName: '__ZNSt3__17__sort3B8ue170006INS_17_ClassicAlgPolicyERZN8crashpad24MinidumpMemoryListWriter19CoalesceOwnedMemoryEvE3$_0PNS_10unique_ptrINS2_28SnapshotMinidumpMemoryWriterENS_14default_deleteIS7_EEEEEEjT1_SC_SC_T0_', symObjAddr: 0x2ACC, symBinAddr: 0x1000227D8, symSize: 0x254 }
  - { offsetInCU: 0x16212, offset: 0x21B165, size: 0x8, addend: 0x0, symName: '__ZNSt3__17__sort4B8ue170006INS_17_ClassicAlgPolicyERZN8crashpad24MinidumpMemoryListWriter19CoalesceOwnedMemoryEvE3$_0PNS_10unique_ptrINS2_28SnapshotMinidumpMemoryWriterENS_14default_deleteIS7_EEEEEEvT1_SC_SC_SC_T0_', symObjAddr: 0x3058, symBinAddr: 0x100022D64, symSize: 0x1C4 }
  - { offsetInCU: 0x166B3, offset: 0x21B606, size: 0x8, addend: 0x0, symName: '__ZNSt3__124__sort5_maybe_branchlessB8ue170006INS_17_ClassicAlgPolicyERZN8crashpad24MinidumpMemoryListWriter19CoalesceOwnedMemoryEvE3$_0PNS_10unique_ptrINS2_28SnapshotMinidumpMemoryWriterENS_14default_deleteIS7_EEEEEENS_9enable_ifIXntsr21__use_branchless_sortIT0_T1_EE5valueEvE4typeESE_SE_SE_SE_SE_SD_', symObjAddr: 0x2884, symBinAddr: 0x100022590, symSize: 0x248 }
  - { offsetInCU: 0x1A47F, offset: 0x21F3D2, size: 0x8, addend: 0x0, symName: __ZN8crashpad28SnapshotMinidumpMemoryWriterC2EPKNS_14MemorySnapshotE, symObjAddr: 0x0, symBinAddr: 0x10001FDC8, symSize: 0x44 }
  - { offsetInCU: 0x1A514, offset: 0x21F467, size: 0x8, addend: 0x0, symName: __ZN8crashpad28SnapshotMinidumpMemoryWriterC1EPKNS_14MemorySnapshotE, symObjAddr: 0x44, symBinAddr: 0x10001FE0C, symSize: 0x44 }
  - { offsetInCU: 0x1A6A2, offset: 0x21F5F5, size: 0x8, addend: 0x0, symName: __ZN8crashpad28SnapshotMinidumpMemoryWriterD2Ev, symObjAddr: 0x88, symBinAddr: 0x10001FE50, symSize: 0x44 }
  - { offsetInCU: 0x1A836, offset: 0x21F789, size: 0x8, addend: 0x0, symName: __ZN8crashpad28SnapshotMinidumpMemoryWriterD1Ev, symObjAddr: 0xCC, symBinAddr: 0x10001FE94, symSize: 0x44 }
  - { offsetInCU: 0x1A9EA, offset: 0x21F93D, size: 0x8, addend: 0x0, symName: __ZThn120_N8crashpad28SnapshotMinidumpMemoryWriterD1Ev, symObjAddr: 0x110, symBinAddr: 0x10001FED8, symSize: 0x48 }
  - { offsetInCU: 0x1AB87, offset: 0x21FADA, size: 0x8, addend: 0x0, symName: __ZN8crashpad28SnapshotMinidumpMemoryWriterD0Ev, symObjAddr: 0x158, symBinAddr: 0x10001FF20, symSize: 0x48 }
  - { offsetInCU: 0x1AD57, offset: 0x21FCAA, size: 0x8, addend: 0x0, symName: __ZThn120_N8crashpad28SnapshotMinidumpMemoryWriterD0Ev, symObjAddr: 0x1A0, symBinAddr: 0x10001FF68, symSize: 0x4C }
  - { offsetInCU: 0x1AF14, offset: 0x21FE67, size: 0x8, addend: 0x0, symName: __ZN8crashpad28SnapshotMinidumpMemoryWriter26MemorySnapshotDelegateReadEPvm, symObjAddr: 0x1EC, symBinAddr: 0x10001FFB4, symSize: 0x10 }
  - { offsetInCU: 0x1AF90, offset: 0x21FEE3, size: 0x8, addend: 0x0, symName: __ZThn120_N8crashpad28SnapshotMinidumpMemoryWriter26MemorySnapshotDelegateReadEPvm, symObjAddr: 0x1FC, symBinAddr: 0x10001FFC4, symSize: 0x10 }
  - { offsetInCU: 0x1AFAA, offset: 0x21FEFD, size: 0x8, addend: 0x0, symName: __ZThn120_N8crashpad28SnapshotMinidumpMemoryWriter26MemorySnapshotDelegateReadEPvm, symObjAddr: 0x1FC, symBinAddr: 0x10001FFC4, symSize: 0x10 }
  - { offsetInCU: 0x1B37E, offset: 0x2202D1, size: 0x8, addend: 0x0, symName: __ZN8crashpad28SnapshotMinidumpMemoryWriter11WriteObjectEPNS_19FileWriterInterfaceE, symObjAddr: 0x20C, symBinAddr: 0x10001FFD4, symSize: 0x114 }
  - { offsetInCU: 0x1B992, offset: 0x2208E5, size: 0x8, addend: 0x0, symName: __ZNK8crashpad28SnapshotMinidumpMemoryWriter24MinidumpMemoryDescriptorEv, symObjAddr: 0x320, symBinAddr: 0x1000200E8, symSize: 0x8 }
  - { offsetInCU: 0x1BCE1, offset: 0x220C34, size: 0x8, addend: 0x0, symName: __ZN8crashpad28SnapshotMinidumpMemoryWriter24RegisterMemoryDescriptorEP26MINIDUMP_MEMORY_DESCRIPTOR, symObjAddr: 0x328, symBinAddr: 0x1000200F0, symSize: 0x110 }
  - { offsetInCU: 0x1C123, offset: 0x221076, size: 0x8, addend: 0x0, symName: __ZN8crashpad28SnapshotMinidumpMemoryWriter6FreezeEv, symObjAddr: 0x438, symBinAddr: 0x100020200, symSize: 0x38 }
  - { offsetInCU: 0x1C12E, offset: 0x221081, size: 0x8, addend: 0x0, symName: __ZNKSt3__16vectorIP26MINIDUMP_MEMORY_DESCRIPTORNS_9allocatorIS2_EEE20__throw_length_errorB8ue170006Ev, symObjAddr: 0x1540, symBinAddr: 0x10002124C, symSize: 0x14 }
  - { offsetInCU: 0x1C158, offset: 0x2210AB, size: 0x8, addend: 0x0, symName: __ZNSt3__16vectorINS_10unique_ptrIN8crashpad28SnapshotMinidumpMemoryWriterENS_14default_deleteIS3_EEEENS_9allocatorIS6_EEE21__push_back_slow_pathIS6_EEvOT_, symObjAddr: 0x1554, symBinAddr: 0x100021260, symSize: 0x128 }
  - { offsetInCU: 0x1C163, offset: 0x2210B6, size: 0x8, addend: 0x0, symName: __ZN8crashpad28SnapshotMinidumpMemoryWriter6FreezeEv, symObjAddr: 0x438, symBinAddr: 0x100020200, symSize: 0x38 }
  - { offsetInCU: 0x1C1A8, offset: 0x2210FB, size: 0x8, addend: 0x0, symName: __ZN8crashpad28SnapshotMinidumpMemoryWriter9AlignmentEv, symObjAddr: 0x470, symBinAddr: 0x100020238, symSize: 0x8 }
  - { offsetInCU: 0x1C1E8, offset: 0x22113B, size: 0x8, addend: 0x0, symName: __ZN8crashpad28SnapshotMinidumpMemoryWriter12SizeOfObjectEv, symObjAddr: 0x478, symBinAddr: 0x100020240, symSize: 0x10 }
  - { offsetInCU: 0x1C213, offset: 0x221166, size: 0x8, addend: 0x0, symName: __ZN8crashpad28SnapshotMinidumpMemoryWriter12SizeOfObjectEv, symObjAddr: 0x478, symBinAddr: 0x100020240, symSize: 0x10 }
  - { offsetInCU: 0x1C253, offset: 0x2211A6, size: 0x8, addend: 0x0, symName: __ZN8crashpad28SnapshotMinidumpMemoryWriter21WillWriteAtOffsetImplEx, symObjAddr: 0x488, symBinAddr: 0x100020250, symSize: 0xA8 }
  - { offsetInCU: 0x1C348, offset: 0x22129B, size: 0x8, addend: 0x0, symName: __ZN8crashpad28SnapshotMinidumpMemoryWriter10WritePhaseEv, symObjAddr: 0x530, symBinAddr: 0x1000202F8, symSize: 0x8 }
  - { offsetInCU: 0x1C3C1, offset: 0x221314, size: 0x8, addend: 0x0, symName: __ZN8crashpad24MinidumpMemoryListWriterC2Ev, symObjAddr: 0x538, symBinAddr: 0x100020300, symSize: 0x34 }
  - { offsetInCU: 0x1C446, offset: 0x221399, size: 0x8, addend: 0x0, symName: __ZN8crashpad24MinidumpMemoryListWriterC1Ev, symObjAddr: 0x56C, symBinAddr: 0x100020334, symSize: 0x34 }
  - { offsetInCU: 0x1C91C, offset: 0x22186F, size: 0x8, addend: 0x0, symName: __ZN8crashpad24MinidumpMemoryListWriterD2Ev, symObjAddr: 0x5A0, symBinAddr: 0x100020368, symSize: 0xE0 }
  - { offsetInCU: 0x1D0CD, offset: 0x222020, size: 0x8, addend: 0x0, symName: __ZNSt3__16vectorINS_10unique_ptrIN8crashpad28SnapshotMinidumpMemoryWriterENS_14default_deleteIS3_EEEENS_9allocatorIS6_EEED1B8ue170006Ev, symObjAddr: 0x680, symBinAddr: 0x100020448, symSize: 0x74 }
  - { offsetInCU: 0x1D339, offset: 0x22228C, size: 0x8, addend: 0x0, symName: __ZN8crashpad24MinidumpMemoryListWriterD1Ev, symObjAddr: 0x6F4, symBinAddr: 0x1000204BC, symSize: 0x4 }
  - { offsetInCU: 0x1D35D, offset: 0x2222B0, size: 0x8, addend: 0x0, symName: __ZN8crashpad24MinidumpMemoryListWriterD1Ev, symObjAddr: 0x6F4, symBinAddr: 0x1000204BC, symSize: 0x4 }
  - { offsetInCU: 0x1D38B, offset: 0x2222DE, size: 0x8, addend: 0x0, symName: __ZN8crashpad24MinidumpMemoryListWriterD0Ev, symObjAddr: 0x6F8, symBinAddr: 0x1000204C0, symSize: 0x14 }
  - { offsetInCU: 0x1D68D, offset: 0x2225E0, size: 0x8, addend: 0x0, symName: __ZN8crashpad24MinidumpMemoryListWriter15AddFromSnapshotERKNSt3__16vectorIPKNS_14MemorySnapshotENS1_9allocatorIS5_EEEE, symObjAddr: 0x70C, symBinAddr: 0x1000204D4, symSize: 0x114 }
  - { offsetInCU: 0x1DBED, offset: 0x222B40, size: 0x8, addend: 0x0, symName: __ZNSt3__16vectorINS_10unique_ptrIN8crashpad28SnapshotMinidumpMemoryWriterENS_14default_deleteIS3_EEEENS_9allocatorIS6_EEE21__push_back_slow_pathIS6_EEvOT_, symObjAddr: 0x1554, symBinAddr: 0x100021260, symSize: 0x128 }
  - { offsetInCU: 0x1E2AF, offset: 0x223202, size: 0x8, addend: 0x0, symName: __ZNKSt3__16vectorINS_10unique_ptrIN8crashpad28SnapshotMinidumpMemoryWriterENS_14default_deleteIS3_EEEENS_9allocatorIS6_EEE20__throw_length_errorB8ue170006Ev, symObjAddr: 0x167C, symBinAddr: 0x100021388, symSize: 0x14 }
  - { offsetInCU: 0x1E2C3, offset: 0x223216, size: 0x8, addend: 0x0, symName: __ZN8crashpad24MinidumpMemoryListWriter9AddMemoryENSt3__110unique_ptrINS_28SnapshotMinidumpMemoryWriterENS1_14default_deleteIS3_EEEE, symObjAddr: 0x820, symBinAddr: 0x1000205E8, symSize: 0x28 }
  - { offsetInCU: 0x1E7BE, offset: 0x223711, size: 0x8, addend: 0x0, symName: __ZN8crashpad24MinidumpMemoryListWriter17AddNonOwnedMemoryEPNS_28SnapshotMinidumpMemoryWriterE, symObjAddr: 0x848, symBinAddr: 0x100020610, symSize: 0x118 }
  - { offsetInCU: 0x1EC12, offset: 0x223B65, size: 0x8, addend: 0x0, symName: __ZN8crashpad24MinidumpMemoryListWriter19CoalesceOwnedMemoryEv, symObjAddr: 0x960, symBinAddr: 0x100020728, symSize: 0x318 }
  - { offsetInCU: 0x1EC1D, offset: 0x223B70, size: 0x8, addend: 0x0, symName: __ZNKSt3__16vectorIPN8crashpad28SnapshotMinidumpMemoryWriterENS_9allocatorIS3_EEE20__throw_length_errorB8ue170006Ev, symObjAddr: 0x1690, symBinAddr: 0x10002139C, symSize: 0x14 }
  - { offsetInCU: 0x1EC47, offset: 0x223B9A, size: 0x8, addend: 0x0, symName: '__ZNSt3__111__introsortINS_17_ClassicAlgPolicyERZN8crashpad24MinidumpMemoryListWriter19CoalesceOwnedMemoryEvE3$_0PNS_10unique_ptrINS2_28SnapshotMinidumpMemoryWriterENS_14default_deleteIS7_EEEELb0EEEvT1_SC_T0_NS_15iterator_traitsISC_E15difference_typeEb', symObjAddr: 0x16A4, symBinAddr: 0x1000213B0, symSize: 0x11E0 }
  - { offsetInCU: 0x1EC6D, offset: 0x223BC0, size: 0x8, addend: 0x0, symName: __ZN8crashpad24MinidumpMemoryListWriter19CoalesceOwnedMemoryEv, symObjAddr: 0x960, symBinAddr: 0x100020728, symSize: 0x318 }
  - { offsetInCU: 0x2037A, offset: 0x2252CD, size: 0x8, addend: 0x0, symName: __ZN8crashpad24MinidumpMemoryListWriter29DropRangesThatOverlapNonOwnedEv, symObjAddr: 0xC78, symBinAddr: 0x100020A40, symSize: 0x150 }
  - { offsetInCU: 0x20ABC, offset: 0x225A0F, size: 0x8, addend: 0x0, symName: __ZNSt3__16vectorINS_10unique_ptrIKN8crashpad14MemorySnapshotENS_14default_deleteIS4_EEEENS_9allocatorIS7_EEE21__push_back_slow_pathIS7_EEvOT_, symObjAddr: 0x321C, symBinAddr: 0x100022F28, symSize: 0x128 }
  - { offsetInCU: 0x2117E, offset: 0x2260D1, size: 0x8, addend: 0x0, symName: __ZNKSt3__16vectorINS_10unique_ptrIKN8crashpad14MemorySnapshotENS_14default_deleteIS4_EEEENS_9allocatorIS7_EEE20__throw_length_errorB8ue170006Ev, symObjAddr: 0x3344, symBinAddr: 0x100023050, symSize: 0x14 }
  - { offsetInCU: 0x211C5, offset: 0x226118, size: 0x8, addend: 0x0, symName: __ZNSt3__16vectorINS_10unique_ptrIN8crashpad28SnapshotMinidumpMemoryWriterENS_14default_deleteIS3_EEEENS_9allocatorIS6_EEE7reserveEm, symObjAddr: 0x139C, symBinAddr: 0x100021164, symSize: 0xE8 }
  - { offsetInCU: 0x21985, offset: 0x2268D8, size: 0x8, addend: 0x0, symName: __ZN8crashpad24MinidumpMemoryListWriter6FreezeEv, symObjAddr: 0xDC8, symBinAddr: 0x100020B90, symSize: 0x268 }
  - { offsetInCU: 0x221A1, offset: 0x2270F4, size: 0x8, addend: 0x0, symName: __ZNSt3__120back_insert_iteratorINS_6vectorIPN8crashpad28SnapshotMinidumpMemoryWriterENS_9allocatorIS4_EEEEEaSB8ue170006ERKS4_, symObjAddr: 0x3358, symBinAddr: 0x100023064, symSize: 0xFC }
  - { offsetInCU: 0x22691, offset: 0x2275E4, size: 0x8, addend: 0x0, symName: __ZN8crashpad24MinidumpMemoryListWriter12SizeOfObjectEv, symObjAddr: 0x1030, symBinAddr: 0x100020DF8, symSize: 0x14 }
  - { offsetInCU: 0x226BC, offset: 0x22760F, size: 0x8, addend: 0x0, symName: __ZN8crashpad24MinidumpMemoryListWriter12SizeOfObjectEv, symObjAddr: 0x1030, symBinAddr: 0x100020DF8, symSize: 0x14 }
  - { offsetInCU: 0x22B38, offset: 0x227A8B, size: 0x8, addend: 0x0, symName: __ZN8crashpad24MinidumpMemoryListWriter8ChildrenEv, symObjAddr: 0x1044, symBinAddr: 0x100020E0C, symSize: 0x17C }
  - { offsetInCU: 0x23770, offset: 0x2286C3, size: 0x8, addend: 0x0, symName: __ZN8crashpad24MinidumpMemoryListWriter11WriteObjectEPNS_19FileWriterInterfaceE, symObjAddr: 0x11C0, symBinAddr: 0x100020F88, symSize: 0x1D4 }
  - { offsetInCU: 0x241C5, offset: 0x229118, size: 0x8, addend: 0x0, symName: __ZNK8crashpad24MinidumpMemoryListWriter10StreamTypeEv, symObjAddr: 0x1394, symBinAddr: 0x10002115C, symSize: 0x8 }
  - { offsetInCU: 0x24370, offset: 0x2292C3, size: 0x8, addend: 0x0, symName: __ZNKSt3__16vectorINS_10unique_ptrIN8crashpad28SnapshotMinidumpMemoryWriterENS_14default_deleteIS3_EEEENS_9allocatorIS6_EEE20__throw_length_errorB8ue170006Ev, symObjAddr: 0x167C, symBinAddr: 0x100021388, symSize: 0x14 }
  - { offsetInCU: 0x2439A, offset: 0x2292ED, size: 0x8, addend: 0x0, symName: __ZNKSt3__16vectorIPN8crashpad28SnapshotMinidumpMemoryWriterENS_9allocatorIS3_EEE20__throw_length_errorB8ue170006Ev, symObjAddr: 0x1690, symBinAddr: 0x10002139C, symSize: 0x14 }
  - { offsetInCU: 0x2474E, offset: 0x2296A1, size: 0x8, addend: 0x0, symName: __ZNKSt3__16vectorINS_10unique_ptrIKN8crashpad14MemorySnapshotENS_14default_deleteIS4_EEEENS_9allocatorIS7_EEE20__throw_length_errorB8ue170006Ev, symObjAddr: 0x3344, symBinAddr: 0x100023050, symSize: 0x14 }
  - { offsetInCU: 0x24778, offset: 0x2296CB, size: 0x8, addend: 0x0, symName: __ZNSt3__120back_insert_iteratorINS_6vectorIPN8crashpad28SnapshotMinidumpMemoryWriterENS_9allocatorIS4_EEEEEaSB8ue170006ERKS4_, symObjAddr: 0x3358, symBinAddr: 0x100023064, symSize: 0xFC }
  - { offsetInCU: 0x3D, offset: 0x22A079, size: 0x8, addend: 0x0, symName: __ZN8crashpad8internal32MinidumpMiscInfoDebugBuildStringEv, symObjAddr: 0x0, symBinAddr: 0x100023160, symSize: 0x110 }
  - { offsetInCU: 0x67, offset: 0x22A0A3, size: 0x8, addend: 0x0, symName: __ZZN8crashpad8internal32MinidumpMiscInfoDebugBuildStringEvE3kOS, symObjAddr: 0x1188, symBinAddr: 0x10007BC1B, symSize: 0x0 }
  - { offsetInCU: 0x7D, offset: 0x22A0B9, size: 0x8, addend: 0x0, symName: __ZZN8crashpad8internal32MinidumpMiscInfoDebugBuildStringEvE4kCPU, symObjAddr: 0x118C, symBinAddr: 0x10007BC1F, symSize: 0x0 }
  - { offsetInCU: 0x5DE, offset: 0x22A61A, size: 0x8, addend: 0x0, symName: __ZN8crashpad12_GLOBAL__N_123TimevalToRoundedSecondsERK7timeval, symObjAddr: 0x8E8, symBinAddr: 0x100023A48, symSize: 0xE8 }
  - { offsetInCU: 0x8278, offset: 0x2322B4, size: 0x8, addend: 0x0, symName: __ZN8crashpad22MinidumpMiscInfoWriterC2Ev, symObjAddr: 0x110, symBinAddr: 0x100023270, symSize: 0x38 }
  - { offsetInCU: 0x82BC, offset: 0x2322F8, size: 0x8, addend: 0x0, symName: __ZN8crashpad22MinidumpMiscInfoWriterC1Ev, symObjAddr: 0x148, symBinAddr: 0x1000232A8, symSize: 0x38 }
  - { offsetInCU: 0x8307, offset: 0x232343, size: 0x8, addend: 0x0, symName: __ZN8crashpad22MinidumpMiscInfoWriterD2Ev, symObjAddr: 0x180, symBinAddr: 0x1000232E0, symSize: 0x4 }
  - { offsetInCU: 0x8344, offset: 0x232380, size: 0x8, addend: 0x0, symName: __ZN8crashpad22MinidumpMiscInfoWriterD1Ev, symObjAddr: 0x184, symBinAddr: 0x1000232E4, symSize: 0x4 }
  - { offsetInCU: 0x8367, offset: 0x2323A3, size: 0x8, addend: 0x0, symName: __ZN8crashpad22MinidumpMiscInfoWriterD1Ev, symObjAddr: 0x184, symBinAddr: 0x1000232E4, symSize: 0x4 }
  - { offsetInCU: 0x839F, offset: 0x2323DB, size: 0x8, addend: 0x0, symName: __ZN8crashpad22MinidumpMiscInfoWriterD0Ev, symObjAddr: 0x188, symBinAddr: 0x1000232E8, symSize: 0x14 }
  - { offsetInCU: 0x88F1, offset: 0x23292D, size: 0x8, addend: 0x0, symName: __ZN8crashpad22MinidumpMiscInfoWriter22InitializeFromSnapshotEPKNS_15ProcessSnapshotE, symObjAddr: 0x19C, symBinAddr: 0x1000232FC, symSize: 0x720 }
  - { offsetInCU: 0xA5A8, offset: 0x2345E4, size: 0x8, addend: 0x0, symName: __ZN8crashpad22MinidumpMiscInfoWriter12SetProcessIDEj, symObjAddr: 0x8BC, symBinAddr: 0x100023A1C, symSize: 0x10 }
  - { offsetInCU: 0xA5D1, offset: 0x23460D, size: 0x8, addend: 0x0, symName: __ZN8crashpad22MinidumpMiscInfoWriter21SetProcessorPowerInfoEjjjjj, symObjAddr: 0x8CC, symBinAddr: 0x100023A2C, symSize: 0x1C }
  - { offsetInCU: 0xA61A, offset: 0x234656, size: 0x8, addend: 0x0, symName: __ZN8crashpad22MinidumpMiscInfoWriter15SetProcessTimesEljj, symObjAddr: 0x9D0, symBinAddr: 0x100023B30, symSize: 0x44 }
  - { offsetInCU: 0xA65B, offset: 0x234697, size: 0x8, addend: 0x0, symName: __ZN8crashpad22MinidumpMiscInfoWriter11SetTimeZoneEjiRKNSt3__112basic_stringIcNS1_11char_traitsIcEENS1_9allocatorIcEEEERK10SYSTEMTIMEiS9_SC_i, symObjAddr: 0xA14, symBinAddr: 0x100023B74, symSize: 0x8C }
  - { offsetInCU: 0xA6CD, offset: 0x234709, size: 0x8, addend: 0x0, symName: __ZN8crashpad22MinidumpMiscInfoWriter14SetBuildStringERKNSt3__112basic_stringIcNS1_11char_traitsIcEENS1_9allocatorIcEEEES9_, symObjAddr: 0xAA0, symBinAddr: 0x100023C00, symSize: 0x48 }
  - { offsetInCU: 0xA704, offset: 0x234740, size: 0x8, addend: 0x0, symName: __ZN8crashpad22MinidumpMiscInfoWriter13SetXStateDataERK30XSTATE_CONFIG_FEATURE_MSC_INFO, symObjAddr: 0xAE8, symBinAddr: 0x100023C48, symSize: 0x30 }
  - { offsetInCU: 0xA731, offset: 0x23476D, size: 0x8, addend: 0x0, symName: __ZN8crashpad22MinidumpMiscInfoWriter24SetProcessIntegrityLevelEj, symObjAddr: 0xB18, symBinAddr: 0x100023C78, symSize: 0x14 }
  - { offsetInCU: 0xA768, offset: 0x2347A4, size: 0x8, addend: 0x0, symName: __ZN8crashpad22MinidumpMiscInfoWriter22SetProcessExecuteFlagsEj, symObjAddr: 0xB2C, symBinAddr: 0x100023C8C, symSize: 0x14 }
  - { offsetInCU: 0xA79F, offset: 0x2347DB, size: 0x8, addend: 0x0, symName: __ZN8crashpad22MinidumpMiscInfoWriter19SetProtectedProcessEj, symObjAddr: 0xB40, symBinAddr: 0x100023CA0, symSize: 0x14 }
  - { offsetInCU: 0xA7D6, offset: 0x234812, size: 0x8, addend: 0x0, symName: __ZNK8crashpad22MinidumpMiscInfoWriter13HasXStateDataEv, symObjAddr: 0xB54, symBinAddr: 0x100023CB4, symSize: 0x8 }
  - { offsetInCU: 0xA800, offset: 0x23483C, size: 0x8, addend: 0x0, symName: __ZN8crashpad22MinidumpMiscInfoWriter16SetProcessCookieEj, symObjAddr: 0xB5C, symBinAddr: 0x100023CBC, symSize: 0x14 }
  - { offsetInCU: 0xA855, offset: 0x234891, size: 0x8, addend: 0x0, symName: __ZN8crashpad22MinidumpMiscInfoWriter6FreezeEv, symObjAddr: 0xB70, symBinAddr: 0x100023CD0, symSize: 0x70 }
  - { offsetInCU: 0xA8BC, offset: 0x2348F8, size: 0x8, addend: 0x0, symName: __ZNK8crashpad22MinidumpMiscInfoWriter30CalculateSizeOfObjectFromFlagsEv, symObjAddr: 0xBE0, symBinAddr: 0x100023D40, symSize: 0x4C }
  - { offsetInCU: 0xA8DF, offset: 0x23491B, size: 0x8, addend: 0x0, symName: __ZN8crashpad22MinidumpMiscInfoWriter12SizeOfObjectEv, symObjAddr: 0xC2C, symBinAddr: 0x100023D8C, symSize: 0x4C }
  - { offsetInCU: 0xA922, offset: 0x23495E, size: 0x8, addend: 0x0, symName: __ZN8crashpad22MinidumpMiscInfoWriter11WriteObjectEPNS_19FileWriterInterfaceE, symObjAddr: 0xC78, symBinAddr: 0x100023DD8, symSize: 0x70 }
  - { offsetInCU: 0xA996, offset: 0x2349D2, size: 0x8, addend: 0x0, symName: __ZNK8crashpad22MinidumpMiscInfoWriter10StreamTypeEv, symObjAddr: 0xCE8, symBinAddr: 0x100023E48, symSize: 0x8 }
  - { offsetInCU: 0x18E5E, offset: 0x24DCCA, size: 0x8, addend: 0x0, symName: __ZN8crashpad32MinidumpModuleCrashpadInfoWriterC2Ev, symObjAddr: 0x0, symBinAddr: 0x100023E50, symSize: 0x38 }
  - { offsetInCU: 0x18F40, offset: 0x24DDAC, size: 0x8, addend: 0x0, symName: __ZN8crashpad32MinidumpModuleCrashpadInfoWriterC1Ev, symObjAddr: 0x38, symBinAddr: 0x100023E88, symSize: 0x38 }
  - { offsetInCU: 0x191CC, offset: 0x24E038, size: 0x8, addend: 0x0, symName: __ZN8crashpad32MinidumpModuleCrashpadInfoWriterD2Ev, symObjAddr: 0x70, symBinAddr: 0x100023EC0, symSize: 0x5C }
  - { offsetInCU: 0x193CA, offset: 0x24E236, size: 0x8, addend: 0x0, symName: __ZNSt3__110unique_ptrIN8crashpad28MinidumpAnnotationListWriterENS_14default_deleteIS2_EEED1B8ue170006Ev, symObjAddr: 0xCC, symBinAddr: 0x100023F1C, symSize: 0x34 }
  - { offsetInCU: 0x194BA, offset: 0x24E326, size: 0x8, addend: 0x0, symName: __ZNSt3__110unique_ptrIN8crashpad8internal24MinidumpStringListWriterINS2_24MinidumpUTF8StringWriterEEENS_14default_deleteIS5_EEED1B8ue170006Ev, symObjAddr: 0x134, symBinAddr: 0x100023F50, symSize: 0x34 }
  - { offsetInCU: 0x19553, offset: 0x24E3BF, size: 0x8, addend: 0x0, symName: __ZN8crashpad32MinidumpModuleCrashpadInfoWriterD1Ev, symObjAddr: 0x168, symBinAddr: 0x100023F84, symSize: 0x4 }
  - { offsetInCU: 0x19577, offset: 0x24E3E3, size: 0x8, addend: 0x0, symName: __ZN8crashpad32MinidumpModuleCrashpadInfoWriterD1Ev, symObjAddr: 0x168, symBinAddr: 0x100023F84, symSize: 0x4 }
  - { offsetInCU: 0x195A5, offset: 0x24E411, size: 0x8, addend: 0x0, symName: __ZN8crashpad32MinidumpModuleCrashpadInfoWriterD0Ev, symObjAddr: 0x16C, symBinAddr: 0x100023F88, symSize: 0x14 }
  - { offsetInCU: 0x19E7F, offset: 0x24ECEB, size: 0x8, addend: 0x0, symName: __ZN8crashpad32MinidumpModuleCrashpadInfoWriter22InitializeFromSnapshotEPKNS_14ModuleSnapshotE, symObjAddr: 0x180, symBinAddr: 0x100023F9C, symSize: 0x32C }
  - { offsetInCU: 0x1B1A3, offset: 0x25000F, size: 0x8, addend: 0x0, symName: __ZN8crashpad32MinidumpModuleCrashpadInfoWriter18SetListAnnotationsENSt3__110unique_ptrINS_8internal24MinidumpStringListWriterINS3_24MinidumpUTF8StringWriterEEENS1_14default_deleteIS6_EEEE, symObjAddr: 0x520, symBinAddr: 0x1000242C8, symSize: 0x34 }
  - { offsetInCU: 0x1B275, offset: 0x2500E1, size: 0x8, addend: 0x0, symName: __ZN8crashpad32MinidumpModuleCrashpadInfoWriter20SetSimpleAnnotationsENSt3__110unique_ptrINS_36MinidumpSimpleStringDictionaryWriterENS1_14default_deleteIS3_EEEE, symObjAddr: 0x554, symBinAddr: 0x1000242FC, symSize: 0x34 }
  - { offsetInCU: 0x1B36A, offset: 0x2501D6, size: 0x8, addend: 0x0, symName: __ZN8crashpad32MinidumpModuleCrashpadInfoWriter20SetAnnotationObjectsENSt3__110unique_ptrINS_28MinidumpAnnotationListWriterENS1_14default_deleteIS3_EEEE, symObjAddr: 0x5E0, symBinAddr: 0x100024330, symSize: 0x34 }
  - { offsetInCU: 0x1B48D, offset: 0x2502F9, size: 0x8, addend: 0x0, symName: __ZNK8crashpad32MinidumpModuleCrashpadInfoWriter8IsUsefulEv, symObjAddr: 0x614, symBinAddr: 0x100024364, symSize: 0x30 }
  - { offsetInCU: 0x1B4B2, offset: 0x25031E, size: 0x8, addend: 0x0, symName: __ZNK8crashpad32MinidumpModuleCrashpadInfoWriter8IsUsefulEv, symObjAddr: 0x614, symBinAddr: 0x100024364, symSize: 0x30 }
  - { offsetInCU: 0x1B513, offset: 0x25037F, size: 0x8, addend: 0x0, symName: __ZN8crashpad32MinidumpModuleCrashpadInfoWriter6FreezeEv, symObjAddr: 0x644, symBinAddr: 0x100024394, symSize: 0x5C }
  - { offsetInCU: 0x1B59F, offset: 0x25040B, size: 0x8, addend: 0x0, symName: __ZN8crashpad32MinidumpModuleCrashpadInfoWriter12SizeOfObjectEv, symObjAddr: 0x6A0, symBinAddr: 0x1000243F0, symSize: 0x8 }
  - { offsetInCU: 0x1BA2F, offset: 0x25089B, size: 0x8, addend: 0x0, symName: __ZN8crashpad32MinidumpModuleCrashpadInfoWriter8ChildrenEv, symObjAddr: 0x6A8, symBinAddr: 0x1000243F8, symSize: 0x2D8 }
  - { offsetInCU: 0x1C610, offset: 0x25147C, size: 0x8, addend: 0x0, symName: __ZN8crashpad32MinidumpModuleCrashpadInfoWriter11WriteObjectEPNS_19FileWriterInterfaceE, symObjAddr: 0x980, symBinAddr: 0x1000246D0, symSize: 0x1C }
  - { offsetInCU: 0x1C6B6, offset: 0x251522, size: 0x8, addend: 0x0, symName: __ZN8crashpad36MinidumpModuleCrashpadInfoListWriterC2Ev, symObjAddr: 0x99C, symBinAddr: 0x1000246EC, symSize: 0x34 }
  - { offsetInCU: 0x1C73B, offset: 0x2515A7, size: 0x8, addend: 0x0, symName: __ZN8crashpad36MinidumpModuleCrashpadInfoListWriterC1Ev, symObjAddr: 0x9D0, symBinAddr: 0x100024720, symSize: 0x34 }
  - { offsetInCU: 0x1CA69, offset: 0x2518D5, size: 0x8, addend: 0x0, symName: __ZN8crashpad36MinidumpModuleCrashpadInfoListWriterD2Ev, symObjAddr: 0xA04, symBinAddr: 0x100024754, symSize: 0x80 }
  - { offsetInCU: 0x1CE8A, offset: 0x251CF6, size: 0x8, addend: 0x0, symName: __ZN8crashpad36MinidumpModuleCrashpadInfoListWriterD1Ev, symObjAddr: 0xA84, symBinAddr: 0x1000247D4, symSize: 0x80 }
  - { offsetInCU: 0x1D2CB, offset: 0x252137, size: 0x8, addend: 0x0, symName: __ZN8crashpad36MinidumpModuleCrashpadInfoListWriterD0Ev, symObjAddr: 0xB04, symBinAddr: 0x100024854, symSize: 0x84 }
  - { offsetInCU: 0x1D90F, offset: 0x25277B, size: 0x8, addend: 0x0, symName: __ZN8crashpad36MinidumpModuleCrashpadInfoListWriter22InitializeFromSnapshotERKNSt3__16vectorIPKNS_14ModuleSnapshotENS1_9allocatorIS5_EEEE, symObjAddr: 0xB88, symBinAddr: 0x1000248D8, symSize: 0x138 }
  - { offsetInCU: 0x1DD55, offset: 0x252BC1, size: 0x8, addend: 0x0, symName: __ZN8crashpad36MinidumpModuleCrashpadInfoListWriter9AddModuleENSt3__110unique_ptrINS_32MinidumpModuleCrashpadInfoWriterENS1_14default_deleteIS3_EEEEm, symObjAddr: 0xCC0, symBinAddr: 0x100024A10, symSize: 0x1F0 }
  - { offsetInCU: 0x1E492, offset: 0x2532FE, size: 0x8, addend: 0x0, symName: __ZNSt3__110unique_ptrIN8crashpad32MinidumpModuleCrashpadInfoWriterENS_14default_deleteIS2_EEED1B8ue170006Ev, symObjAddr: 0xEB0, symBinAddr: 0x100024C00, symSize: 0x34 }
  - { offsetInCU: 0x1EAD1, offset: 0x25393D, size: 0x8, addend: 0x0, symName: __ZNSt3__16vectorINS_10unique_ptrIN8crashpad32MinidumpModuleCrashpadInfoWriterENS_14default_deleteIS3_EEEENS_9allocatorIS6_EEE21__push_back_slow_pathIS6_EEvOT_, symObjAddr: 0x13BC, symBinAddr: 0x100025050, symSize: 0x124 }
  - { offsetInCU: 0x1F1B3, offset: 0x25401F, size: 0x8, addend: 0x0, symName: __ZNKSt3__16vectorINS_10unique_ptrIN8crashpad32MinidumpModuleCrashpadInfoWriterENS_14default_deleteIS3_EEEENS_9allocatorIS6_EEE20__throw_length_errorB8ue170006Ev, symObjAddr: 0x14E0, symBinAddr: 0x100025174, symSize: 0x14 }
  - { offsetInCU: 0x1F1C7, offset: 0x254033, size: 0x8, addend: 0x0, symName: __ZNKSt3__16vectorIN8crashpad30MinidumpModuleCrashpadInfoLinkENS_9allocatorIS2_EEE20__throw_length_errorB8ue170006Ev, symObjAddr: 0x13A8, symBinAddr: 0x10002503C, symSize: 0x14 }
  - { offsetInCU: 0x1F1F1, offset: 0x25405D, size: 0x8, addend: 0x0, symName: __ZNSt3__16vectorINS_10unique_ptrIN8crashpad32MinidumpModuleCrashpadInfoWriterENS_14default_deleteIS3_EEEENS_9allocatorIS6_EEE21__push_back_slow_pathIS6_EEvOT_, symObjAddr: 0x13BC, symBinAddr: 0x100025050, symSize: 0x124 }
  - { offsetInCU: 0x1F217, offset: 0x254083, size: 0x8, addend: 0x0, symName: __ZNK8crashpad36MinidumpModuleCrashpadInfoListWriter8IsUsefulEv, symObjAddr: 0xEE4, symBinAddr: 0x100024C34, symSize: 0x10 }
  - { offsetInCU: 0x1F242, offset: 0x2540AE, size: 0x8, addend: 0x0, symName: __ZNK8crashpad36MinidumpModuleCrashpadInfoListWriter8IsUsefulEv, symObjAddr: 0xEE4, symBinAddr: 0x100024C34, symSize: 0x10 }
  - { offsetInCU: 0x1F2D7, offset: 0x254143, size: 0x8, addend: 0x0, symName: __ZN8crashpad36MinidumpModuleCrashpadInfoListWriter6FreezeEv, symObjAddr: 0xEF4, symBinAddr: 0x100024C44, symSize: 0x198 }
  - { offsetInCU: 0x1F501, offset: 0x25436D, size: 0x8, addend: 0x0, symName: __ZN8crashpad36MinidumpModuleCrashpadInfoListWriter12SizeOfObjectEv, symObjAddr: 0x108C, symBinAddr: 0x100024DDC, symSize: 0x10 }
  - { offsetInCU: 0x1F52C, offset: 0x254398, size: 0x8, addend: 0x0, symName: __ZN8crashpad36MinidumpModuleCrashpadInfoListWriter12SizeOfObjectEv, symObjAddr: 0x108C, symBinAddr: 0x100024DDC, symSize: 0x10 }
  - { offsetInCU: 0x1F594, offset: 0x254400, size: 0x8, addend: 0x0, symName: __ZN8crashpad36MinidumpModuleCrashpadInfoListWriter8ChildrenEv, symObjAddr: 0x109C, symBinAddr: 0x100024DEC, symSize: 0x17C }
  - { offsetInCU: 0x20088, offset: 0x254EF4, size: 0x8, addend: 0x0, symName: __ZN8crashpad36MinidumpModuleCrashpadInfoListWriter11WriteObjectEPNS_19FileWriterInterfaceE, symObjAddr: 0x1218, symBinAddr: 0x100024F68, symSize: 0xD4 }
  - { offsetInCU: 0x20B44, offset: 0x2559B0, size: 0x8, addend: 0x0, symName: __ZNKSt3__16vectorINS_10unique_ptrIN8crashpad32MinidumpModuleCrashpadInfoWriterENS_14default_deleteIS3_EEEENS_9allocatorIS6_EEE20__throw_length_errorB8ue170006Ev, symObjAddr: 0x14E0, symBinAddr: 0x100025174, symSize: 0x14 }
  - { offsetInCU: 0x13D16, offset: 0x26A055, size: 0x8, addend: 0x0, symName: __ZN8crashpad8internal41MinidumpModuleCodeViewRecordPDBLinkWriterINS_19CodeViewRecordPDB20EE10SetPDBNameERKNSt3__112basic_stringIcNS4_11char_traitsIcEENS4_9allocatorIcEEEE, symObjAddr: 0x0, symBinAddr: 0x100025188, symSize: 0x8 }
  - { offsetInCU: 0x13DB3, offset: 0x26A0F2, size: 0x8, addend: 0x0, symName: __ZN8crashpad8internal41MinidumpModuleCodeViewRecordPDBLinkWriterINS_19CodeViewRecordPDB20EEC2Ev, symObjAddr: 0x8, symBinAddr: 0x100025190, symSize: 0x40 }
  - { offsetInCU: 0x13E78, offset: 0x26A1B7, size: 0x8, addend: 0x0, symName: __ZN8crashpad8internal41MinidumpModuleCodeViewRecordPDBLinkWriterINS_19CodeViewRecordPDB20EEC1Ev, symObjAddr: 0x48, symBinAddr: 0x1000251D0, symSize: 0x40 }
  - { offsetInCU: 0x1402A, offset: 0x26A369, size: 0x8, addend: 0x0, symName: __ZN8crashpad8internal41MinidumpModuleCodeViewRecordPDBLinkWriterINS_19CodeViewRecordPDB20EED2Ev, symObjAddr: 0x88, symBinAddr: 0x100025210, symSize: 0x50 }
  - { offsetInCU: 0x14191, offset: 0x26A4D0, size: 0x8, addend: 0x0, symName: __ZN8crashpad34MinidumpModuleCodeViewRecordWriterD2Ev, symObjAddr: 0xD8, symBinAddr: 0x100025260, symSize: 0x4 }
  - { offsetInCU: 0x141CE, offset: 0x26A50D, size: 0x8, addend: 0x0, symName: __ZN8crashpad8internal41MinidumpModuleCodeViewRecordPDBLinkWriterINS_19CodeViewRecordPDB20EED1Ev, symObjAddr: 0xDC, symBinAddr: 0x100025264, symSize: 0x50 }
  - { offsetInCU: 0x14371, offset: 0x26A6B0, size: 0x8, addend: 0x0, symName: __ZN8crashpad8internal41MinidumpModuleCodeViewRecordPDBLinkWriterINS_19CodeViewRecordPDB20EED0Ev, symObjAddr: 0x12C, symBinAddr: 0x1000252B4, symSize: 0x58 }
  - { offsetInCU: 0x14554, offset: 0x26A893, size: 0x8, addend: 0x0, symName: __ZN8crashpad8internal41MinidumpModuleCodeViewRecordPDBLinkWriterINS_19CodeViewRecordPDB20EE12SizeOfObjectEv, symObjAddr: 0x184, symBinAddr: 0x10002530C, symSize: 0x20 }
  - { offsetInCU: 0x14596, offset: 0x26A8D5, size: 0x8, addend: 0x0, symName: __ZN8crashpad8internal41MinidumpModuleCodeViewRecordPDBLinkWriterINS_19CodeViewRecordPDB20EE12SizeOfObjectEv, symObjAddr: 0x184, symBinAddr: 0x10002530C, symSize: 0x20 }
  - { offsetInCU: 0x14A5D, offset: 0x26AD9C, size: 0x8, addend: 0x0, symName: __ZN8crashpad8internal41MinidumpModuleCodeViewRecordPDBLinkWriterINS_19CodeViewRecordPDB20EE11WriteObjectEPNS_19FileWriterInterfaceE, symObjAddr: 0x1A4, symBinAddr: 0x10002532C, symSize: 0xE4 }
  - { offsetInCU: 0x152FE, offset: 0x26B63D, size: 0x8, addend: 0x0, symName: __ZN8crashpad8internal41MinidumpModuleCodeViewRecordPDBLinkWriterINS_19CodeViewRecordPDB20EE15codeview_recordEv, symObjAddr: 0x288, symBinAddr: 0x100025410, symSize: 0x8 }
  - { offsetInCU: 0x15325, offset: 0x26B664, size: 0x8, addend: 0x0, symName: __ZN8crashpad8internal41MinidumpModuleCodeViewRecordPDBLinkWriterINS_19CodeViewRecordPDB70EE10SetPDBNameERKNSt3__112basic_stringIcNS4_11char_traitsIcEENS4_9allocatorIcEEEE, symObjAddr: 0x290, symBinAddr: 0x100025418, symSize: 0x8 }
  - { offsetInCU: 0x15384, offset: 0x26B6C3, size: 0x8, addend: 0x0, symName: __ZN8crashpad8internal41MinidumpModuleCodeViewRecordPDBLinkWriterINS_19CodeViewRecordPDB70EEC2Ev, symObjAddr: 0x298, symBinAddr: 0x100025420, symSize: 0x40 }
  - { offsetInCU: 0x1548B, offset: 0x26B7CA, size: 0x8, addend: 0x0, symName: __ZN8crashpad8internal41MinidumpModuleCodeViewRecordPDBLinkWriterINS_19CodeViewRecordPDB70EEC1Ev, symObjAddr: 0x2D8, symBinAddr: 0x100025460, symSize: 0x40 }
  - { offsetInCU: 0x15599, offset: 0x26B8D8, size: 0x8, addend: 0x0, symName: __ZN8crashpad8internal41MinidumpModuleCodeViewRecordPDBLinkWriterINS_19CodeViewRecordPDB70EED2Ev, symObjAddr: 0x318, symBinAddr: 0x1000254A0, symSize: 0x50 }
  - { offsetInCU: 0x1571C, offset: 0x26BA5B, size: 0x8, addend: 0x0, symName: __ZN8crashpad8internal41MinidumpModuleCodeViewRecordPDBLinkWriterINS_19CodeViewRecordPDB70EED1Ev, symObjAddr: 0x368, symBinAddr: 0x1000254F0, symSize: 0x50 }
  - { offsetInCU: 0x158BF, offset: 0x26BBFE, size: 0x8, addend: 0x0, symName: __ZN8crashpad8internal41MinidumpModuleCodeViewRecordPDBLinkWriterINS_19CodeViewRecordPDB70EED0Ev, symObjAddr: 0x3B8, symBinAddr: 0x100025540, symSize: 0x58 }
  - { offsetInCU: 0x15A60, offset: 0x26BD9F, size: 0x8, addend: 0x0, symName: __ZN8crashpad8internal41MinidumpModuleCodeViewRecordPDBLinkWriterINS_19CodeViewRecordPDB70EE12SizeOfObjectEv, symObjAddr: 0x410, symBinAddr: 0x100025598, symSize: 0x20 }
  - { offsetInCU: 0x15AA2, offset: 0x26BDE1, size: 0x8, addend: 0x0, symName: __ZN8crashpad8internal41MinidumpModuleCodeViewRecordPDBLinkWriterINS_19CodeViewRecordPDB70EE12SizeOfObjectEv, symObjAddr: 0x410, symBinAddr: 0x100025598, symSize: 0x20 }
  - { offsetInCU: 0x15AFB, offset: 0x26BE3A, size: 0x8, addend: 0x0, symName: __ZN8crashpad8internal41MinidumpModuleCodeViewRecordPDBLinkWriterINS_19CodeViewRecordPDB70EE11WriteObjectEPNS_19FileWriterInterfaceE, symObjAddr: 0x430, symBinAddr: 0x1000255B8, symSize: 0xE4 }
  - { offsetInCU: 0x1639C, offset: 0x26C6DB, size: 0x8, addend: 0x0, symName: __ZN8crashpad8internal41MinidumpModuleCodeViewRecordPDBLinkWriterINS_19CodeViewRecordPDB70EE15codeview_recordEv, symObjAddr: 0x514, symBinAddr: 0x10002569C, symSize: 0x8 }
  - { offsetInCU: 0x163C3, offset: 0x26C702, size: 0x8, addend: 0x0, symName: __ZN8crashpad34MinidumpModuleCodeViewRecordWriterD1Ev, symObjAddr: 0x51C, symBinAddr: 0x1000256A4, symSize: 0x4 }
  - { offsetInCU: 0x163EC, offset: 0x26C72B, size: 0x8, addend: 0x0, symName: __ZN8crashpad34MinidumpModuleCodeViewRecordWriterD0Ev, symObjAddr: 0x520, symBinAddr: 0x1000256A8, symSize: 0x4 }
  - { offsetInCU: 0x1642B, offset: 0x26C76A, size: 0x8, addend: 0x0, symName: __ZN8crashpad39MinidumpModuleCodeViewRecordPDB20WriterD2Ev, symObjAddr: 0x524, symBinAddr: 0x1000256AC, symSize: 0x50 }
  - { offsetInCU: 0x165D3, offset: 0x26C912, size: 0x8, addend: 0x0, symName: __ZN8crashpad39MinidumpModuleCodeViewRecordPDB20WriterD1Ev, symObjAddr: 0x574, symBinAddr: 0x1000256FC, symSize: 0x50 }
  - { offsetInCU: 0x16796, offset: 0x26CAD5, size: 0x8, addend: 0x0, symName: __ZN8crashpad39MinidumpModuleCodeViewRecordPDB20WriterD0Ev, symObjAddr: 0x5C4, symBinAddr: 0x10002574C, symSize: 0x58 }
  - { offsetInCU: 0x1694F, offset: 0x26CC8E, size: 0x8, addend: 0x0, symName: __ZN8crashpad39MinidumpModuleCodeViewRecordPDB20Writer18SetTimestampAndAgeElj, symObjAddr: 0x61C, symBinAddr: 0x1000257A4, symSize: 0x2C }
  - { offsetInCU: 0x16998, offset: 0x26CCD7, size: 0x8, addend: 0x0, symName: __ZN8crashpad39MinidumpModuleCodeViewRecordPDB70WriterD2Ev, symObjAddr: 0x648, symBinAddr: 0x1000257D0, symSize: 0x50 }
  - { offsetInCU: 0x16B3B, offset: 0x26CE7A, size: 0x8, addend: 0x0, symName: __ZN8crashpad39MinidumpModuleCodeViewRecordPDB70WriterD1Ev, symObjAddr: 0x698, symBinAddr: 0x100025820, symSize: 0x50 }
  - { offsetInCU: 0x16CFE, offset: 0x26D03D, size: 0x8, addend: 0x0, symName: __ZN8crashpad39MinidumpModuleCodeViewRecordPDB70WriterD0Ev, symObjAddr: 0x6E8, symBinAddr: 0x100025870, symSize: 0x58 }
  - { offsetInCU: 0x16F04, offset: 0x26D243, size: 0x8, addend: 0x0, symName: __ZN8crashpad39MinidumpModuleCodeViewRecordPDB70Writer22InitializeFromSnapshotEPKNS_14ModuleSnapshotE, symObjAddr: 0x740, symBinAddr: 0x1000258C8, symSize: 0x9C }
  - { offsetInCU: 0x1727E, offset: 0x26D5BD, size: 0x8, addend: 0x0, symName: __ZN8crashpad41MinidumpModuleCodeViewRecordBuildIDWriterC2Ev, symObjAddr: 0x7DC, symBinAddr: 0x100025964, symSize: 0x28 }
  - { offsetInCU: 0x1731C, offset: 0x26D65B, size: 0x8, addend: 0x0, symName: __ZN8crashpad41MinidumpModuleCodeViewRecordBuildIDWriterC1Ev, symObjAddr: 0x804, symBinAddr: 0x10002598C, symSize: 0x28 }
  - { offsetInCU: 0x174B1, offset: 0x26D7F0, size: 0x8, addend: 0x0, symName: __ZN8crashpad41MinidumpModuleCodeViewRecordBuildIDWriterD2Ev, symObjAddr: 0x82C, symBinAddr: 0x1000259B4, symSize: 0x30 }
  - { offsetInCU: 0x17665, offset: 0x26D9A4, size: 0x8, addend: 0x0, symName: __ZN8crashpad41MinidumpModuleCodeViewRecordBuildIDWriterD1Ev, symObjAddr: 0x85C, symBinAddr: 0x1000259E4, symSize: 0x30 }
  - { offsetInCU: 0x17839, offset: 0x26DB78, size: 0x8, addend: 0x0, symName: __ZN8crashpad41MinidumpModuleCodeViewRecordBuildIDWriterD0Ev, symObjAddr: 0x88C, symBinAddr: 0x100025A14, symSize: 0x34 }
  - { offsetInCU: 0x17A30, offset: 0x26DD6F, size: 0x8, addend: 0x0, symName: __ZN8crashpad41MinidumpModuleCodeViewRecordBuildIDWriter12SizeOfObjectEv, symObjAddr: 0x8C0, symBinAddr: 0x100025A48, symSize: 0x10 }
  - { offsetInCU: 0x17A5B, offset: 0x26DD9A, size: 0x8, addend: 0x0, symName: __ZN8crashpad41MinidumpModuleCodeViewRecordBuildIDWriter12SizeOfObjectEv, symObjAddr: 0x8C0, symBinAddr: 0x100025A48, symSize: 0x10 }
  - { offsetInCU: 0x17AE0, offset: 0x26DE1F, size: 0x8, addend: 0x0, symName: __ZN8crashpad41MinidumpModuleCodeViewRecordBuildIDWriter10SetBuildIDERKNSt3__16vectorIhNS1_9allocatorIhEEEE, symObjAddr: 0x8D0, symBinAddr: 0x100025A58, symSize: 0x20 }
  - { offsetInCU: 0x18260, offset: 0x26E59F, size: 0x8, addend: 0x0, symName: __ZN8crashpad41MinidumpModuleCodeViewRecordBuildIDWriter11WriteObjectEPNS_19FileWriterInterfaceE, symObjAddr: 0x8F0, symBinAddr: 0x100025A78, symSize: 0xE0 }
  - { offsetInCU: 0x18ADB, offset: 0x26EE1A, size: 0x8, addend: 0x0, symName: __ZN8crashpad35MinidumpModuleMiscDebugRecordWriterC2Ev, symObjAddr: 0x9D0, symBinAddr: 0x100025B58, symSize: 0x38 }
  - { offsetInCU: 0x18B7D, offset: 0x26EEBC, size: 0x8, addend: 0x0, symName: __ZN8crashpad35MinidumpModuleMiscDebugRecordWriterC1Ev, symObjAddr: 0xA08, symBinAddr: 0x100025B90, symSize: 0x38 }
  - { offsetInCU: 0x18CF5, offset: 0x26F034, size: 0x8, addend: 0x0, symName: __ZN8crashpad35MinidumpModuleMiscDebugRecordWriterD2Ev, symObjAddr: 0xA40, symBinAddr: 0x100025BC8, symSize: 0x58 }
  - { offsetInCU: 0x18F83, offset: 0x26F2C2, size: 0x8, addend: 0x0, symName: __ZN8crashpad35MinidumpModuleMiscDebugRecordWriterD1Ev, symObjAddr: 0xA98, symBinAddr: 0x100025C20, symSize: 0x58 }
  - { offsetInCU: 0x19231, offset: 0x26F570, size: 0x8, addend: 0x0, symName: __ZN8crashpad35MinidumpModuleMiscDebugRecordWriterD0Ev, symObjAddr: 0xAF0, symBinAddr: 0x100025C78, symSize: 0x60 }
  - { offsetInCU: 0x1962A, offset: 0x26F969, size: 0x8, addend: 0x0, symName: __ZN8crashpad35MinidumpModuleMiscDebugRecordWriter7SetDataERKNSt3__112basic_stringIcNS1_11char_traitsIcEENS1_9allocatorIcEEEEb, symObjAddr: 0xB50, symBinAddr: 0x100025CD8, symSize: 0xCC }
  - { offsetInCU: 0x199D3, offset: 0x26FD12, size: 0x8, addend: 0x0, symName: __ZN8crashpad35MinidumpModuleMiscDebugRecordWriter6FreezeEv, symObjAddr: 0xC1C, symBinAddr: 0x100025DA4, symSize: 0x88 }
  - { offsetInCU: 0x19AEB, offset: 0x26FE2A, size: 0x8, addend: 0x0, symName: __ZN8crashpad35MinidumpModuleMiscDebugRecordWriter12SizeOfObjectEv, symObjAddr: 0xCA4, symBinAddr: 0x100025E2C, symSize: 0x8 }
  - { offsetInCU: 0x19B4D, offset: 0x26FE8C, size: 0x8, addend: 0x0, symName: __ZN8crashpad35MinidumpModuleMiscDebugRecordWriter11WriteObjectEPNS_19FileWriterInterfaceE, symObjAddr: 0xCAC, symBinAddr: 0x100025E34, symSize: 0xF8 }
  - { offsetInCU: 0x1A569, offset: 0x2708A8, size: 0x8, addend: 0x0, symName: __ZN8crashpad20MinidumpModuleWriterC2Ev, symObjAddr: 0xDA4, symBinAddr: 0x100025F2C, symSize: 0x54 }
  - { offsetInCU: 0x1A64B, offset: 0x27098A, size: 0x8, addend: 0x0, symName: __ZN8crashpad20MinidumpModuleWriterC1Ev, symObjAddr: 0xDF8, symBinAddr: 0x100025F80, symSize: 0x54 }
  - { offsetInCU: 0x1A8D7, offset: 0x270C16, size: 0x8, addend: 0x0, symName: __ZN8crashpad20MinidumpModuleWriterD2Ev, symObjAddr: 0xE4C, symBinAddr: 0x100025FD4, symSize: 0x90 }
  - { offsetInCU: 0x1AD50, offset: 0x27108F, size: 0x8, addend: 0x0, symName: __ZN8crashpad20MinidumpModuleWriterD1Ev, symObjAddr: 0xEDC, symBinAddr: 0x100026064, symSize: 0x4 }
  - { offsetInCU: 0x1AD74, offset: 0x2710B3, size: 0x8, addend: 0x0, symName: __ZN8crashpad20MinidumpModuleWriterD1Ev, symObjAddr: 0xEDC, symBinAddr: 0x100026064, symSize: 0x4 }
  - { offsetInCU: 0x1ADA2, offset: 0x2710E1, size: 0x8, addend: 0x0, symName: __ZN8crashpad20MinidumpModuleWriterD0Ev, symObjAddr: 0xEE0, symBinAddr: 0x100026068, symSize: 0x14 }
  - { offsetInCU: 0x1B39B, offset: 0x2716DA, size: 0x8, addend: 0x0, symName: __ZN8crashpad20MinidumpModuleWriter22InitializeFromSnapshotEPKNS_14ModuleSnapshotE, symObjAddr: 0xEF4, symBinAddr: 0x10002607C, symSize: 0x410 }
  - { offsetInCU: 0x1C3EE, offset: 0x27272D, size: 0x8, addend: 0x0, symName: __ZNSt3__110unique_ptrIN8crashpad41MinidumpModuleCodeViewRecordBuildIDWriterENS_14default_deleteIS2_EEED1B8ue170006Ev, symObjAddr: 0x13C8, symBinAddr: 0x100026550, symSize: 0x48 }
  - { offsetInCU: 0x1C63E, offset: 0x27297D, size: 0x8, addend: 0x0, symName: __ZNSt3__110unique_ptrIN8crashpad39MinidumpModuleCodeViewRecordPDB70WriterENS_14default_deleteIS2_EEED1B8ue170006Ev, symObjAddr: 0x1410, symBinAddr: 0x100026598, symSize: 0x58 }
  - { offsetInCU: 0x1C895, offset: 0x272BD4, size: 0x8, addend: 0x0, symName: __ZN8crashpad20MinidumpModuleWriter7SetNameERKNSt3__112basic_stringIcNS1_11char_traitsIcEENS1_9allocatorIcEEEE, symObjAddr: 0x1304, symBinAddr: 0x10002648C, symSize: 0x9C }
  - { offsetInCU: 0x1C989, offset: 0x272CC8, size: 0x8, addend: 0x0, symName: __ZN8crashpad20MinidumpModuleWriter12SetTimestampEl, symObjAddr: 0x13A0, symBinAddr: 0x100026528, symSize: 0x8 }
  - { offsetInCU: 0x1C9B4, offset: 0x272CF3, size: 0x8, addend: 0x0, symName: __ZN8crashpad20MinidumpModuleWriter14SetFileVersionEtttt, symObjAddr: 0x13A8, symBinAddr: 0x100026530, symSize: 0x10 }
  - { offsetInCU: 0x1C9F9, offset: 0x272D38, size: 0x8, addend: 0x0, symName: __ZN8crashpad20MinidumpModuleWriter17SetProductVersionEtttt, symObjAddr: 0x13B8, symBinAddr: 0x100026540, symSize: 0x10 }
  - { offsetInCU: 0x1CB41, offset: 0x272E80, size: 0x8, addend: 0x0, symName: __ZN8crashpad20MinidumpModuleWriter17SetCodeViewRecordENSt3__110unique_ptrINS_34MinidumpModuleCodeViewRecordWriterENS1_14default_deleteIS3_EEEE, symObjAddr: 0x1468, symBinAddr: 0x1000265F0, symSize: 0x28 }
  - { offsetInCU: 0x1CC1E, offset: 0x272F5D, size: 0x8, addend: 0x0, symName: __ZNK8crashpad20MinidumpModuleWriter14MinidumpModuleEv, symObjAddr: 0x1490, symBinAddr: 0x100026618, symSize: 0x8 }
  - { offsetInCU: 0x1CC85, offset: 0x272FC4, size: 0x8, addend: 0x0, symName: __ZN8crashpad20MinidumpModuleWriter18SetMiscDebugRecordENSt3__110unique_ptrINS_35MinidumpModuleMiscDebugRecordWriterENS1_14default_deleteIS3_EEEE, symObjAddr: 0x1498, symBinAddr: 0x100026620, symSize: 0x7C }
  - { offsetInCU: 0x1CFCF, offset: 0x27330E, size: 0x8, addend: 0x0, symName: __ZN8crashpad20MinidumpModuleWriter19SetFileFlagsAndMaskEjj, symObjAddr: 0x1514, symBinAddr: 0x10002669C, symSize: 0x8 }
  - { offsetInCU: 0x1D04B, offset: 0x27338A, size: 0x8, addend: 0x0, symName: __ZN8crashpad20MinidumpModuleWriter6FreezeEv, symObjAddr: 0x151C, symBinAddr: 0x1000266A4, symSize: 0x100 }
  - { offsetInCU: 0x1D192, offset: 0x2734D1, size: 0x8, addend: 0x0, symName: __ZN8crashpad20MinidumpModuleWriter12SizeOfObjectEv, symObjAddr: 0x161C, symBinAddr: 0x1000267A4, symSize: 0x8 }
  - { offsetInCU: 0x1D585, offset: 0x2738C4, size: 0x8, addend: 0x0, symName: __ZN8crashpad20MinidumpModuleWriter8ChildrenEv, symObjAddr: 0x1624, symBinAddr: 0x1000267AC, symSize: 0x1F0 }
  - { offsetInCU: 0x1E042, offset: 0x274381, size: 0x8, addend: 0x0, symName: __ZNSt3__16vectorINS_10unique_ptrIN8crashpad20MinidumpModuleWriterENS_14default_deleteIS3_EEEENS_9allocatorIS6_EEE21__push_back_slow_pathIS6_EEvOT_, symObjAddr: 0x2200, symBinAddr: 0x100027148, symSize: 0x124 }
  - { offsetInCU: 0x1E04D, offset: 0x27438C, size: 0x8, addend: 0x0, symName: __ZN8crashpad20MinidumpModuleWriter11WriteObjectEPNS_19FileWriterInterfaceE, symObjAddr: 0x1814, symBinAddr: 0x10002699C, symSize: 0x8 }
  - { offsetInCU: 0x1E09B, offset: 0x2743DA, size: 0x8, addend: 0x0, symName: __ZN8crashpad24MinidumpModuleListWriterC2Ev, symObjAddr: 0x181C, symBinAddr: 0x1000269A4, symSize: 0x2C }
  - { offsetInCU: 0x1E0DE, offset: 0x27441D, size: 0x8, addend: 0x0, symName: __ZN8crashpad24MinidumpModuleListWriterC1Ev, symObjAddr: 0x1848, symBinAddr: 0x1000269D0, symSize: 0x2C }
  - { offsetInCU: 0x1E2D6, offset: 0x274615, size: 0x8, addend: 0x0, symName: __ZN8crashpad24MinidumpModuleListWriterD2Ev, symObjAddr: 0x1874, symBinAddr: 0x1000269FC, symSize: 0x70 }
  - { offsetInCU: 0x1E5A4, offset: 0x2748E3, size: 0x8, addend: 0x0, symName: __ZN8crashpad24MinidumpModuleListWriterD1Ev, symObjAddr: 0x18E4, symBinAddr: 0x100026A6C, symSize: 0x70 }
  - { offsetInCU: 0x1E893, offset: 0x274BD2, size: 0x8, addend: 0x0, symName: __ZN8crashpad24MinidumpModuleListWriterD0Ev, symObjAddr: 0x1954, symBinAddr: 0x100026ADC, symSize: 0x74 }
  - { offsetInCU: 0x1EF3B, offset: 0x27527A, size: 0x8, addend: 0x0, symName: __ZN8crashpad24MinidumpModuleListWriter22InitializeFromSnapshotERKNSt3__16vectorIPKNS_14ModuleSnapshotENS1_9allocatorIS5_EEEE, symObjAddr: 0x19C8, symBinAddr: 0x100026B50, symSize: 0x154 }
  - { offsetInCU: 0x1F5FB, offset: 0x27593A, size: 0x8, addend: 0x0, symName: __ZNSt3__16vectorINS_10unique_ptrIN8crashpad20MinidumpModuleWriterENS_14default_deleteIS3_EEEENS_9allocatorIS6_EEE21__push_back_slow_pathIS6_EEvOT_, symObjAddr: 0x2200, symBinAddr: 0x100027148, symSize: 0x124 }
  - { offsetInCU: 0x1FCDD, offset: 0x27601C, size: 0x8, addend: 0x0, symName: __ZNKSt3__16vectorINS_10unique_ptrIN8crashpad20MinidumpModuleWriterENS_14default_deleteIS3_EEEENS_9allocatorIS6_EEE20__throw_length_errorB8ue170006Ev, symObjAddr: 0x2324, symBinAddr: 0x10002726C, symSize: 0x14 }
  - { offsetInCU: 0x1FCF1, offset: 0x276030, size: 0x8, addend: 0x0, symName: __ZNSt3__110unique_ptrIN8crashpad20MinidumpModuleWriterENS_14default_deleteIS2_EEED1B8ue170006Ev, symObjAddr: 0x1B44, symBinAddr: 0x100026CCC, symSize: 0x34 }
  - { offsetInCU: 0x1FDB6, offset: 0x2760F5, size: 0x8, addend: 0x0, symName: __ZN8crashpad24MinidumpModuleListWriter9AddModuleENSt3__110unique_ptrINS_20MinidumpModuleWriterENS1_14default_deleteIS3_EEEE, symObjAddr: 0x1B1C, symBinAddr: 0x100026CA4, symSize: 0x28 }
  - { offsetInCU: 0x1FFB6, offset: 0x2762F5, size: 0x8, addend: 0x0, symName: __ZN8crashpad24MinidumpModuleListWriter6FreezeEv, symObjAddr: 0x1B78, symBinAddr: 0x100026D00, symSize: 0xD4 }
  - { offsetInCU: 0x200C6, offset: 0x276405, size: 0x8, addend: 0x0, symName: __ZN8crashpad24MinidumpModuleListWriter12SizeOfObjectEv, symObjAddr: 0x1C4C, symBinAddr: 0x100026DD4, symSize: 0x1C }
  - { offsetInCU: 0x200F2, offset: 0x276431, size: 0x8, addend: 0x0, symName: __ZN8crashpad24MinidumpModuleListWriter12SizeOfObjectEv, symObjAddr: 0x1C4C, symBinAddr: 0x100026DD4, symSize: 0x1C }
  - { offsetInCU: 0x20200, offset: 0x27653F, size: 0x8, addend: 0x0, symName: __ZN8crashpad24MinidumpModuleListWriter8ChildrenEv, symObjAddr: 0x1C68, symBinAddr: 0x100026DF0, symSize: 0x17C }
  - { offsetInCU: 0x20A06, offset: 0x276D45, size: 0x8, addend: 0x0, symName: __ZN8crashpad24MinidumpModuleListWriter11WriteObjectEPNS_19FileWriterInterfaceE, symObjAddr: 0x1DE4, symBinAddr: 0x100026F6C, symSize: 0x1D4 }
  - { offsetInCU: 0x2147A, offset: 0x2777B9, size: 0x8, addend: 0x0, symName: __ZNK8crashpad24MinidumpModuleListWriter10StreamTypeEv, symObjAddr: 0x1FB8, symBinAddr: 0x100027140, symSize: 0x8 }
  - { offsetInCU: 0x218CB, offset: 0x277C0A, size: 0x8, addend: 0x0, symName: __ZNKSt3__16vectorINS_10unique_ptrIN8crashpad20MinidumpModuleWriterENS_14default_deleteIS3_EEEENS_9allocatorIS6_EEE20__throw_length_errorB8ue170006Ev, symObjAddr: 0x2324, symBinAddr: 0x10002726C, symSize: 0x14 }
  - { offsetInCU: 0xFEB4, offset: 0x287E95, size: 0x8, addend: 0x0, symName: __ZN8crashpad8internal21MinidumpRVAListWriterC2Ev, symObjAddr: 0x0, symBinAddr: 0x100027280, symSize: 0x60 }
  - { offsetInCU: 0xFFF0, offset: 0x287FD1, size: 0x8, addend: 0x0, symName: __ZN8crashpad8internal21MinidumpRVAListWriterC1Ev, symObjAddr: 0x60, symBinAddr: 0x1000272E0, symSize: 0x60 }
  - { offsetInCU: 0x1045E, offset: 0x28843F, size: 0x8, addend: 0x0, symName: __ZN8crashpad8internal21MinidumpRVAListWriterD2Ev, symObjAddr: 0xC0, symBinAddr: 0x100027340, symSize: 0xA0 }
  - { offsetInCU: 0x108FA, offset: 0x2888DB, size: 0x8, addend: 0x0, symName: __ZN8crashpad8internal21MinidumpRVAListWriterD1Ev, symObjAddr: 0x160, symBinAddr: 0x1000273E0, symSize: 0xA0 }
  - { offsetInCU: 0x10DB6, offset: 0x288D97, size: 0x8, addend: 0x0, symName: __ZN8crashpad8internal21MinidumpRVAListWriterD0Ev, symObjAddr: 0x200, symBinAddr: 0x100027480, symSize: 0xA4 }
  - { offsetInCU: 0x1149D, offset: 0x28947E, size: 0x8, addend: 0x0, symName: __ZN8crashpad8internal21MinidumpRVAListWriter8AddChildENSt3__110unique_ptrINS0_16MinidumpWritableENS2_14default_deleteIS4_EEEE, symObjAddr: 0x2A4, symBinAddr: 0x100027524, symSize: 0x28 }
  - { offsetInCU: 0x1168C, offset: 0x28966D, size: 0x8, addend: 0x0, symName: __ZNSt3__16vectorINS_10unique_ptrIN8crashpad8internal16MinidumpWritableENS_14default_deleteIS4_EEEENS_9allocatorIS7_EEE21__push_back_slow_pathIS7_EEvOT_, symObjAddr: 0x690, symBinAddr: 0x100027904, symSize: 0x128 }
  - { offsetInCU: 0x11D4E, offset: 0x289D2F, size: 0x8, addend: 0x0, symName: __ZNKSt3__16vectorINS_10unique_ptrIN8crashpad8internal16MinidumpWritableENS_14default_deleteIS4_EEEENS_9allocatorIS7_EEE20__throw_length_errorB8ue170006Ev, symObjAddr: 0x7B8, symBinAddr: 0x100027A2C, symSize: 0x14 }
  - { offsetInCU: 0x11F1E, offset: 0x289EFF, size: 0x8, addend: 0x0, symName: __ZN8crashpad8internal21MinidumpRVAListWriter6FreezeEv, symObjAddr: 0x2CC, symBinAddr: 0x10002754C, symSize: 0x154 }
  - { offsetInCU: 0x12165, offset: 0x28A146, size: 0x8, addend: 0x0, symName: __ZNSt3__16vectorIjNS_9allocatorIjEEE8__appendEm, symObjAddr: 0x868, symBinAddr: 0x100027A40, symSize: 0x1A4 }
  - { offsetInCU: 0x12621, offset: 0x28A602, size: 0x8, addend: 0x0, symName: __ZNKSt3__16vectorIjNS_9allocatorIjEEE20__throw_length_errorB8ue170006Ev, symObjAddr: 0xA0C, symBinAddr: 0x100027BE4, symSize: 0x14 }
  - { offsetInCU: 0x1262C, offset: 0x28A60D, size: 0x8, addend: 0x0, symName: __ZN8crashpad8internal21MinidumpRVAListWriter12SizeOfObjectEv, symObjAddr: 0x420, symBinAddr: 0x1000276A0, symSize: 0x14 }
  - { offsetInCU: 0x12657, offset: 0x28A638, size: 0x8, addend: 0x0, symName: __ZN8crashpad8internal21MinidumpRVAListWriter12SizeOfObjectEv, symObjAddr: 0x420, symBinAddr: 0x1000276A0, symSize: 0x14 }
  - { offsetInCU: 0x12B24, offset: 0x28AB05, size: 0x8, addend: 0x0, symName: __ZN8crashpad8internal21MinidumpRVAListWriter8ChildrenEv, symObjAddr: 0x434, symBinAddr: 0x1000276B4, symSize: 0x17C }
  - { offsetInCU: 0x13651, offset: 0x28B632, size: 0x8, addend: 0x0, symName: __ZN8crashpad8internal21MinidumpRVAListWriter11WriteObjectEPNS_19FileWriterInterfaceE, symObjAddr: 0x5B0, symBinAddr: 0x100027830, symSize: 0xD4 }
  - { offsetInCU: 0x140DF, offset: 0x28C0C0, size: 0x8, addend: 0x0, symName: __ZNKSt3__16vectorINS_10unique_ptrIN8crashpad8internal16MinidumpWritableENS_14default_deleteIS4_EEEENS_9allocatorIS7_EEE20__throw_length_errorB8ue170006Ev, symObjAddr: 0x7B8, symBinAddr: 0x100027A2C, symSize: 0x14 }
  - { offsetInCU: 0x14458, offset: 0x28C439, size: 0x8, addend: 0x0, symName: __ZNKSt3__16vectorIjNS_9allocatorIjEEE20__throw_length_errorB8ue170006Ev, symObjAddr: 0xA0C, symBinAddr: 0x100027BE4, symSize: 0x14 }
  - { offsetInCU: 0x109B3, offset: 0x29D2F6, size: 0x8, addend: 0x0, symName: __ZN8crashpad41MinidumpSimpleStringDictionaryEntryWriterC2Ev, symObjAddr: 0x0, symBinAddr: 0x100027BF8, symSize: 0x88 }
  - { offsetInCU: 0x10A6A, offset: 0x29D3AD, size: 0x8, addend: 0x0, symName: __ZN8crashpad41MinidumpSimpleStringDictionaryEntryWriterC1Ev, symObjAddr: 0x88, symBinAddr: 0x100027C80, symSize: 0x88 }
  - { offsetInCU: 0x10B1D, offset: 0x29D460, size: 0x8, addend: 0x0, symName: __ZN8crashpad41MinidumpSimpleStringDictionaryEntryWriterD2Ev, symObjAddr: 0x110, symBinAddr: 0x100027D08, symSize: 0x30 }
  - { offsetInCU: 0x10B5C, offset: 0x29D49F, size: 0x8, addend: 0x0, symName: __ZN8crashpad41MinidumpSimpleStringDictionaryEntryWriterD1Ev, symObjAddr: 0x140, symBinAddr: 0x100027D38, symSize: 0x30 }
  - { offsetInCU: 0x10BBB, offset: 0x29D4FE, size: 0x8, addend: 0x0, symName: __ZN8crashpad41MinidumpSimpleStringDictionaryEntryWriterD0Ev, symObjAddr: 0x170, symBinAddr: 0x100027D68, symSize: 0x34 }
  - { offsetInCU: 0x10C24, offset: 0x29D567, size: 0x8, addend: 0x0, symName: __ZNK8crashpad41MinidumpSimpleStringDictionaryEntryWriter38GetMinidumpSimpleStringDictionaryEntryEv, symObjAddr: 0x1A4, symBinAddr: 0x100027D9C, symSize: 0x8 }
  - { offsetInCU: 0x10CB6, offset: 0x29D5F9, size: 0x8, addend: 0x0, symName: __ZN8crashpad41MinidumpSimpleStringDictionaryEntryWriter11SetKeyValueERKNSt3__112basic_stringIcNS1_11char_traitsIcEENS1_9allocatorIcEEEES9_, symObjAddr: 0x1AC, symBinAddr: 0x100027DA4, symSize: 0x30 }
  - { offsetInCU: 0x10DE1, offset: 0x29D724, size: 0x8, addend: 0x0, symName: __ZN8crashpad41MinidumpSimpleStringDictionaryEntryWriter6FreezeEv, symObjAddr: 0x1DC, symBinAddr: 0x100027DD4, symSize: 0x44 }
  - { offsetInCU: 0x10E0A, offset: 0x29D74D, size: 0x8, addend: 0x0, symName: __ZN8crashpad41MinidumpSimpleStringDictionaryEntryWriter12SizeOfObjectEv, symObjAddr: 0x220, symBinAddr: 0x100027E18, symSize: 0x8 }
  - { offsetInCU: 0x11254, offset: 0x29DB97, size: 0x8, addend: 0x0, symName: __ZN8crashpad41MinidumpSimpleStringDictionaryEntryWriter8ChildrenEv, symObjAddr: 0x228, symBinAddr: 0x100027E20, symSize: 0x88 }
  - { offsetInCU: 0x11837, offset: 0x29E17A, size: 0x8, addend: 0x0, symName: __ZN8crashpad41MinidumpSimpleStringDictionaryEntryWriter11WriteObjectEPNS_19FileWriterInterfaceE, symObjAddr: 0x2B0, symBinAddr: 0x100027EA8, symSize: 0x8 }
  - { offsetInCU: 0x11C64, offset: 0x29E5A7, size: 0x8, addend: 0x0, symName: __ZN8crashpad36MinidumpSimpleStringDictionaryWriterC2Ev, symObjAddr: 0x2B8, symBinAddr: 0x100027EB0, symSize: 0x7C }
  - { offsetInCU: 0x11E9D, offset: 0x29E7E0, size: 0x8, addend: 0x0, symName: __ZNSt3__16__treeINS_12__value_typeINS_12basic_stringIcNS_11char_traitsIcEENS_9allocatorIcEEEEPN8crashpad41MinidumpSimpleStringDictionaryEntryWriterEEENS_19__map_value_compareIS7_SB_NS_4lessIS7_EELb1EEENS5_ISB_EEE7destroyEPNS_11__tree_nodeISB_PvEE, symObjAddr: 0xD0C, symBinAddr: 0x100028820, symSize: 0x60 }
  - { offsetInCU: 0x1217F, offset: 0x29EAC2, size: 0x8, addend: 0x0, symName: __ZN8crashpad36MinidumpSimpleStringDictionaryWriterC1Ev, symObjAddr: 0x334, symBinAddr: 0x100027F2C, symSize: 0x64 }
  - { offsetInCU: 0x124B3, offset: 0x29EDF6, size: 0x8, addend: 0x0, symName: __ZN8crashpad36MinidumpSimpleStringDictionaryWriterD2Ev, symObjAddr: 0x398, symBinAddr: 0x100027F90, symSize: 0xC0 }
  - { offsetInCU: 0x127C7, offset: 0x29F10A, size: 0x8, addend: 0x0, symName: __ZN8crashpad36MinidumpSimpleStringDictionaryWriterD1Ev, symObjAddr: 0x464, symBinAddr: 0x100028050, symSize: 0x4 }
  - { offsetInCU: 0x127EB, offset: 0x29F12E, size: 0x8, addend: 0x0, symName: __ZN8crashpad36MinidumpSimpleStringDictionaryWriterD1Ev, symObjAddr: 0x464, symBinAddr: 0x100028050, symSize: 0x4 }
  - { offsetInCU: 0x12818, offset: 0x29F15B, size: 0x8, addend: 0x0, symName: __ZN8crashpad36MinidumpSimpleStringDictionaryWriterD0Ev, symObjAddr: 0x468, symBinAddr: 0x100028054, symSize: 0x14 }
  - { offsetInCU: 0x12B98, offset: 0x29F4DB, size: 0x8, addend: 0x0, symName: __ZN8crashpad36MinidumpSimpleStringDictionaryWriter17InitializeFromMapERKNSt3__13mapINS1_12basic_stringIcNS1_11char_traitsIcEENS1_9allocatorIcEEEES8_NS1_4lessIS8_EENS6_INS1_4pairIKS8_S8_EEEEEE, symObjAddr: 0x47C, symBinAddr: 0x100028068, symSize: 0x1E0 }
  - { offsetInCU: 0x13153, offset: 0x29FA96, size: 0x8, addend: 0x0, symName: __ZNSt3__16__treeINS_12__value_typeINS_12basic_stringIcNS_11char_traitsIcEENS_9allocatorIcEEEEPN8crashpad41MinidumpSimpleStringDictionaryEntryWriterEEENS_19__map_value_compareIS7_SB_NS_4lessIS7_EELb1EEENS5_ISB_EEE4findIS7_EENS_15__tree_iteratorISB_PNS_11__tree_nodeISB_PvEElEERKT_, symObjAddr: 0x1064, symBinAddr: 0x100028880, symSize: 0x118 }
  - { offsetInCU: 0x134AF, offset: 0x29FDF2, size: 0x8, addend: 0x0, symName: __ZNSt3__16__treeINS_12__value_typeINS_12basic_stringIcNS_11char_traitsIcEENS_9allocatorIcEEEEPN8crashpad41MinidumpSimpleStringDictionaryEntryWriterEEENS_19__map_value_compareIS7_SB_NS_4lessIS7_EELb1EEENS5_ISB_EEE25__emplace_unique_key_argsIS7_JRKNS_21piecewise_construct_tENS_5tupleIJRKS7_EEENSM_IJEEEEEENS_4pairINS_15__tree_iteratorISB_PNS_11__tree_nodeISB_PvEElEEbEERKT_DpOT0_, symObjAddr: 0x117C, symBinAddr: 0x100028998, symSize: 0x1D4 }
  - { offsetInCU: 0x13F01, offset: 0x2A0844, size: 0x8, addend: 0x0, symName: __ZNSt3__110unique_ptrIN8crashpad41MinidumpSimpleStringDictionaryEntryWriterENS_14default_deleteIS2_EEED1B8ue170006Ev, symObjAddr: 0x730, symBinAddr: 0x10002831C, symSize: 0x48 }
  - { offsetInCU: 0x14042, offset: 0x2A0985, size: 0x8, addend: 0x0, symName: __ZN8crashpad36MinidumpSimpleStringDictionaryWriter8AddEntryENSt3__110unique_ptrINS_41MinidumpSimpleStringDictionaryEntryWriterENS1_14default_deleteIS3_EEEE, symObjAddr: 0x65C, symBinAddr: 0x100028248, symSize: 0xD4 }
  - { offsetInCU: 0x142B8, offset: 0x2A0BFB, size: 0x8, addend: 0x0, symName: __ZNK8crashpad36MinidumpSimpleStringDictionaryWriter8IsUsefulEv, symObjAddr: 0x778, symBinAddr: 0x100028364, symSize: 0x10 }
  - { offsetInCU: 0x142E3, offset: 0x2A0C26, size: 0x8, addend: 0x0, symName: __ZNK8crashpad36MinidumpSimpleStringDictionaryWriter8IsUsefulEv, symObjAddr: 0x778, symBinAddr: 0x100028364, symSize: 0x10 }
  - { offsetInCU: 0x143DC, offset: 0x2A0D1F, size: 0x8, addend: 0x0, symName: __ZN8crashpad36MinidumpSimpleStringDictionaryWriter6FreezeEv, symObjAddr: 0x788, symBinAddr: 0x100028374, symSize: 0xD0 }
  - { offsetInCU: 0x14515, offset: 0x2A0E58, size: 0x8, addend: 0x0, symName: __ZN8crashpad36MinidumpSimpleStringDictionaryWriter12SizeOfObjectEv, symObjAddr: 0x858, symBinAddr: 0x100028444, symSize: 0x10 }
  - { offsetInCU: 0x14540, offset: 0x2A0E83, size: 0x8, addend: 0x0, symName: __ZN8crashpad36MinidumpSimpleStringDictionaryWriter12SizeOfObjectEv, symObjAddr: 0x858, symBinAddr: 0x100028444, symSize: 0x10 }
  - { offsetInCU: 0x146F4, offset: 0x2A1037, size: 0x8, addend: 0x0, symName: __ZN8crashpad36MinidumpSimpleStringDictionaryWriter8ChildrenEv, symObjAddr: 0x868, symBinAddr: 0x100028454, symSize: 0x1B4 }
  - { offsetInCU: 0x153EF, offset: 0x2A1D32, size: 0x8, addend: 0x0, symName: __ZN8crashpad36MinidumpSimpleStringDictionaryWriter11WriteObjectEPNS_19FileWriterInterfaceE, symObjAddr: 0xA1C, symBinAddr: 0x100028608, symSize: 0x218 }
  - { offsetInCU: 0x15F36, offset: 0x2A2879, size: 0x8, addend: 0x0, symName: __ZNSt3__16__treeINS_12__value_typeINS_12basic_stringIcNS_11char_traitsIcEENS_9allocatorIcEEEEPN8crashpad41MinidumpSimpleStringDictionaryEntryWriterEEENS_19__map_value_compareIS7_SB_NS_4lessIS7_EELb1EEENS5_ISB_EEE7destroyEPNS_11__tree_nodeISB_PvEE, symObjAddr: 0xD0C, symBinAddr: 0x100028820, symSize: 0x60 }
  - { offsetInCU: 0x26, offset: 0x2A351D, size: 0x8, addend: 0x0, symName: __ZN8crashpad8internal20MinidumpStreamWriterD2Ev, symObjAddr: 0x0, symBinAddr: 0x100028B6C, symSize: 0x4 }
  - { offsetInCU: 0x2943, offset: 0x2A5E3A, size: 0x8, addend: 0x0, symName: __ZN8crashpad8internal20MinidumpStreamWriterD2Ev, symObjAddr: 0x0, symBinAddr: 0x100028B6C, symSize: 0x4 }
  - { offsetInCU: 0x296E, offset: 0x2A5E65, size: 0x8, addend: 0x0, symName: __ZN8crashpad8internal20MinidumpStreamWriterD1Ev, symObjAddr: 0x4, symBinAddr: 0x100028B70, symSize: 0x4 }
  - { offsetInCU: 0x2997, offset: 0x2A5E8E, size: 0x8, addend: 0x0, symName: __ZN8crashpad8internal20MinidumpStreamWriterD0Ev, symObjAddr: 0x8, symBinAddr: 0x100028B74, symSize: 0x4 }
  - { offsetInCU: 0x29C0, offset: 0x2A5EB7, size: 0x8, addend: 0x0, symName: __ZNK8crashpad8internal20MinidumpStreamWriter18DirectoryListEntryEv, symObjAddr: 0xC, symBinAddr: 0x100028B78, symSize: 0x8 }
  - { offsetInCU: 0x29E9, offset: 0x2A5EE0, size: 0x8, addend: 0x0, symName: __ZN8crashpad8internal20MinidumpStreamWriterC2Ev, symObjAddr: 0x14, symBinAddr: 0x100028B80, symSize: 0x28 }
  - { offsetInCU: 0x2A14, offset: 0x2A5F0B, size: 0x8, addend: 0x0, symName: __ZN8crashpad8internal20MinidumpStreamWriter6FreezeEv, symObjAddr: 0x3C, symBinAddr: 0x100028BA8, symSize: 0x4C }
  - { offsetInCU: 0x1058B, offset: 0x2B64DC, size: 0x8, addend: 0x0, symName: __ZN8crashpad8internal20MinidumpStringWriterINS0_31MinidumpStringWriterUTF16TraitsEEC2Ev, symObjAddr: 0x0, symBinAddr: 0x100028BF4, symSize: 0x5C }
  - { offsetInCU: 0x106E9, offset: 0x2B663A, size: 0x8, addend: 0x0, symName: __ZN8crashpad8internal20MinidumpStringWriterINS0_31MinidumpStringWriterUTF16TraitsEEC1Ev, symObjAddr: 0x5C, symBinAddr: 0x100028C50, symSize: 0x5C }
  - { offsetInCU: 0x1099C, offset: 0x2B68ED, size: 0x8, addend: 0x0, symName: __ZN8crashpad8internal20MinidumpStringWriterINS0_31MinidumpStringWriterUTF16TraitsEED2Ev, symObjAddr: 0xB8, symBinAddr: 0x100028CAC, symSize: 0x60 }
  - { offsetInCU: 0x10B8A, offset: 0x2B6ADB, size: 0x8, addend: 0x0, symName: __ZN8crashpad8internal20MinidumpStringWriterINS0_31MinidumpStringWriterUTF16TraitsEED1Ev, symObjAddr: 0x118, symBinAddr: 0x100028D0C, symSize: 0x60 }
  - { offsetInCU: 0x10D98, offset: 0x2B6CE9, size: 0x8, addend: 0x0, symName: __ZN8crashpad8internal20MinidumpStringWriterINS0_31MinidumpStringWriterUTF16TraitsEED0Ev, symObjAddr: 0x178, symBinAddr: 0x100028D6C, symSize: 0x64 }
  - { offsetInCU: 0x110AA, offset: 0x2B6FFB, size: 0x8, addend: 0x0, symName: __ZN8crashpad8internal20MinidumpStringWriterINS0_31MinidumpStringWriterUTF16TraitsEE6FreezeEv, symObjAddr: 0x1DC, symBinAddr: 0x100028DD0, symSize: 0xEC }
  - { offsetInCU: 0x11236, offset: 0x2B7187, size: 0x8, addend: 0x0, symName: __ZN8crashpad8internal20MinidumpStringWriterINS0_31MinidumpStringWriterUTF16TraitsEE12SizeOfObjectEv, symObjAddr: 0x2C8, symBinAddr: 0x100028EBC, symSize: 0x28 }
  - { offsetInCU: 0x11278, offset: 0x2B71C9, size: 0x8, addend: 0x0, symName: __ZN8crashpad8internal20MinidumpStringWriterINS0_31MinidumpStringWriterUTF16TraitsEE12SizeOfObjectEv, symObjAddr: 0x2C8, symBinAddr: 0x100028EBC, symSize: 0x28 }
  - { offsetInCU: 0x11755, offset: 0x2B76A6, size: 0x8, addend: 0x0, symName: __ZN8crashpad8internal20MinidumpStringWriterINS0_31MinidumpStringWriterUTF16TraitsEE11WriteObjectEPNS_19FileWriterInterfaceE, symObjAddr: 0x2F0, symBinAddr: 0x100028EE4, symSize: 0xE8 }
  - { offsetInCU: 0x1205A, offset: 0x2B7FAB, size: 0x8, addend: 0x0, symName: __ZN8crashpad8internal20MinidumpStringWriterINS0_31MinidumpStringWriterUTF16TraitsEE10set_stringERKNSt3__112basic_stringIDsNS4_11char_traitsIDsEENS4_9allocatorIDsEEEE, symObjAddr: 0x3D8, symBinAddr: 0x100028FCC, symSize: 0x8 }
  - { offsetInCU: 0x120C0, offset: 0x2B8011, size: 0x8, addend: 0x0, symName: __ZNSt3__112basic_stringIDsNS_11char_traitsIDsEENS_9allocatorIDsEEEaSERKS5_, symObjAddr: 0xFC8, symBinAddr: 0x100029B14, symSize: 0x134 }
  - { offsetInCU: 0x127A5, offset: 0x2B86F6, size: 0x8, addend: 0x0, symName: __ZNSt3__112basic_stringIDsNS_11char_traitsIDsEENS_9allocatorIDsEEE17__assign_no_aliasILb0EEERS5_PKDsm, symObjAddr: 0x10FC, symBinAddr: 0x100029C48, symSize: 0x12C }
  - { offsetInCU: 0x127B0, offset: 0x2B8701, size: 0x8, addend: 0x0, symName: __ZNK8crashpad8internal20MinidumpStringWriterINS0_31MinidumpStringWriterUTF16TraitsEE6stringEv, symObjAddr: 0x3E0, symBinAddr: 0x100028FD4, symSize: 0x8 }
  - { offsetInCU: 0x12939, offset: 0x2B888A, size: 0x8, addend: 0x0, symName: __ZN8crashpad8internal20MinidumpStringWriterINS0_30MinidumpStringWriterUTF8TraitsEEC2Ev, symObjAddr: 0x3E8, symBinAddr: 0x100028FDC, symSize: 0x5C }
  - { offsetInCU: 0x12A97, offset: 0x2B89E8, size: 0x8, addend: 0x0, symName: __ZN8crashpad8internal20MinidumpStringWriterINS0_30MinidumpStringWriterUTF8TraitsEEC1Ev, symObjAddr: 0x444, symBinAddr: 0x100029038, symSize: 0x5C }
  - { offsetInCU: 0x12D40, offset: 0x2B8C91, size: 0x8, addend: 0x0, symName: __ZN8crashpad8internal20MinidumpStringWriterINS0_30MinidumpStringWriterUTF8TraitsEED2Ev, symObjAddr: 0x4A0, symBinAddr: 0x100029094, symSize: 0x60 }
  - { offsetInCU: 0x12F2E, offset: 0x2B8E7F, size: 0x8, addend: 0x0, symName: __ZN8crashpad8internal20MinidumpStringWriterINS0_30MinidumpStringWriterUTF8TraitsEED1Ev, symObjAddr: 0x500, symBinAddr: 0x1000290F4, symSize: 0x60 }
  - { offsetInCU: 0x1313C, offset: 0x2B908D, size: 0x8, addend: 0x0, symName: __ZN8crashpad8internal20MinidumpStringWriterINS0_30MinidumpStringWriterUTF8TraitsEED0Ev, symObjAddr: 0x560, symBinAddr: 0x100029154, symSize: 0x64 }
  - { offsetInCU: 0x1338F, offset: 0x2B92E0, size: 0x8, addend: 0x0, symName: __ZN8crashpad8internal20MinidumpStringWriterINS0_30MinidumpStringWriterUTF8TraitsEE6FreezeEv, symObjAddr: 0x5C4, symBinAddr: 0x1000291B8, symSize: 0xE0 }
  - { offsetInCU: 0x1350E, offset: 0x2B945F, size: 0x8, addend: 0x0, symName: __ZN8crashpad8internal20MinidumpStringWriterINS0_30MinidumpStringWriterUTF8TraitsEE12SizeOfObjectEv, symObjAddr: 0x6A4, symBinAddr: 0x100029298, symSize: 0x20 }
  - { offsetInCU: 0x13550, offset: 0x2B94A1, size: 0x8, addend: 0x0, symName: __ZN8crashpad8internal20MinidumpStringWriterINS0_30MinidumpStringWriterUTF8TraitsEE12SizeOfObjectEv, symObjAddr: 0x6A4, symBinAddr: 0x100029298, symSize: 0x20 }
  - { offsetInCU: 0x135F8, offset: 0x2B9549, size: 0x8, addend: 0x0, symName: __ZN8crashpad8internal20MinidumpStringWriterINS0_30MinidumpStringWriterUTF8TraitsEE11WriteObjectEPNS_19FileWriterInterfaceE, symObjAddr: 0x6C4, symBinAddr: 0x1000292B8, symSize: 0xE4 }
  - { offsetInCU: 0x13EFD, offset: 0x2B9E4E, size: 0x8, addend: 0x0, symName: __ZN8crashpad8internal20MinidumpStringWriterINS0_30MinidumpStringWriterUTF8TraitsEE10set_stringERKNSt3__112basic_stringIcNS4_11char_traitsIcEENS4_9allocatorIcEEEE, symObjAddr: 0x7A8, symBinAddr: 0x10002939C, symSize: 0x8 }
  - { offsetInCU: 0x13F4E, offset: 0x2B9E9F, size: 0x8, addend: 0x0, symName: __ZNK8crashpad8internal20MinidumpStringWriterINS0_30MinidumpStringWriterUTF8TraitsEE6stringEv, symObjAddr: 0x7B0, symBinAddr: 0x1000293A4, symSize: 0x8 }
  - { offsetInCU: 0x140D0, offset: 0x2BA021, size: 0x8, addend: 0x0, symName: __ZN8crashpad8internal24MinidumpStringListWriterINS0_25MinidumpUTF16StringWriterEEC2Ev, symObjAddr: 0x7B8, symBinAddr: 0x1000293AC, symSize: 0x24 }
  - { offsetInCU: 0x14112, offset: 0x2BA063, size: 0x8, addend: 0x0, symName: __ZN8crashpad8internal24MinidumpStringListWriterINS0_25MinidumpUTF16StringWriterEEC1Ev, symObjAddr: 0x7DC, symBinAddr: 0x1000293D0, symSize: 0x24 }
  - { offsetInCU: 0x1415B, offset: 0x2BA0AC, size: 0x8, addend: 0x0, symName: __ZN8crashpad8internal24MinidumpStringListWriterINS0_25MinidumpUTF16StringWriterEED2Ev, symObjAddr: 0x800, symBinAddr: 0x1000293F4, symSize: 0x4 }
  - { offsetInCU: 0x14198, offset: 0x2BA0E9, size: 0x8, addend: 0x0, symName: __ZN8crashpad8internal24MinidumpStringListWriterINS0_25MinidumpUTF16StringWriterEED1Ev, symObjAddr: 0x804, symBinAddr: 0x1000293F8, symSize: 0x4 }
  - { offsetInCU: 0x141BB, offset: 0x2BA10C, size: 0x8, addend: 0x0, symName: __ZN8crashpad8internal24MinidumpStringListWriterINS0_25MinidumpUTF16StringWriterEED1Ev, symObjAddr: 0x804, symBinAddr: 0x1000293F8, symSize: 0x4 }
  - { offsetInCU: 0x141F3, offset: 0x2BA144, size: 0x8, addend: 0x0, symName: __ZN8crashpad8internal24MinidumpStringListWriterINS0_25MinidumpUTF16StringWriterEED0Ev, symObjAddr: 0x808, symBinAddr: 0x1000293FC, symSize: 0x14 }
  - { offsetInCU: 0x14292, offset: 0x2BA1E3, size: 0x8, addend: 0x0, symName: __ZN8crashpad8internal24MinidumpStringListWriterINS0_25MinidumpUTF16StringWriterEE20InitializeFromVectorERKNSt3__16vectorINS4_12basic_stringIcNS4_11char_traitsIcEENS4_9allocatorIcEEEENS9_ISB_EEEE, symObjAddr: 0x81C, symBinAddr: 0x100029410, symSize: 0x48 }
  - { offsetInCU: 0x1436F, offset: 0x2BA2C0, size: 0x8, addend: 0x0, symName: __ZN8crashpad8internal24MinidumpStringListWriterINS0_25MinidumpUTF16StringWriterEE13AddStringUTF8ERKNSt3__112basic_stringIcNS4_11char_traitsIcEENS4_9allocatorIcEEEE, symObjAddr: 0x864, symBinAddr: 0x100029458, symSize: 0x13C }
  - { offsetInCU: 0x14D6F, offset: 0x2BACC0, size: 0x8, addend: 0x0, symName: __ZNSt3__110unique_ptrIN8crashpad8internal25MinidumpUTF16StringWriterENS_14default_deleteIS3_EEED1B8ue170006Ev, symObjAddr: 0xA18, symBinAddr: 0x10002960C, symSize: 0x78 }
  - { offsetInCU: 0x14FFA, offset: 0x2BAF4B, size: 0x8, addend: 0x0, symName: __ZN8crashpad8internal25MinidumpUTF16StringWriter7SetUTF8ERKNSt3__112basic_stringIcNS2_11char_traitsIcEENS2_9allocatorIcEEEE, symObjAddr: 0x9A0, symBinAddr: 0x100029594, symSize: 0x78 }
  - { offsetInCU: 0x153D1, offset: 0x2BB322, size: 0x8, addend: 0x0, symName: __ZNK8crashpad8internal24MinidumpStringListWriterINS0_25MinidumpUTF16StringWriterEE8IsUsefulEv, symObjAddr: 0xA90, symBinAddr: 0x100029684, symSize: 0x10 }
  - { offsetInCU: 0x153FC, offset: 0x2BB34D, size: 0x8, addend: 0x0, symName: __ZNK8crashpad8internal24MinidumpStringListWriterINS0_25MinidumpUTF16StringWriterEE8IsUsefulEv, symObjAddr: 0xA90, symBinAddr: 0x100029684, symSize: 0x10 }
  - { offsetInCU: 0x15419, offset: 0x2BB36A, size: 0x8, addend: 0x0, symName: __ZNK8crashpad8internal24MinidumpStringListWriterINS0_25MinidumpUTF16StringWriterEE8IsUsefulEv, symObjAddr: 0xA90, symBinAddr: 0x100029684, symSize: 0x10 }
  - { offsetInCU: 0x15454, offset: 0x2BB3A5, size: 0x8, addend: 0x0, symName: __ZN8crashpad8internal24MinidumpStringListWriterINS0_24MinidumpUTF8StringWriterEEC2Ev, symObjAddr: 0xAA0, symBinAddr: 0x100029694, symSize: 0x24 }
  - { offsetInCU: 0x15496, offset: 0x2BB3E7, size: 0x8, addend: 0x0, symName: __ZN8crashpad8internal24MinidumpStringListWriterINS0_24MinidumpUTF8StringWriterEEC1Ev, symObjAddr: 0xAC4, symBinAddr: 0x1000296B8, symSize: 0x24 }
  - { offsetInCU: 0x154DF, offset: 0x2BB430, size: 0x8, addend: 0x0, symName: __ZN8crashpad8internal24MinidumpStringListWriterINS0_24MinidumpUTF8StringWriterEED2Ev, symObjAddr: 0xAE8, symBinAddr: 0x1000296DC, symSize: 0x4 }
  - { offsetInCU: 0x1551C, offset: 0x2BB46D, size: 0x8, addend: 0x0, symName: __ZN8crashpad8internal24MinidumpStringListWriterINS0_24MinidumpUTF8StringWriterEED1Ev, symObjAddr: 0xAEC, symBinAddr: 0x1000296E0, symSize: 0x4 }
  - { offsetInCU: 0x1553F, offset: 0x2BB490, size: 0x8, addend: 0x0, symName: __ZN8crashpad8internal24MinidumpStringListWriterINS0_24MinidumpUTF8StringWriterEED1Ev, symObjAddr: 0xAEC, symBinAddr: 0x1000296E0, symSize: 0x4 }
  - { offsetInCU: 0x15577, offset: 0x2BB4C8, size: 0x8, addend: 0x0, symName: __ZN8crashpad8internal24MinidumpStringListWriterINS0_24MinidumpUTF8StringWriterEED0Ev, symObjAddr: 0xAF0, symBinAddr: 0x1000296E4, symSize: 0x14 }
  - { offsetInCU: 0x155DE, offset: 0x2BB52F, size: 0x8, addend: 0x0, symName: __ZN8crashpad8internal24MinidumpStringListWriterINS0_24MinidumpUTF8StringWriterEE20InitializeFromVectorERKNSt3__16vectorINS4_12basic_stringIcNS4_11char_traitsIcEENS4_9allocatorIcEEEENS9_ISB_EEEE, symObjAddr: 0xB04, symBinAddr: 0x1000296F8, symSize: 0x48 }
  - { offsetInCU: 0x156BB, offset: 0x2BB60C, size: 0x8, addend: 0x0, symName: __ZN8crashpad8internal24MinidumpStringListWriterINS0_24MinidumpUTF8StringWriterEE13AddStringUTF8ERKNSt3__112basic_stringIcNS4_11char_traitsIcEENS4_9allocatorIcEEEE, symObjAddr: 0xB4C, symBinAddr: 0x100029740, symSize: 0x104 }
  - { offsetInCU: 0x15D67, offset: 0x2BBCB8, size: 0x8, addend: 0x0, symName: __ZNSt3__110unique_ptrIN8crashpad8internal24MinidumpUTF8StringWriterENS_14default_deleteIS3_EEED1B8ue170006Ev, symObjAddr: 0xC50, symBinAddr: 0x100029844, symSize: 0x78 }
  - { offsetInCU: 0x1609A, offset: 0x2BBFEB, size: 0x8, addend: 0x0, symName: __ZNK8crashpad8internal24MinidumpStringListWriterINS0_24MinidumpUTF8StringWriterEE8IsUsefulEv, symObjAddr: 0xCC8, symBinAddr: 0x1000298BC, symSize: 0x10 }
  - { offsetInCU: 0x160C5, offset: 0x2BC016, size: 0x8, addend: 0x0, symName: __ZNK8crashpad8internal24MinidumpStringListWriterINS0_24MinidumpUTF8StringWriterEE8IsUsefulEv, symObjAddr: 0xCC8, symBinAddr: 0x1000298BC, symSize: 0x10 }
  - { offsetInCU: 0x160E2, offset: 0x2BC033, size: 0x8, addend: 0x0, symName: __ZNK8crashpad8internal24MinidumpStringListWriterINS0_24MinidumpUTF8StringWriterEE8IsUsefulEv, symObjAddr: 0xCC8, symBinAddr: 0x1000298BC, symSize: 0x10 }
  - { offsetInCU: 0x16102, offset: 0x2BC053, size: 0x8, addend: 0x0, symName: __ZN8crashpad8internal25MinidumpUTF16StringWriterD2Ev, symObjAddr: 0xCD8, symBinAddr: 0x1000298CC, symSize: 0x60 }
  - { offsetInCU: 0x162F4, offset: 0x2BC245, size: 0x8, addend: 0x0, symName: __ZN8crashpad8internal25MinidumpUTF16StringWriterD1Ev, symObjAddr: 0xD38, symBinAddr: 0x10002992C, symSize: 0x60 }
  - { offsetInCU: 0x16506, offset: 0x2BC457, size: 0x8, addend: 0x0, symName: __ZN8crashpad8internal25MinidumpUTF16StringWriterD0Ev, symObjAddr: 0xD98, symBinAddr: 0x10002998C, symSize: 0x64 }
  - { offsetInCU: 0x1672A, offset: 0x2BC67B, size: 0x8, addend: 0x0, symName: __ZN8crashpad8internal24MinidumpUTF8StringWriterD2Ev, symObjAddr: 0xDFC, symBinAddr: 0x1000299F0, symSize: 0x60 }
  - { offsetInCU: 0x1691C, offset: 0x2BC86D, size: 0x8, addend: 0x0, symName: __ZN8crashpad8internal24MinidumpUTF8StringWriterD1Ev, symObjAddr: 0xE5C, symBinAddr: 0x100029A50, symSize: 0x60 }
  - { offsetInCU: 0x16B2E, offset: 0x2BCA7F, size: 0x8, addend: 0x0, symName: __ZN8crashpad8internal24MinidumpUTF8StringWriterD0Ev, symObjAddr: 0xEBC, symBinAddr: 0x100029AB0, symSize: 0x64 }
  - { offsetInCU: 0x17098, offset: 0x2BCFE9, size: 0x8, addend: 0x0, symName: __ZNSt3__112basic_stringIDsNS_11char_traitsIDsEENS_9allocatorIDsEEE17__assign_no_aliasILb0EEERS5_PKDsm, symObjAddr: 0x10FC, symBinAddr: 0x100029C48, symSize: 0x12C }
  - { offsetInCU: 0x1779C, offset: 0x2BD6ED, size: 0x8, addend: 0x0, symName: __ZNKSt3__112basic_stringIDsNS_11char_traitsIDsEENS_9allocatorIDsEEE20__throw_length_errorB8ue170006Ev, symObjAddr: 0x1228, symBinAddr: 0x100029D74, symSize: 0x14 }
  - { offsetInCU: 0x177B1, offset: 0x2BD702, size: 0x8, addend: 0x0, symName: __ZNKSt3__112basic_stringIDsNS_11char_traitsIDsEENS_9allocatorIDsEEE20__throw_length_errorB8ue170006Ev, symObjAddr: 0x1228, symBinAddr: 0x100029D74, symSize: 0x14 }
  - { offsetInCU: 0xB374, offset: 0x2C8EE7, size: 0x8, addend: 0x0, symName: __ZN8crashpad24MinidumpSystemInfoWriterC2Ev, symObjAddr: 0x0, symBinAddr: 0x100029D88, symSize: 0x34 }
  - { offsetInCU: 0xB45B, offset: 0x2C8FCE, size: 0x8, addend: 0x0, symName: __ZN8crashpad24MinidumpSystemInfoWriterC1Ev, symObjAddr: 0x34, symBinAddr: 0x100029DBC, symSize: 0x34 }
  - { offsetInCU: 0xB5D3, offset: 0x2C9146, size: 0x8, addend: 0x0, symName: __ZN8crashpad24MinidumpSystemInfoWriterD2Ev, symObjAddr: 0x68, symBinAddr: 0x100029DF0, symSize: 0x34 }
  - { offsetInCU: 0xB6AD, offset: 0x2C9220, size: 0x8, addend: 0x0, symName: __ZN8crashpad24MinidumpSystemInfoWriterD1Ev, symObjAddr: 0x9C, symBinAddr: 0x100029E24, symSize: 0x34 }
  - { offsetInCU: 0xB7A7, offset: 0x2C931A, size: 0x8, addend: 0x0, symName: __ZN8crashpad24MinidumpSystemInfoWriterD0Ev, symObjAddr: 0xD0, symBinAddr: 0x100029E58, symSize: 0x38 }
  - { offsetInCU: 0xBD0E, offset: 0x2C9881, size: 0x8, addend: 0x0, symName: __ZN8crashpad24MinidumpSystemInfoWriter22InitializeFromSnapshotEPKNS_14SystemSnapshotE, symObjAddr: 0x108, symBinAddr: 0x100029E90, symSize: 0x4B8 }
  - { offsetInCU: 0xC801, offset: 0x2CA374, size: 0x8, addend: 0x0, symName: __ZN8crashpad24MinidumpSystemInfoWriter21SetCPUX86VendorStringERKNSt3__112basic_stringIcNS1_11char_traitsIcEENS1_9allocatorIcEEEE, symObjAddr: 0x5C0, symBinAddr: 0x10002A348, symSize: 0xB8 }
  - { offsetInCU: 0xC908, offset: 0x2CA47B, size: 0x8, addend: 0x0, symName: __ZN8crashpad24MinidumpSystemInfoWriter27SetCPUX86VersionAndFeaturesEjj, symObjAddr: 0x678, symBinAddr: 0x10002A400, symSize: 0x8 }
  - { offsetInCU: 0xC939, offset: 0x2CA4AC, size: 0x8, addend: 0x0, symName: __ZN8crashpad24MinidumpSystemInfoWriter28SetCPUX86AMDExtendedFeaturesEj, symObjAddr: 0x680, symBinAddr: 0x10002A408, symSize: 0x8 }
  - { offsetInCU: 0xC962, offset: 0x2CA4D5, size: 0x8, addend: 0x0, symName: __ZN8crashpad24MinidumpSystemInfoWriter19SetCPUOtherFeaturesEyy, symObjAddr: 0x688, symBinAddr: 0x10002A410, symSize: 0x8 }
  - { offsetInCU: 0xC993, offset: 0x2CA506, size: 0x8, addend: 0x0, symName: __ZN8crashpad24MinidumpSystemInfoWriter13SetCSDVersionERKNSt3__112basic_stringIcNS1_11char_traitsIcEENS1_9allocatorIcEEEE, symObjAddr: 0x690, symBinAddr: 0x10002A418, symSize: 0x9C }
  - { offsetInCU: 0xCA83, offset: 0x2CA5F6, size: 0x8, addend: 0x0, symName: __ZN8crashpad24MinidumpSystemInfoWriter15SetCPUX86VendorEjjj, symObjAddr: 0x72C, symBinAddr: 0x10002A4B4, symSize: 0xC }
  - { offsetInCU: 0xCB60, offset: 0x2CA6D3, size: 0x8, addend: 0x0, symName: __ZN8crashpad24MinidumpSystemInfoWriter6FreezeEv, symObjAddr: 0x738, symBinAddr: 0x10002A4C0, symSize: 0xCC }
  - { offsetInCU: 0xCC63, offset: 0x2CA7D6, size: 0x8, addend: 0x0, symName: __ZN8crashpad24MinidumpSystemInfoWriter12SizeOfObjectEv, symObjAddr: 0x804, symBinAddr: 0x10002A58C, symSize: 0x8 }
  - { offsetInCU: 0xCE2F, offset: 0x2CA9A2, size: 0x8, addend: 0x0, symName: __ZN8crashpad24MinidumpSystemInfoWriter8ChildrenEv, symObjAddr: 0x80C, symBinAddr: 0x10002A594, symSize: 0x3C }
  - { offsetInCU: 0xD03B, offset: 0x2CABAE, size: 0x8, addend: 0x0, symName: __ZN8crashpad24MinidumpSystemInfoWriter11WriteObjectEPNS_19FileWriterInterfaceE, symObjAddr: 0x848, symBinAddr: 0x10002A5D0, symSize: 0x1C }
  - { offsetInCU: 0xD090, offset: 0x2CAC03, size: 0x8, addend: 0x0, symName: __ZNK8crashpad24MinidumpSystemInfoWriter10StreamTypeEv, symObjAddr: 0x864, symBinAddr: 0x10002A5EC, symSize: 0x8 }
  - { offsetInCU: 0x26, offset: 0x2CB540, size: 0x8, addend: 0x0, symName: __ZN8crashpad24BuildMinidumpThreadIDMapERKNSt3__16vectorIPKNS_14ThreadSnapshotENS0_9allocatorIS4_EEEEPNS0_3mapIyjNS0_4lessIyEENS5_INS0_4pairIKyjEEEEEE, symObjAddr: 0x0, symBinAddr: 0x10002A5F4, symSize: 0x33C }
  - { offsetInCU: 0x5A05, offset: 0x2D0F1F, size: 0x8, addend: 0x0, symName: __ZN8crashpad24BuildMinidumpThreadIDMapERKNSt3__16vectorIPKNS_14ThreadSnapshotENS0_9allocatorIS4_EEEEPNS0_3mapIyjNS0_4lessIyEENS5_INS0_4pairIKyjEEEEEE, symObjAddr: 0x0, symBinAddr: 0x10002A5F4, symSize: 0x33C }
  - { offsetInCU: 0x9838, offset: 0x2D4D52, size: 0x8, addend: 0x0, symName: __ZNSt3__16__treeIjNS_4lessIjEENS_9allocatorIjEEE7destroyEPNS_11__tree_nodeIjPvEE, symObjAddr: 0x33C, symBinAddr: 0x10002A930, symSize: 0x40 }
  - { offsetInCU: 0x12307, offset: 0x2E7299, size: 0x8, addend: 0x0, symName: __ZN8crashpad24MinidumpThreadNameWriterC2Ev, symObjAddr: 0x0, symBinAddr: 0x10002A970, symSize: 0x2C }
  - { offsetInCU: 0x123E9, offset: 0x2E737B, size: 0x8, addend: 0x0, symName: __ZN8crashpad24MinidumpThreadNameWriterC1Ev, symObjAddr: 0x2C, symBinAddr: 0x10002A99C, symSize: 0x2C }
  - { offsetInCU: 0x12557, offset: 0x2E74E9, size: 0x8, addend: 0x0, symName: __ZN8crashpad24MinidumpThreadNameWriterD2Ev, symObjAddr: 0x58, symBinAddr: 0x10002A9C8, symSize: 0x34 }
  - { offsetInCU: 0x12631, offset: 0x2E75C3, size: 0x8, addend: 0x0, symName: __ZN8crashpad24MinidumpThreadNameWriterD1Ev, symObjAddr: 0x8C, symBinAddr: 0x10002A9FC, symSize: 0x34 }
  - { offsetInCU: 0x1272B, offset: 0x2E76BD, size: 0x8, addend: 0x0, symName: __ZN8crashpad24MinidumpThreadNameWriterD0Ev, symObjAddr: 0xC0, symBinAddr: 0x10002AA30, symSize: 0x38 }
  - { offsetInCU: 0x12B07, offset: 0x2E7A99, size: 0x8, addend: 0x0, symName: __ZN8crashpad24MinidumpThreadNameWriter22InitializeFromSnapshotEPKNS_14ThreadSnapshotERKNSt3__13mapIyjNS4_4lessIyEENS4_9allocatorINS4_4pairIKyjEEEEEE, symObjAddr: 0xF8, symBinAddr: 0x10002AA68, symSize: 0x13C }
  - { offsetInCU: 0x12FF2, offset: 0x2E7F84, size: 0x8, addend: 0x0, symName: __ZN8crashpad24MinidumpThreadNameWriter13SetThreadNameERKNSt3__112basic_stringIcNS1_11char_traitsIcEENS1_9allocatorIcEEEE, symObjAddr: 0x234, symBinAddr: 0x10002ABA4, symSize: 0x9C }
  - { offsetInCU: 0x130E2, offset: 0x2E8074, size: 0x8, addend: 0x0, symName: __ZNK8crashpad24MinidumpThreadNameWriter15RvaOfThreadNameEv, symObjAddr: 0x2D0, symBinAddr: 0x10002AC40, symSize: 0x8 }
  - { offsetInCU: 0x13105, offset: 0x2E8097, size: 0x8, addend: 0x0, symName: __ZNK8crashpad24MinidumpThreadNameWriter8ThreadIdEv, symObjAddr: 0x2D8, symBinAddr: 0x10002AC48, symSize: 0x8 }
  - { offsetInCU: 0x13128, offset: 0x2E80BA, size: 0x8, addend: 0x0, symName: __ZN8crashpad24MinidumpThreadNameWriter6FreezeEv, symObjAddr: 0x2E0, symBinAddr: 0x10002AC50, symSize: 0x2C }
  - { offsetInCU: 0x13172, offset: 0x2E8104, size: 0x8, addend: 0x0, symName: __ZN8crashpad24MinidumpThreadNameWriter12SizeOfObjectEv, symObjAddr: 0x30C, symBinAddr: 0x10002AC7C, symSize: 0x8 }
  - { offsetInCU: 0x1337C, offset: 0x2E830E, size: 0x8, addend: 0x0, symName: __ZN8crashpad24MinidumpThreadNameWriter8ChildrenEv, symObjAddr: 0x314, symBinAddr: 0x10002AC84, symSize: 0x3C }
  - { offsetInCU: 0x135D5, offset: 0x2E8567, size: 0x8, addend: 0x0, symName: __ZN8crashpad24MinidumpThreadNameWriter11WriteObjectEPNS_19FileWriterInterfaceE, symObjAddr: 0x350, symBinAddr: 0x10002ACC0, symSize: 0x8 }
  - { offsetInCU: 0x13659, offset: 0x2E85EB, size: 0x8, addend: 0x0, symName: __ZN8crashpad28MinidumpThreadNameListWriterC2Ev, symObjAddr: 0x358, symBinAddr: 0x10002ACC8, symSize: 0x28 }
  - { offsetInCU: 0x136DE, offset: 0x2E8670, size: 0x8, addend: 0x0, symName: __ZN8crashpad28MinidumpThreadNameListWriterC1Ev, symObjAddr: 0x380, symBinAddr: 0x10002ACF0, symSize: 0x28 }
  - { offsetInCU: 0x13912, offset: 0x2E88A4, size: 0x8, addend: 0x0, symName: __ZN8crashpad28MinidumpThreadNameListWriterD2Ev, symObjAddr: 0x3A8, symBinAddr: 0x10002AD18, symSize: 0x88 }
  - { offsetInCU: 0x13C3E, offset: 0x2E8BD0, size: 0x8, addend: 0x0, symName: __ZN8crashpad28MinidumpThreadNameListWriterD1Ev, symObjAddr: 0x430, symBinAddr: 0x10002ADA0, symSize: 0x4 }
  - { offsetInCU: 0x13C62, offset: 0x2E8BF4, size: 0x8, addend: 0x0, symName: __ZN8crashpad28MinidumpThreadNameListWriterD1Ev, symObjAddr: 0x430, symBinAddr: 0x10002ADA0, symSize: 0x4 }
  - { offsetInCU: 0x13C90, offset: 0x2E8C22, size: 0x8, addend: 0x0, symName: __ZN8crashpad28MinidumpThreadNameListWriterD0Ev, symObjAddr: 0x434, symBinAddr: 0x10002ADA4, symSize: 0x14 }
  - { offsetInCU: 0x140A5, offset: 0x2E9037, size: 0x8, addend: 0x0, symName: __ZN8crashpad28MinidumpThreadNameListWriter22InitializeFromSnapshotERKNSt3__16vectorIPKNS_14ThreadSnapshotENS1_9allocatorIS5_EEEERKNS1_3mapIyjNS1_4lessIyEENS6_INS1_4pairIKyjEEEEEE, symObjAddr: 0x448, symBinAddr: 0x10002ADB8, symSize: 0x15C }
  - { offsetInCU: 0x148A2, offset: 0x2E9834, size: 0x8, addend: 0x0, symName: __ZNSt3__16vectorINS_10unique_ptrIN8crashpad24MinidumpThreadNameWriterENS_14default_deleteIS3_EEEENS_9allocatorIS6_EEE24__emplace_back_slow_pathIJS6_EEEvDpOT_, symObjAddr: 0xD60, symBinAddr: 0x10002B614, symSize: 0x13C }
  - { offsetInCU: 0x14FF6, offset: 0x2E9F88, size: 0x8, addend: 0x0, symName: __ZNKSt3__16vectorINS_10unique_ptrIN8crashpad24MinidumpThreadNameWriterENS_14default_deleteIS3_EEEENS_9allocatorIS6_EEE20__throw_length_errorB8ue170006Ev, symObjAddr: 0xE9C, symBinAddr: 0x10002B750, symSize: 0x14 }
  - { offsetInCU: 0x1500C, offset: 0x2E9F9E, size: 0x8, addend: 0x0, symName: __ZNSt3__110unique_ptrIN8crashpad24MinidumpThreadNameWriterENS_14default_deleteIS2_EEED1B8ue170006Ev, symObjAddr: 0x5CC, symBinAddr: 0x10002AF3C, symSize: 0x4C }
  - { offsetInCU: 0x1517C, offset: 0x2EA10E, size: 0x8, addend: 0x0, symName: __ZN8crashpad28MinidumpThreadNameListWriter13AddThreadNameENSt3__110unique_ptrINS_24MinidumpThreadNameWriterENS1_14default_deleteIS3_EEEE, symObjAddr: 0x5A4, symBinAddr: 0x10002AF14, symSize: 0x28 }
  - { offsetInCU: 0x15424, offset: 0x2EA3B6, size: 0x8, addend: 0x0, symName: __ZN8crashpad28MinidumpThreadNameListWriter6FreezeEv, symObjAddr: 0x618, symBinAddr: 0x10002AF88, symSize: 0xD4 }
  - { offsetInCU: 0x1552D, offset: 0x2EA4BF, size: 0x8, addend: 0x0, symName: __ZN8crashpad28MinidumpThreadNameListWriter12SizeOfObjectEv, symObjAddr: 0x6EC, symBinAddr: 0x10002B05C, symSize: 0x1C }
  - { offsetInCU: 0x15558, offset: 0x2EA4EA, size: 0x8, addend: 0x0, symName: __ZN8crashpad28MinidumpThreadNameListWriter12SizeOfObjectEv, symObjAddr: 0x6EC, symBinAddr: 0x10002B05C, symSize: 0x1C }
  - { offsetInCU: 0x1594E, offset: 0x2EA8E0, size: 0x8, addend: 0x0, symName: __ZN8crashpad28MinidumpThreadNameListWriter8ChildrenEv, symObjAddr: 0x708, symBinAddr: 0x10002B078, symSize: 0x1B8 }
  - { offsetInCU: 0x16BCB, offset: 0x2EBB5D, size: 0x8, addend: 0x0, symName: __ZN8crashpad28MinidumpThreadNameListWriter11WriteObjectEPNS_19FileWriterInterfaceE, symObjAddr: 0x8C0, symBinAddr: 0x10002B230, symSize: 0x3DC }
  - { offsetInCU: 0x1827E, offset: 0x2ED210, size: 0x8, addend: 0x0, symName: __ZNKSt3__16vectorI20MINIDUMP_THREAD_NAMENS_9allocatorIS1_EEE20__throw_length_errorB8ue170006Ev, symObjAddr: 0xEC4, symBinAddr: 0x10002B764, symSize: 0x14 }
  - { offsetInCU: 0x182CB, offset: 0x2ED25D, size: 0x8, addend: 0x0, symName: __ZNKSt3__16vectorI20MINIDUMP_THREAD_NAMENS_9allocatorIS1_EEE20__throw_length_errorB8ue170006Ev, symObjAddr: 0xEC4, symBinAddr: 0x10002B764, symSize: 0x14 }
  - { offsetInCU: 0x182D6, offset: 0x2ED268, size: 0x8, addend: 0x0, symName: __ZNK8crashpad28MinidumpThreadNameListWriter10StreamTypeEv, symObjAddr: 0xC9C, symBinAddr: 0x10002B60C, symSize: 0x8 }
  - { offsetInCU: 0x18528, offset: 0x2ED4BA, size: 0x8, addend: 0x0, symName: __ZNKSt3__16vectorINS_10unique_ptrIN8crashpad24MinidumpThreadNameWriterENS_14default_deleteIS3_EEEENS_9allocatorIS6_EEE20__throw_length_errorB8ue170006Ev, symObjAddr: 0xE9C, symBinAddr: 0x10002B750, symSize: 0x14 }
  - { offsetInCU: 0x140D8, offset: 0x3019DC, size: 0x8, addend: 0x0, symName: __ZN8crashpad20MinidumpThreadWriterC2Ev, symObjAddr: 0x0, symBinAddr: 0x10002B778, symSize: 0x34 }
  - { offsetInCU: 0x141C8, offset: 0x301ACC, size: 0x8, addend: 0x0, symName: __ZN8crashpad20MinidumpThreadWriterC1Ev, symObjAddr: 0x34, symBinAddr: 0x10002B7AC, symSize: 0x34 }
  - { offsetInCU: 0x143D3, offset: 0x301CD7, size: 0x8, addend: 0x0, symName: __ZN8crashpad20MinidumpThreadWriterD2Ev, symObjAddr: 0x68, symBinAddr: 0x10002B7E0, symSize: 0x50 }
  - { offsetInCU: 0x14560, offset: 0x301E64, size: 0x8, addend: 0x0, symName: __ZN8crashpad20MinidumpThreadWriterD1Ev, symObjAddr: 0xB8, symBinAddr: 0x10002B830, symSize: 0x50 }
  - { offsetInCU: 0x1470D, offset: 0x302011, size: 0x8, addend: 0x0, symName: __ZN8crashpad20MinidumpThreadWriterD0Ev, symObjAddr: 0x108, symBinAddr: 0x10002B880, symSize: 0x54 }
  - { offsetInCU: 0x14B9D, offset: 0x3024A1, size: 0x8, addend: 0x0, symName: __ZN8crashpad20MinidumpThreadWriter22InitializeFromSnapshotEPKNS_14ThreadSnapshotEPKNSt3__13mapIyjNS4_4lessIyEENS4_9allocatorINS4_4pairIKyjEEEEEE, symObjAddr: 0x15C, symBinAddr: 0x10002B8D4, symSize: 0x180 }
  - { offsetInCU: 0x150B7, offset: 0x3029BB, size: 0x8, addend: 0x0, symName: __ZN8crashpad20MinidumpThreadWriter8SetStackENSt3__110unique_ptrINS_28SnapshotMinidumpMemoryWriterENS1_14default_deleteIS3_EEEE, symObjAddr: 0x2DC, symBinAddr: 0x10002BA54, symSize: 0x28 }
  - { offsetInCU: 0x15193, offset: 0x302A97, size: 0x8, addend: 0x0, symName: __ZN8crashpad20MinidumpThreadWriter10SetContextENSt3__110unique_ptrINS_21MinidumpContextWriterENS1_14default_deleteIS3_EEEE, symObjAddr: 0x304, symBinAddr: 0x10002BA7C, symSize: 0x28 }
  - { offsetInCU: 0x1526F, offset: 0x302B73, size: 0x8, addend: 0x0, symName: __ZNK8crashpad20MinidumpThreadWriter14MinidumpThreadEv, symObjAddr: 0x32C, symBinAddr: 0x10002BAA4, symSize: 0x8 }
  - { offsetInCU: 0x15387, offset: 0x302C8B, size: 0x8, addend: 0x0, symName: __ZN8crashpad20MinidumpThreadWriter6FreezeEv, symObjAddr: 0x334, symBinAddr: 0x10002BAAC, symSize: 0xF0 }
  - { offsetInCU: 0x154A5, offset: 0x302DA9, size: 0x8, addend: 0x0, symName: __ZN8crashpad20MinidumpThreadWriter12SizeOfObjectEv, symObjAddr: 0x424, symBinAddr: 0x10002BB9C, symSize: 0x8 }
  - { offsetInCU: 0x15890, offset: 0x303194, size: 0x8, addend: 0x0, symName: __ZN8crashpad20MinidumpThreadWriter8ChildrenEv, symObjAddr: 0x42C, symBinAddr: 0x10002BBA4, symSize: 0x1CC }
  - { offsetInCU: 0x15FFC, offset: 0x303900, size: 0x8, addend: 0x0, symName: __ZN8crashpad20MinidumpThreadWriter11WriteObjectEPNS_19FileWriterInterfaceE, symObjAddr: 0x5F8, symBinAddr: 0x10002BD70, symSize: 0x8 }
  - { offsetInCU: 0x161D6, offset: 0x303ADA, size: 0x8, addend: 0x0, symName: __ZN8crashpad24MinidumpThreadListWriterC2Ev, symObjAddr: 0x600, symBinAddr: 0x10002BD78, symSize: 0x2C }
  - { offsetInCU: 0x16218, offset: 0x303B1C, size: 0x8, addend: 0x0, symName: __ZN8crashpad24MinidumpThreadListWriterC1Ev, symObjAddr: 0x62C, symBinAddr: 0x10002BDA4, symSize: 0x2C }
  - { offsetInCU: 0x1640E, offset: 0x303D12, size: 0x8, addend: 0x0, symName: __ZN8crashpad24MinidumpThreadListWriterD2Ev, symObjAddr: 0x658, symBinAddr: 0x10002BDD0, symSize: 0xA4 }
  - { offsetInCU: 0x167ED, offset: 0x3040F1, size: 0x8, addend: 0x0, symName: __ZN8crashpad24MinidumpThreadListWriterD1Ev, symObjAddr: 0x6FC, symBinAddr: 0x10002BE74, symSize: 0x4 }
  - { offsetInCU: 0x16811, offset: 0x304115, size: 0x8, addend: 0x0, symName: __ZN8crashpad24MinidumpThreadListWriterD1Ev, symObjAddr: 0x6FC, symBinAddr: 0x10002BE74, symSize: 0x4 }
  - { offsetInCU: 0x1683F, offset: 0x304143, size: 0x8, addend: 0x0, symName: __ZN8crashpad24MinidumpThreadListWriterD0Ev, symObjAddr: 0x700, symBinAddr: 0x10002BE78, symSize: 0x14 }
  - { offsetInCU: 0x16D83, offset: 0x304687, size: 0x8, addend: 0x0, symName: __ZN8crashpad24MinidumpThreadListWriter22InitializeFromSnapshotERKNSt3__16vectorIPKNS_14ThreadSnapshotENS1_9allocatorIS5_EEEEPNS1_3mapIyjNS1_4lessIyEENS6_INS1_4pairIKyjEEEEEE, symObjAddr: 0x714, symBinAddr: 0x10002BE8C, symSize: 0x238 }
  - { offsetInCU: 0x17A65, offset: 0x305369, size: 0x8, addend: 0x0, symName: __ZNSt3__16vectorINS_10unique_ptrIN8crashpad20MinidumpThreadWriterENS_14default_deleteIS3_EEEENS_9allocatorIS6_EEE21__push_back_slow_pathIS6_EEvOT_, symObjAddr: 0xF28, symBinAddr: 0x10002C5E4, symSize: 0x158 }
  - { offsetInCU: 0x1826C, offset: 0x305B70, size: 0x8, addend: 0x0, symName: __ZNKSt3__16vectorINS_10unique_ptrIN8crashpad20MinidumpThreadWriterENS_14default_deleteIS3_EEEENS_9allocatorIS6_EEE20__throw_length_errorB8ue170006Ev, symObjAddr: 0x1080, symBinAddr: 0x10002C73C, symSize: 0x14 }
  - { offsetInCU: 0x18280, offset: 0x305B84, size: 0x8, addend: 0x0, symName: __ZNSt3__110unique_ptrIN8crashpad20MinidumpThreadWriterENS_14default_deleteIS2_EEED1B8ue170006Ev, symObjAddr: 0x9B4, symBinAddr: 0x10002C12C, symSize: 0x68 }
  - { offsetInCU: 0x184B9, offset: 0x305DBD, size: 0x8, addend: 0x0, symName: __ZN8crashpad24MinidumpThreadListWriter9AddThreadENSt3__110unique_ptrINS_20MinidumpThreadWriterENS1_14default_deleteIS3_EEEE, symObjAddr: 0x94C, symBinAddr: 0x10002C0C4, symSize: 0x68 }
  - { offsetInCU: 0x18723, offset: 0x306027, size: 0x8, addend: 0x0, symName: __ZN8crashpad24MinidumpThreadListWriter19SetMemoryListWriterEPNS_24MinidumpMemoryListWriterE, symObjAddr: 0xA1C, symBinAddr: 0x10002C194, symSize: 0x8 }
  - { offsetInCU: 0x18772, offset: 0x306076, size: 0x8, addend: 0x0, symName: __ZN8crashpad24MinidumpThreadListWriter6FreezeEv, symObjAddr: 0xA24, symBinAddr: 0x10002C19C, symSize: 0xD4 }
  - { offsetInCU: 0x1887B, offset: 0x30617F, size: 0x8, addend: 0x0, symName: __ZN8crashpad24MinidumpThreadListWriter12SizeOfObjectEv, symObjAddr: 0xAF8, symBinAddr: 0x10002C270, symSize: 0x1C }
  - { offsetInCU: 0x188A6, offset: 0x3061AA, size: 0x8, addend: 0x0, symName: __ZN8crashpad24MinidumpThreadListWriter12SizeOfObjectEv, symObjAddr: 0xAF8, symBinAddr: 0x10002C270, symSize: 0x1C }
  - { offsetInCU: 0x189B3, offset: 0x3062B7, size: 0x8, addend: 0x0, symName: __ZN8crashpad24MinidumpThreadListWriter8ChildrenEv, symObjAddr: 0xB14, symBinAddr: 0x10002C28C, symSize: 0x17C }
  - { offsetInCU: 0x195BF, offset: 0x306EC3, size: 0x8, addend: 0x0, symName: __ZN8crashpad24MinidumpThreadListWriter11WriteObjectEPNS_19FileWriterInterfaceE, symObjAddr: 0xC90, symBinAddr: 0x10002C408, symSize: 0x1D4 }
  - { offsetInCU: 0x1A026, offset: 0x30792A, size: 0x8, addend: 0x0, symName: __ZNK8crashpad24MinidumpThreadListWriter10StreamTypeEv, symObjAddr: 0xE64, symBinAddr: 0x10002C5DC, symSize: 0x8 }
  - { offsetInCU: 0x1A278, offset: 0x307B7C, size: 0x8, addend: 0x0, symName: __ZNKSt3__16vectorINS_10unique_ptrIN8crashpad20MinidumpThreadWriterENS_14default_deleteIS3_EEEENS_9allocatorIS6_EEE20__throw_length_errorB8ue170006Ev, symObjAddr: 0x1080, symBinAddr: 0x10002C73C, symSize: 0x14 }
  - { offsetInCU: 0xF6B9, offset: 0x317744, size: 0x8, addend: 0x0, symName: __ZN8crashpad28MinidumpUnloadedModuleWriterC2Ev, symObjAddr: 0x0, symBinAddr: 0x10002C750, symSize: 0x30 }
  - { offsetInCU: 0xF79B, offset: 0x317826, size: 0x8, addend: 0x0, symName: __ZN8crashpad28MinidumpUnloadedModuleWriterC1Ev, symObjAddr: 0x30, symBinAddr: 0x10002C780, symSize: 0x30 }
  - { offsetInCU: 0xF909, offset: 0x317994, size: 0x8, addend: 0x0, symName: __ZN8crashpad28MinidumpUnloadedModuleWriterD2Ev, symObjAddr: 0x60, symBinAddr: 0x10002C7B0, symSize: 0x34 }
  - { offsetInCU: 0xF9E3, offset: 0x317A6E, size: 0x8, addend: 0x0, symName: __ZN8crashpad28MinidumpUnloadedModuleWriterD1Ev, symObjAddr: 0x94, symBinAddr: 0x10002C7E4, symSize: 0x34 }
  - { offsetInCU: 0xFADD, offset: 0x317B68, size: 0x8, addend: 0x0, symName: __ZN8crashpad28MinidumpUnloadedModuleWriterD0Ev, symObjAddr: 0xC8, symBinAddr: 0x10002C818, symSize: 0x38 }
  - { offsetInCU: 0x100B6, offset: 0x318141, size: 0x8, addend: 0x0, symName: __ZN8crashpad28MinidumpUnloadedModuleWriter22InitializeFromSnapshotERKNS_22UnloadedModuleSnapshotE, symObjAddr: 0x100, symBinAddr: 0x10002C850, symSize: 0x200 }
  - { offsetInCU: 0x109B9, offset: 0x318A44, size: 0x8, addend: 0x0, symName: __ZN8crashpad28MinidumpUnloadedModuleWriter7SetNameERKNSt3__112basic_stringIcNS1_11char_traitsIcEENS1_9allocatorIcEEEE, symObjAddr: 0x300, symBinAddr: 0x10002CA50, symSize: 0x9C }
  - { offsetInCU: 0x10AA9, offset: 0x318B34, size: 0x8, addend: 0x0, symName: __ZN8crashpad28MinidumpUnloadedModuleWriter12SetTimestampEl, symObjAddr: 0x39C, symBinAddr: 0x10002CAEC, symSize: 0x8 }
  - { offsetInCU: 0x10AD4, offset: 0x318B5F, size: 0x8, addend: 0x0, symName: __ZNK8crashpad28MinidumpUnloadedModuleWriter22MinidumpUnloadedModuleEv, symObjAddr: 0x3A4, symBinAddr: 0x10002CAF4, symSize: 0x8 }
  - { offsetInCU: 0x10AF7, offset: 0x318B82, size: 0x8, addend: 0x0, symName: __ZN8crashpad28MinidumpUnloadedModuleWriter6FreezeEv, symObjAddr: 0x3AC, symBinAddr: 0x10002CAFC, symSize: 0xCC }
  - { offsetInCU: 0x10BF4, offset: 0x318C7F, size: 0x8, addend: 0x0, symName: __ZN8crashpad28MinidumpUnloadedModuleWriter12SizeOfObjectEv, symObjAddr: 0x478, symBinAddr: 0x10002CBC8, symSize: 0x8 }
  - { offsetInCU: 0x10DBF, offset: 0x318E4A, size: 0x8, addend: 0x0, symName: __ZN8crashpad28MinidumpUnloadedModuleWriter8ChildrenEv, symObjAddr: 0x480, symBinAddr: 0x10002CBD0, symSize: 0x3C }
  - { offsetInCU: 0x10FC7, offset: 0x319052, size: 0x8, addend: 0x0, symName: __ZN8crashpad28MinidumpUnloadedModuleWriter11WriteObjectEPNS_19FileWriterInterfaceE, symObjAddr: 0x4BC, symBinAddr: 0x10002CC0C, symSize: 0x8 }
  - { offsetInCU: 0x11012, offset: 0x31909D, size: 0x8, addend: 0x0, symName: __ZN8crashpad32MinidumpUnloadedModuleListWriterC2Ev, symObjAddr: 0x4C4, symBinAddr: 0x10002CC14, symSize: 0x2C }
  - { offsetInCU: 0x11054, offset: 0x3190DF, size: 0x8, addend: 0x0, symName: __ZN8crashpad32MinidumpUnloadedModuleListWriterC1Ev, symObjAddr: 0x4F0, symBinAddr: 0x10002CC40, symSize: 0x2C }
  - { offsetInCU: 0x1124A, offset: 0x3192D5, size: 0x8, addend: 0x0, symName: __ZN8crashpad32MinidumpUnloadedModuleListWriterD2Ev, symObjAddr: 0x51C, symBinAddr: 0x10002CC6C, symSize: 0x88 }
  - { offsetInCU: 0x11576, offset: 0x319601, size: 0x8, addend: 0x0, symName: __ZN8crashpad32MinidumpUnloadedModuleListWriterD1Ev, symObjAddr: 0x5A4, symBinAddr: 0x10002CCF4, symSize: 0x4 }
  - { offsetInCU: 0x1159A, offset: 0x319625, size: 0x8, addend: 0x0, symName: __ZN8crashpad32MinidumpUnloadedModuleListWriterD1Ev, symObjAddr: 0x5A4, symBinAddr: 0x10002CCF4, symSize: 0x4 }
  - { offsetInCU: 0x115C8, offset: 0x319653, size: 0x8, addend: 0x0, symName: __ZN8crashpad32MinidumpUnloadedModuleListWriterD0Ev, symObjAddr: 0x5A8, symBinAddr: 0x10002CCF8, symSize: 0x14 }
  - { offsetInCU: 0x119D2, offset: 0x319A5D, size: 0x8, addend: 0x0, symName: __ZN8crashpad32MinidumpUnloadedModuleListWriter22InitializeFromSnapshotERKNSt3__16vectorINS_22UnloadedModuleSnapshotENS1_9allocatorIS3_EEEE, symObjAddr: 0x5BC, symBinAddr: 0x10002CD0C, symSize: 0x14C }
  - { offsetInCU: 0x121B9, offset: 0x31A244, size: 0x8, addend: 0x0, symName: __ZNSt3__16vectorINS_10unique_ptrIN8crashpad28MinidumpUnloadedModuleWriterENS_14default_deleteIS3_EEEENS_9allocatorIS6_EEE21__push_back_slow_pathIS6_EEvOT_, symObjAddr: 0xCA0, symBinAddr: 0x10002D320, symSize: 0x13C }
  - { offsetInCU: 0x1290D, offset: 0x31A998, size: 0x8, addend: 0x0, symName: __ZNKSt3__16vectorINS_10unique_ptrIN8crashpad28MinidumpUnloadedModuleWriterENS_14default_deleteIS3_EEEENS_9allocatorIS6_EEE20__throw_length_errorB8ue170006Ev, symObjAddr: 0xDDC, symBinAddr: 0x10002D45C, symSize: 0x14 }
  - { offsetInCU: 0x12921, offset: 0x31A9AC, size: 0x8, addend: 0x0, symName: __ZNSt3__110unique_ptrIN8crashpad28MinidumpUnloadedModuleWriterENS_14default_deleteIS2_EEED1B8ue170006Ev, symObjAddr: 0x730, symBinAddr: 0x10002CE80, symSize: 0x4C }
  - { offsetInCU: 0x12A91, offset: 0x31AB1C, size: 0x8, addend: 0x0, symName: __ZN8crashpad32MinidumpUnloadedModuleListWriter17AddUnloadedModuleENSt3__110unique_ptrINS_28MinidumpUnloadedModuleWriterENS1_14default_deleteIS3_EEEE, symObjAddr: 0x708, symBinAddr: 0x10002CE58, symSize: 0x28 }
  - { offsetInCU: 0x12C90, offset: 0x31AD1B, size: 0x8, addend: 0x0, symName: __ZN8crashpad32MinidumpUnloadedModuleListWriter6FreezeEv, symObjAddr: 0x77C, symBinAddr: 0x10002CECC, symSize: 0xE0 }
  - { offsetInCU: 0x12D99, offset: 0x31AE24, size: 0x8, addend: 0x0, symName: __ZN8crashpad32MinidumpUnloadedModuleListWriter12SizeOfObjectEv, symObjAddr: 0x85C, symBinAddr: 0x10002CFAC, symSize: 0x1C }
  - { offsetInCU: 0x12DC4, offset: 0x31AE4F, size: 0x8, addend: 0x0, symName: __ZN8crashpad32MinidumpUnloadedModuleListWriter12SizeOfObjectEv, symObjAddr: 0x85C, symBinAddr: 0x10002CFAC, symSize: 0x1C }
  - { offsetInCU: 0x13251, offset: 0x31B2DC, size: 0x8, addend: 0x0, symName: __ZN8crashpad32MinidumpUnloadedModuleListWriter8ChildrenEv, symObjAddr: 0x878, symBinAddr: 0x10002CFC8, symSize: 0x17C }
  - { offsetInCU: 0x1391C, offset: 0x31B9A7, size: 0x8, addend: 0x0, symName: __ZNSt3__16vectorINS_10unique_ptrIN8crashpad28MinidumpUnloadedModuleWriterENS_14default_deleteIS3_EEEENS_9allocatorIS6_EEE21__push_back_slow_pathIS6_EEvOT_, symObjAddr: 0xCA0, symBinAddr: 0x10002D320, symSize: 0x13C }
  - { offsetInCU: 0x13E9B, offset: 0x31BF26, size: 0x8, addend: 0x0, symName: __ZN8crashpad32MinidumpUnloadedModuleListWriter11WriteObjectEPNS_19FileWriterInterfaceE, symObjAddr: 0x9F4, symBinAddr: 0x10002D144, symSize: 0x1D4 }
  - { offsetInCU: 0x14902, offset: 0x31C98D, size: 0x8, addend: 0x0, symName: __ZNK8crashpad32MinidumpUnloadedModuleListWriter10StreamTypeEv, symObjAddr: 0xBC8, symBinAddr: 0x10002D318, symSize: 0x8 }
  - { offsetInCU: 0x14B54, offset: 0x31CBDF, size: 0x8, addend: 0x0, symName: __ZNKSt3__16vectorINS_10unique_ptrIN8crashpad28MinidumpUnloadedModuleWriterENS_14default_deleteIS3_EEEENS_9allocatorIS6_EEE20__throw_length_errorB8ue170006Ev, symObjAddr: 0xDDC, symBinAddr: 0x10002D45C, symSize: 0x14 }
  - { offsetInCU: 0x26, offset: 0x31CF7B, size: 0x8, addend: 0x0, symName: __ZN8crashpad24MinidumpUserStreamWriterC2Ev, symObjAddr: 0x0, symBinAddr: 0x10002D470, symSize: 0x28 }
  - { offsetInCU: 0x74E2, offset: 0x324437, size: 0x8, addend: 0x0, symName: __ZN8crashpad24MinidumpUserStreamWriterC2Ev, symObjAddr: 0x0, symBinAddr: 0x10002D470, symSize: 0x28 }
  - { offsetInCU: 0x75C9, offset: 0x32451E, size: 0x8, addend: 0x0, symName: __ZN8crashpad24MinidumpUserStreamWriterC1Ev, symObjAddr: 0x28, symBinAddr: 0x10002D498, symSize: 0x28 }
  - { offsetInCU: 0x7741, offset: 0x324696, size: 0x8, addend: 0x0, symName: __ZN8crashpad24MinidumpUserStreamWriterD2Ev, symObjAddr: 0x50, symBinAddr: 0x10002D4C0, symSize: 0x38 }
  - { offsetInCU: 0x7827, offset: 0x32477C, size: 0x8, addend: 0x0, symName: __ZN8crashpad24MinidumpUserStreamWriterD1Ev, symObjAddr: 0x88, symBinAddr: 0x10002D4F8, symSize: 0x38 }
  - { offsetInCU: 0x792D, offset: 0x324882, size: 0x8, addend: 0x0, symName: __ZN8crashpad24MinidumpUserStreamWriterD0Ev, symObjAddr: 0xC0, symBinAddr: 0x10002D530, symSize: 0x3C }
  - { offsetInCU: 0x7B09, offset: 0x324A5E, size: 0x8, addend: 0x0, symName: __ZN8crashpad24MinidumpUserStreamWriter22InitializeFromSnapshotEPKNS_18UserMinidumpStreamE, symObjAddr: 0xFC, symBinAddr: 0x10002D56C, symSize: 0x6C }
  - { offsetInCU: 0x7E64, offset: 0x324DB9, size: 0x8, addend: 0x0, symName: __ZN8crashpad24MinidumpUserStreamWriter33InitializeFromUserExtensionStreamENSt3__110unique_ptrINS_37MinidumpUserExtensionStreamDataSourceENS1_14default_deleteIS3_EEEE, symObjAddr: 0x168, symBinAddr: 0x10002D5D8, symSize: 0x80 }
  - { offsetInCU: 0x80B6, offset: 0x32500B, size: 0x8, addend: 0x0, symName: __ZN8crashpad24MinidumpUserStreamWriter6FreezeEv, symObjAddr: 0x1E8, symBinAddr: 0x10002D658, symSize: 0x4 }
  - { offsetInCU: 0x80F8, offset: 0x32504D, size: 0x8, addend: 0x0, symName: __ZN8crashpad24MinidumpUserStreamWriter12SizeOfObjectEv, symObjAddr: 0x1EC, symBinAddr: 0x10002D65C, symSize: 0x10 }
  - { offsetInCU: 0x8124, offset: 0x325079, size: 0x8, addend: 0x0, symName: __ZN8crashpad24MinidumpUserStreamWriter12SizeOfObjectEv, symObjAddr: 0x1EC, symBinAddr: 0x10002D65C, symSize: 0x10 }
  - { offsetInCU: 0x8182, offset: 0x3250D7, size: 0x8, addend: 0x0, symName: __ZN8crashpad24MinidumpUserStreamWriter8ChildrenEv, symObjAddr: 0x1FC, symBinAddr: 0x10002D66C, symSize: 0xC }
  - { offsetInCU: 0x81AA, offset: 0x3250FF, size: 0x8, addend: 0x0, symName: __ZN8crashpad24MinidumpUserStreamWriter8ChildrenEv, symObjAddr: 0x1FC, symBinAddr: 0x10002D66C, symSize: 0xC }
  - { offsetInCU: 0x81C7, offset: 0x32511C, size: 0x8, addend: 0x0, symName: __ZN8crashpad24MinidumpUserStreamWriter8ChildrenEv, symObjAddr: 0x1FC, symBinAddr: 0x10002D66C, symSize: 0xC }
  - { offsetInCU: 0x81E4, offset: 0x325139, size: 0x8, addend: 0x0, symName: __ZN8crashpad24MinidumpUserStreamWriter11WriteObjectEPNS_19FileWriterInterfaceE, symObjAddr: 0x208, symBinAddr: 0x10002D678, symSize: 0x10 }
  - { offsetInCU: 0x821D, offset: 0x325172, size: 0x8, addend: 0x0, symName: __ZN8crashpad24MinidumpUserStreamWriter11WriteObjectEPNS_19FileWriterInterfaceE, symObjAddr: 0x208, symBinAddr: 0x10002D678, symSize: 0x10 }
  - { offsetInCU: 0x824F, offset: 0x3251A4, size: 0x8, addend: 0x0, symName: __ZNK8crashpad24MinidumpUserStreamWriter10StreamTypeEv, symObjAddr: 0x218, symBinAddr: 0x10002D688, symSize: 0x8 }
  - { offsetInCU: 0x8278, offset: 0x3251CD, size: 0x8, addend: 0x0, symName: __ZN8crashpad24MinidumpUserStreamWriter22SnapshotContentsWriterD1Ev, symObjAddr: 0x220, symBinAddr: 0x10002D690, symSize: 0x4 }
  - { offsetInCU: 0x82A3, offset: 0x3251F8, size: 0x8, addend: 0x0, symName: __ZN8crashpad24MinidumpUserStreamWriter22SnapshotContentsWriterD0Ev, symObjAddr: 0x224, symBinAddr: 0x10002D694, symSize: 0x4 }
  - { offsetInCU: 0x82C4, offset: 0x325219, size: 0x8, addend: 0x0, symName: __ZN8crashpad24MinidumpUserStreamWriter22SnapshotContentsWriter13WriteContentsEPNS_19FileWriterInterfaceE, symObjAddr: 0x228, symBinAddr: 0x10002D698, symSize: 0x28 }
  - { offsetInCU: 0x8307, offset: 0x32525C, size: 0x8, addend: 0x0, symName: __ZNK8crashpad24MinidumpUserStreamWriter22SnapshotContentsWriter7GetSizeEv, symObjAddr: 0x250, symBinAddr: 0x10002D6C0, symSize: 0x18 }
  - { offsetInCU: 0x833A, offset: 0x32528F, size: 0x8, addend: 0x0, symName: __ZN8crashpad24MinidumpUserStreamWriter22SnapshotContentsWriter26MemorySnapshotDelegateReadEPvm, symObjAddr: 0x268, symBinAddr: 0x10002D6D8, symSize: 0x10 }
  - { offsetInCU: 0x8388, offset: 0x3252DD, size: 0x8, addend: 0x0, symName: __ZThn8_N8crashpad24MinidumpUserStreamWriter22SnapshotContentsWriterD1Ev, symObjAddr: 0x278, symBinAddr: 0x10002D6E8, symSize: 0x4 }
  - { offsetInCU: 0x83BA, offset: 0x32530F, size: 0x8, addend: 0x0, symName: __ZThn8_N8crashpad24MinidumpUserStreamWriter22SnapshotContentsWriterD0Ev, symObjAddr: 0x27C, symBinAddr: 0x10002D6EC, symSize: 0x8 }
  - { offsetInCU: 0x841A, offset: 0x32536F, size: 0x8, addend: 0x0, symName: __ZThn8_N8crashpad24MinidumpUserStreamWriter22SnapshotContentsWriter26MemorySnapshotDelegateReadEPvm, symObjAddr: 0x284, symBinAddr: 0x10002D6F4, symSize: 0x10 }
  - { offsetInCU: 0x8434, offset: 0x325389, size: 0x8, addend: 0x0, symName: __ZThn8_N8crashpad24MinidumpUserStreamWriter22SnapshotContentsWriter26MemorySnapshotDelegateReadEPvm, symObjAddr: 0x284, symBinAddr: 0x10002D6F4, symSize: 0x10 }
  - { offsetInCU: 0x8521, offset: 0x325476, size: 0x8, addend: 0x0, symName: __ZN8crashpad24MinidumpUserStreamWriter29ExtensionStreamContentsWriterD1Ev, symObjAddr: 0x294, symBinAddr: 0x10002D704, symSize: 0x38 }
  - { offsetInCU: 0x8622, offset: 0x325577, size: 0x8, addend: 0x0, symName: __ZN8crashpad24MinidumpUserStreamWriter29ExtensionStreamContentsWriterD0Ev, symObjAddr: 0x2CC, symBinAddr: 0x10002D73C, symSize: 0x38 }
  - { offsetInCU: 0x872F, offset: 0x325684, size: 0x8, addend: 0x0, symName: __ZN8crashpad24MinidumpUserStreamWriter29ExtensionStreamContentsWriter13WriteContentsEPNS_19FileWriterInterfaceE, symObjAddr: 0x304, symBinAddr: 0x10002D774, symSize: 0x1C }
  - { offsetInCU: 0x8792, offset: 0x3256E7, size: 0x8, addend: 0x0, symName: __ZNK8crashpad24MinidumpUserStreamWriter29ExtensionStreamContentsWriter7GetSizeEv, symObjAddr: 0x320, symBinAddr: 0x10002D790, symSize: 0x10 }
  - { offsetInCU: 0x87BC, offset: 0x325711, size: 0x8, addend: 0x0, symName: __ZNK8crashpad24MinidumpUserStreamWriter29ExtensionStreamContentsWriter7GetSizeEv, symObjAddr: 0x320, symBinAddr: 0x10002D790, symSize: 0x10 }
  - { offsetInCU: 0x87E5, offset: 0x32573A, size: 0x8, addend: 0x0, symName: __ZN8crashpad24MinidumpUserStreamWriter29ExtensionStreamContentsWriter29ExtensionStreamDataSourceReadEPKvm, symObjAddr: 0x330, symBinAddr: 0x10002D7A0, symSize: 0x10 }
  - { offsetInCU: 0x885F, offset: 0x3257B4, size: 0x8, addend: 0x0, symName: __ZThn8_N8crashpad24MinidumpUserStreamWriter29ExtensionStreamContentsWriter29ExtensionStreamDataSourceReadEPKvm, symObjAddr: 0x340, symBinAddr: 0x10002D7B0, symSize: 0x10 }
  - { offsetInCU: 0x8879, offset: 0x3257CE, size: 0x8, addend: 0x0, symName: __ZThn8_N8crashpad24MinidumpUserStreamWriter29ExtensionStreamContentsWriter29ExtensionStreamDataSourceReadEPKvm, symObjAddr: 0x340, symBinAddr: 0x10002D7B0, symSize: 0x10 }
  - { offsetInCU: 0x213, offset: 0x325A37, size: 0x8, addend: 0x0, symName: __ZN7logging17MakeCheckOpStringIxiEEPNSt3__112basic_stringIcNS1_11char_traitsIcEENS1_9allocatorIcEEEERKT_RKT0_PKc, symObjAddr: 0xF80, symBinAddr: 0x10002E684, symSize: 0x2A0 }
  - { offsetInCU: 0xE5F7, offset: 0x333E1B, size: 0x8, addend: 0x0, symName: __ZN8crashpad8internal16MinidumpWritable21WritePaddingAndObjectEPNS_19FileWriterInterfaceE, symObjAddr: 0x8B4, symBinAddr: 0x10002E074, symSize: 0x68 }
  - { offsetInCU: 0xE61C, offset: 0x333E40, size: 0x8, addend: 0x0, symName: __ZZN8crashpad8internal16MinidumpWritable21WritePaddingAndObjectEPNS_19FileWriterInterfaceEE7kZeroes, symObjAddr: 0x1B60, symBinAddr: 0x10007C398, symSize: 0x0 }
  - { offsetInCU: 0xE68C, offset: 0x333EB0, size: 0x8, addend: 0x0, symName: __ZN12_GLOBAL__N_117kMaximumAlignmentE, symObjAddr: 0x1B58, symBinAddr: 0x10007C390, symSize: 0x0 }
  - { offsetInCU: 0x10AEE, offset: 0x336312, size: 0x8, addend: 0x0, symName: __ZN8crashpad8internal16MinidumpWritableD2Ev, symObjAddr: 0x0, symBinAddr: 0x10002D7C0, symSize: 0x6C }
  - { offsetInCU: 0x11069, offset: 0x33688D, size: 0x8, addend: 0x0, symName: __ZN8crashpad8internal16MinidumpWritableD1Ev, symObjAddr: 0x6C, symBinAddr: 0x10002D82C, symSize: 0x4 }
  - { offsetInCU: 0x11092, offset: 0x3368B6, size: 0x8, addend: 0x0, symName: __ZN8crashpad8internal16MinidumpWritableD0Ev, symObjAddr: 0x70, symBinAddr: 0x10002D830, symSize: 0x4 }
  - { offsetInCU: 0x1123D, offset: 0x336A61, size: 0x8, addend: 0x0, symName: __ZN8crashpad8internal16MinidumpWritable15WriteEverythingEPNS_19FileWriterInterfaceE, symObjAddr: 0x74, symBinAddr: 0x10002D834, symSize: 0x158 }
  - { offsetInCU: 0x116DD, offset: 0x336F01, size: 0x8, addend: 0x0, symName: __ZN8crashpad8internal16MinidumpWritable17WillWriteAtOffsetENS1_5PhaseEPxPNSt3__16vectorIPS1_NS4_9allocatorIS6_EEEE, symObjAddr: 0x1CC, symBinAddr: 0x10002D98C, symSize: 0x6E8 }
  - { offsetInCU: 0x12A5D, offset: 0x338281, size: 0x8, addend: 0x0, symName: __ZN7logging17MakeCheckOpStringIxiEEPNSt3__112basic_stringIcNS1_11char_traitsIcEENS1_9allocatorIcEEEERKT_RKT0_PKc, symObjAddr: 0xF80, symBinAddr: 0x10002E684, symSize: 0x2A0 }
  - { offsetInCU: 0x12D80, offset: 0x3385A4, size: 0x8, addend: 0x0, symName: __ZN8crashpad8internal16MinidumpWritable11RegisterRVAEPj, symObjAddr: 0x91C, symBinAddr: 0x10002E0DC, symSize: 0x118 }
  - { offsetInCU: 0x131D4, offset: 0x3389F8, size: 0x8, addend: 0x0, symName: __ZN8crashpad8internal16MinidumpWritable11RegisterRVAEPy, symObjAddr: 0xA34, symBinAddr: 0x10002E1F4, symSize: 0x118 }
  - { offsetInCU: 0x131DF, offset: 0x338A03, size: 0x8, addend: 0x0, symName: __ZNKSt3__16vectorIPjNS_9allocatorIS1_EEE20__throw_length_errorB8ue170006Ev, symObjAddr: 0xE80, symBinAddr: 0x10002E634, symSize: 0x14 }
  - { offsetInCU: 0x1352C, offset: 0x338D50, size: 0x8, addend: 0x0, symName: __ZN8crashpad8internal16MinidumpWritable11RegisterRVAEPy, symObjAddr: 0xA34, symBinAddr: 0x10002E1F4, symSize: 0x118 }
  - { offsetInCU: 0x13980, offset: 0x3391A4, size: 0x8, addend: 0x0, symName: __ZN8crashpad8internal16MinidumpWritable26RegisterLocationDescriptorEP28MINIDUMP_LOCATION_DESCRIPTOR, symObjAddr: 0xB4C, symBinAddr: 0x10002E30C, symSize: 0x118 }
  - { offsetInCU: 0x1398B, offset: 0x3391AF, size: 0x8, addend: 0x0, symName: __ZNKSt3__16vectorIPyNS_9allocatorIS1_EEE20__throw_length_errorB8ue170006Ev, symObjAddr: 0xF30, symBinAddr: 0x10002E648, symSize: 0x14 }
  - { offsetInCU: 0x139B5, offset: 0x3391D9, size: 0x8, addend: 0x0, symName: __ZNKSt3__16vectorIP28MINIDUMP_LOCATION_DESCRIPTORNS_9allocatorIS2_EEE20__throw_length_errorB8ue170006Ev, symObjAddr: 0xF44, symBinAddr: 0x10002E65C, symSize: 0x14 }
  - { offsetInCU: 0x13CD8, offset: 0x3394FC, size: 0x8, addend: 0x0, symName: __ZN8crashpad8internal16MinidumpWritable26RegisterLocationDescriptorEP28MINIDUMP_LOCATION_DESCRIPTOR, symObjAddr: 0xB4C, symBinAddr: 0x10002E30C, symSize: 0x118 }
  - { offsetInCU: 0x1412C, offset: 0x339950, size: 0x8, addend: 0x0, symName: __ZN8crashpad8internal16MinidumpWritable26RegisterLocationDescriptorEP30MINIDUMP_LOCATION_DESCRIPTOR64, symObjAddr: 0xC64, symBinAddr: 0x10002E424, symSize: 0x118 }
  - { offsetInCU: 0x14137, offset: 0x33995B, size: 0x8, addend: 0x0, symName: __ZNKSt3__16vectorIP28MINIDUMP_LOCATION_DESCRIPTORNS_9allocatorIS2_EEE20__throw_length_errorB8ue170006Ev, symObjAddr: 0xF44, symBinAddr: 0x10002E65C, symSize: 0x14 }
  - { offsetInCU: 0x14161, offset: 0x339985, size: 0x8, addend: 0x0, symName: __ZNKSt3__16vectorIP30MINIDUMP_LOCATION_DESCRIPTOR64NS_9allocatorIS2_EEE20__throw_length_errorB8ue170006Ev, symObjAddr: 0xF58, symBinAddr: 0x10002E670, symSize: 0x14 }
  - { offsetInCU: 0x14484, offset: 0x339CA8, size: 0x8, addend: 0x0, symName: __ZN8crashpad8internal16MinidumpWritable26RegisterLocationDescriptorEP30MINIDUMP_LOCATION_DESCRIPTOR64, symObjAddr: 0xC64, symBinAddr: 0x10002E424, symSize: 0x118 }
  - { offsetInCU: 0x148D7, offset: 0x33A0FB, size: 0x8, addend: 0x0, symName: __ZN8crashpad8internal16MinidumpWritableC2Ev, symObjAddr: 0xD7C, symBinAddr: 0x10002E53C, symSize: 0x30 }
  - { offsetInCU: 0x148E2, offset: 0x33A106, size: 0x8, addend: 0x0, symName: __ZNKSt3__16vectorIP30MINIDUMP_LOCATION_DESCRIPTOR64NS_9allocatorIS2_EEE20__throw_length_errorB8ue170006Ev, symObjAddr: 0xF58, symBinAddr: 0x10002E670, symSize: 0x14 }
  - { offsetInCU: 0x1494B, offset: 0x33A16F, size: 0x8, addend: 0x0, symName: __ZN8crashpad8internal16MinidumpWritableC2Ev, symObjAddr: 0xD7C, symBinAddr: 0x10002E53C, symSize: 0x30 }
  - { offsetInCU: 0x149B7, offset: 0x33A1DB, size: 0x8, addend: 0x0, symName: __ZN8crashpad8internal16MinidumpWritable6FreezeEv, symObjAddr: 0xDAC, symBinAddr: 0x10002E56C, symSize: 0xA4 }
  - { offsetInCU: 0x14D73, offset: 0x33A597, size: 0x8, addend: 0x0, symName: __ZN8crashpad8internal16MinidumpWritable9AlignmentEv, symObjAddr: 0xE50, symBinAddr: 0x10002E610, symSize: 0x8 }
  - { offsetInCU: 0x14D98, offset: 0x33A5BC, size: 0x8, addend: 0x0, symName: __ZN8crashpad8internal16MinidumpWritable8ChildrenEv, symObjAddr: 0xE58, symBinAddr: 0x10002E618, symSize: 0xC }
  - { offsetInCU: 0x14DBF, offset: 0x33A5E3, size: 0x8, addend: 0x0, symName: __ZN8crashpad8internal16MinidumpWritable8ChildrenEv, symObjAddr: 0xE58, symBinAddr: 0x10002E618, symSize: 0xC }
  - { offsetInCU: 0x14DDC, offset: 0x33A600, size: 0x8, addend: 0x0, symName: __ZN8crashpad8internal16MinidumpWritable8ChildrenEv, symObjAddr: 0xE58, symBinAddr: 0x10002E618, symSize: 0xC }
  - { offsetInCU: 0x14DFA, offset: 0x33A61E, size: 0x8, addend: 0x0, symName: __ZN8crashpad8internal16MinidumpWritable10WritePhaseEv, symObjAddr: 0xE64, symBinAddr: 0x10002E624, symSize: 0x8 }
  - { offsetInCU: 0x14E1F, offset: 0x33A643, size: 0x8, addend: 0x0, symName: __ZN8crashpad8internal16MinidumpWritable21WillWriteAtOffsetImplEx, symObjAddr: 0xE6C, symBinAddr: 0x10002E62C, symSize: 0x8 }
  - { offsetInCU: 0x93E2, offset: 0x34440E, size: 0x8, addend: 0x0, symName: __ZN8crashpad8internal18MinidumpWriterUtil11AssignTimeTEPjl, symObjAddr: 0x0, symBinAddr: 0x10002E924, symSize: 0xA8 }
  - { offsetInCU: 0x9617, offset: 0x344643, size: 0x8, addend: 0x0, symName: __ZN8crashpad8internal18MinidumpWriterUtil18ConvertUTF8ToUTF16ERKNSt3__112basic_stringIcNS2_11char_traitsIcEENS2_9allocatorIcEEEE, symObjAddr: 0xA8, symBinAddr: 0x10002E9CC, symSize: 0xF8 }
  - { offsetInCU: 0x9B46, offset: 0x344B72, size: 0x8, addend: 0x0, symName: __ZN8crashpad8internal18MinidumpWriterUtil17AssignUTF8ToUTF16EPDsmRKNSt3__112basic_stringIcNS3_11char_traitsIcEENS3_9allocatorIcEEEE, symObjAddr: 0x1A0, symBinAddr: 0x10002EAC4, symSize: 0x1D0 }
  - { offsetInCU: 0xA2D9, offset: 0x345305, size: 0x8, addend: 0x0, symName: __ZNSt3__112basic_stringIDsNS_11char_traitsIDsEENS_9allocatorIDsEEE6appendEmDs, symObjAddr: 0x37C, symBinAddr: 0x10002EC94, symSize: 0x1C8 }
  - { offsetInCU: 0x26, offset: 0x346238, size: 0x8, addend: 0x0, symName: __ZN8crashpad18AnnotationSnapshotC2Ev, symObjAddr: 0x0, symBinAddr: 0x10002EE5C, symSize: 0x18 }
  - { offsetInCU: 0x5EAB, offset: 0x34C0BD, size: 0x8, addend: 0x0, symName: __ZN8crashpad18AnnotationSnapshotC2Ev, symObjAddr: 0x0, symBinAddr: 0x10002EE5C, symSize: 0x18 }
  - { offsetInCU: 0x5ECF, offset: 0x34C0E1, size: 0x8, addend: 0x0, symName: __ZN8crashpad18AnnotationSnapshotC2Ev, symObjAddr: 0x0, symBinAddr: 0x10002EE5C, symSize: 0x18 }
  - { offsetInCU: 0x5EEE, offset: 0x34C100, size: 0x8, addend: 0x0, symName: __ZN8crashpad18AnnotationSnapshotC2Ev, symObjAddr: 0x0, symBinAddr: 0x10002EE5C, symSize: 0x18 }
  - { offsetInCU: 0x5F2E, offset: 0x34C140, size: 0x8, addend: 0x0, symName: __ZN8crashpad18AnnotationSnapshotC1Ev, symObjAddr: 0x18, symBinAddr: 0x10002EE74, symSize: 0x18 }
  - { offsetInCU: 0x5F5C, offset: 0x34C16E, size: 0x8, addend: 0x0, symName: __ZN8crashpad18AnnotationSnapshotC1Ev, symObjAddr: 0x18, symBinAddr: 0x10002EE74, symSize: 0x18 }
  - { offsetInCU: 0x5F79, offset: 0x34C18B, size: 0x8, addend: 0x0, symName: __ZN8crashpad18AnnotationSnapshotC1Ev, symObjAddr: 0x18, symBinAddr: 0x10002EE74, symSize: 0x18 }
  - { offsetInCU: 0x5F98, offset: 0x34C1AA, size: 0x8, addend: 0x0, symName: __ZN8crashpad18AnnotationSnapshotC1Ev, symObjAddr: 0x18, symBinAddr: 0x10002EE74, symSize: 0x18 }
  - { offsetInCU: 0x64F3, offset: 0x34C705, size: 0x8, addend: 0x0, symName: __ZN8crashpad18AnnotationSnapshotC2ERKNSt3__112basic_stringIcNS1_11char_traitsIcEENS1_9allocatorIcEEEEtRKNS1_6vectorIhNS5_IhEEEE, symObjAddr: 0x30, symBinAddr: 0x10002EE8C, symSize: 0x11C }
  - { offsetInCU: 0x6E20, offset: 0x34D032, size: 0x8, addend: 0x0, symName: __ZN8crashpad18AnnotationSnapshotC2ERKNSt3__112basic_stringIcNS1_11char_traitsIcEENS1_9allocatorIcEEEEtRKNS1_6vectorIhNS5_IhEEEE.cold.1, symObjAddr: 0x368, symBinAddr: 0x100065F5C, symSize: 0x14 }
  - { offsetInCU: 0x6E4E, offset: 0x34D060, size: 0x8, addend: 0x0, symName: __ZN8crashpad18AnnotationSnapshotC2ERKNSt3__112basic_stringIcNS1_11char_traitsIcEENS1_9allocatorIcEEEEtRKNS1_6vectorIhNS5_IhEEEE.cold.1, symObjAddr: 0x368, symBinAddr: 0x100065F5C, symSize: 0x14 }
  - { offsetInCU: 0x6E69, offset: 0x34D07B, size: 0x8, addend: 0x0, symName: __ZN8crashpad18AnnotationSnapshotC2ERKNSt3__112basic_stringIcNS1_11char_traitsIcEENS1_9allocatorIcEEEEtRKNS1_6vectorIhNS5_IhEEEE.cold.1, symObjAddr: 0x368, symBinAddr: 0x100065F5C, symSize: 0x14 }
  - { offsetInCU: 0x6E7E, offset: 0x34D090, size: 0x8, addend: 0x0, symName: __ZN8crashpad18AnnotationSnapshotC2ERKNSt3__112basic_stringIcNS1_11char_traitsIcEENS1_9allocatorIcEEEEtRKNS1_6vectorIhNS5_IhEEEE.cold.1, symObjAddr: 0x368, symBinAddr: 0x100065F5C, symSize: 0x14 }
  - { offsetInCU: 0x6E95, offset: 0x34D0A7, size: 0x8, addend: 0x0, symName: __ZN8crashpad18AnnotationSnapshotC2ERKNSt3__112basic_stringIcNS1_11char_traitsIcEENS1_9allocatorIcEEEEtRKNS1_6vectorIhNS5_IhEEEE.cold.1, symObjAddr: 0x368, symBinAddr: 0x100065F5C, symSize: 0x14 }
  - { offsetInCU: 0x6F60, offset: 0x34D172, size: 0x8, addend: 0x0, symName: __ZN8crashpad18AnnotationSnapshotC1ERKNSt3__112basic_stringIcNS1_11char_traitsIcEENS1_9allocatorIcEEEEtRKNS1_6vectorIhNS5_IhEEEE, symObjAddr: 0x14C, symBinAddr: 0x10002EFA8, symSize: 0x4 }
  - { offsetInCU: 0x6FB6, offset: 0x34D1C8, size: 0x8, addend: 0x0, symName: __ZN8crashpad18AnnotationSnapshotC1ERKNSt3__112basic_stringIcNS1_11char_traitsIcEENS1_9allocatorIcEEEEtRKNS1_6vectorIhNS5_IhEEEE, symObjAddr: 0x14C, symBinAddr: 0x10002EFA8, symSize: 0x4 }
  - { offsetInCU: 0x709C, offset: 0x34D2AE, size: 0x8, addend: 0x0, symName: __ZN8crashpad18AnnotationSnapshotD2Ev, symObjAddr: 0x150, symBinAddr: 0x10002EFAC, symSize: 0x50 }
  - { offsetInCU: 0x734E, offset: 0x34D560, size: 0x8, addend: 0x0, symName: __ZN8crashpad18AnnotationSnapshotD1Ev, symObjAddr: 0x1A0, symBinAddr: 0x10002EFFC, symSize: 0x50 }
  - { offsetInCU: 0x767C, offset: 0x34D88E, size: 0x8, addend: 0x0, symName: __ZNK8crashpad18AnnotationSnapshoteqERKS0_, symObjAddr: 0x1F0, symBinAddr: 0x10002F04C, symSize: 0xDC }
  - { offsetInCU: 0x26, offset: 0x34DB9D, size: 0x8, addend: 0x0, symName: __ZN8crashpad13CPUContextX8613FxsaveToFsaveERKNS0_6FxsaveEPNS0_5FsaveE, symObjAddr: 0x0, symBinAddr: 0x10002F128, symSize: 0x1B0 }
  - { offsetInCU: 0x2E9B, offset: 0x350A12, size: 0x8, addend: 0x0, symName: __ZN8crashpad13CPUContextX8613FxsaveToFsaveERKNS0_6FxsaveEPNS0_5FsaveE, symObjAddr: 0x0, symBinAddr: 0x10002F128, symSize: 0x1B0 }
  - { offsetInCU: 0x3001, offset: 0x350B78, size: 0x8, addend: 0x0, symName: __ZN8crashpad13CPUContextX8620FxsaveToFsaveTagWordEthPKNS0_16X87OrMMXRegisterE, symObjAddr: 0x1B0, symBinAddr: 0x10002F2D8, symSize: 0xE0 }
  - { offsetInCU: 0x319E, offset: 0x350D15, size: 0x8, addend: 0x0, symName: __ZN8crashpad13CPUContextX8613FsaveToFxsaveERKNS0_5FsaveEPNS0_6FxsaveE, symObjAddr: 0x290, symBinAddr: 0x10002F3B8, symSize: 0x1CC }
  - { offsetInCU: 0x3245, offset: 0x350DBC, size: 0x8, addend: 0x0, symName: __ZN8crashpad13CPUContextX8620FsaveToFxsaveTagWordEt, symObjAddr: 0x45C, symBinAddr: 0x10002F584, symSize: 0x8C }
  - { offsetInCU: 0x32AB, offset: 0x350E22, size: 0x8, addend: 0x0, symName: __ZNK8crashpad10CPUContext18InstructionPointerEv, symObjAddr: 0x4E8, symBinAddr: 0x10002F610, symSize: 0x6C }
  - { offsetInCU: 0x32D4, offset: 0x350E4B, size: 0x8, addend: 0x0, symName: __ZNK8crashpad10CPUContext12StackPointerEv, symObjAddr: 0x554, symBinAddr: 0x10002F67C, symSize: 0x6C }
  - { offsetInCU: 0x32FD, offset: 0x350E74, size: 0x8, addend: 0x0, symName: __ZNK8crashpad10CPUContext18ShadowStackPointerEv, symObjAddr: 0x5C0, symBinAddr: 0x10002F6E8, symSize: 0x38 }
  - { offsetInCU: 0x3326, offset: 0x350E9D, size: 0x8, addend: 0x0, symName: __ZNK8crashpad10CPUContext14HasShadowStackEv, symObjAddr: 0x5F8, symBinAddr: 0x10002F720, symSize: 0x28 }
  - { offsetInCU: 0x334F, offset: 0x350EC6, size: 0x8, addend: 0x0, symName: __ZNK8crashpad10CPUContext7Is64BitEv, symObjAddr: 0x620, symBinAddr: 0x10002F748, symSize: 0x1C }
  - { offsetInCU: 0x6F70, offset: 0x357E64, size: 0x8, addend: 0x0, symName: __ZN8crashpad25CrashpadInfoClientOptions24TriStateFromCrashpadInfoEh, symObjAddr: 0x0, symBinAddr: 0x10002F764, symSize: 0x98 }
  - { offsetInCU: 0x6FF9, offset: 0x357EED, size: 0x8, addend: 0x0, symName: __ZN8crashpad25CrashpadInfoClientOptionsC2Ev, symObjAddr: 0x98, symBinAddr: 0x10002F7FC, symSize: 0x10 }
  - { offsetInCU: 0x703B, offset: 0x357F2F, size: 0x8, addend: 0x0, symName: __ZN8crashpad25CrashpadInfoClientOptionsC1Ev, symObjAddr: 0xA8, symBinAddr: 0x10002F80C, symSize: 0x10 }
  - { offsetInCU: 0x7068, offset: 0x357F5C, size: 0x8, addend: 0x0, symName: __ZN8crashpad25CrashpadInfoClientOptionsC1Ev, symObjAddr: 0xA8, symBinAddr: 0x10002F80C, symSize: 0x10 }
  - { offsetInCU: 0x26, offset: 0x3584D6, size: 0x8, addend: 0x0, symName: __ZN8crashpad14HandleSnapshotC2Ev, symObjAddr: 0x0, symBinAddr: 0x10002F81C, symSize: 0x10 }
  - { offsetInCU: 0x4987, offset: 0x35CE37, size: 0x8, addend: 0x0, symName: __ZN8crashpad14HandleSnapshotC2Ev, symObjAddr: 0x0, symBinAddr: 0x10002F81C, symSize: 0x10 }
  - { offsetInCU: 0x49C9, offset: 0x35CE79, size: 0x8, addend: 0x0, symName: __ZN8crashpad14HandleSnapshotC1Ev, symObjAddr: 0x10, symBinAddr: 0x10002F82C, symSize: 0x10 }
  - { offsetInCU: 0x49F7, offset: 0x35CEA7, size: 0x8, addend: 0x0, symName: __ZN8crashpad14HandleSnapshotC1Ev, symObjAddr: 0x10, symBinAddr: 0x10002F82C, symSize: 0x10 }
  - { offsetInCU: 0x4AE1, offset: 0x35CF91, size: 0x8, addend: 0x0, symName: __ZN8crashpad14HandleSnapshotD2Ev, symObjAddr: 0x20, symBinAddr: 0x10002F83C, symSize: 0x40 }
  - { offsetInCU: 0x4C40, offset: 0x35D0F0, size: 0x8, addend: 0x0, symName: __ZN8crashpad14HandleSnapshotD1Ev, symObjAddr: 0x60, symBinAddr: 0x10002F87C, symSize: 0x40 }
  - { offsetInCU: 0x7182, offset: 0x3643D7, size: 0x8, addend: 0x0, symName: __ZN8crashpad27LoggingDetermineMergedRangeEPKNS_14MemorySnapshotES2_PNS_12CheckedRangeIymEE, symObjAddr: 0x0, symBinAddr: 0x10002F8BC, symSize: 0x14 }
  - { offsetInCU: 0x71FA, offset: 0x36444F, size: 0x8, addend: 0x0, symName: __ZN8crashpad12_GLOBAL__N_124DetermineMergedRangeImplEbPKNS_14MemorySnapshotES3_PNS_12CheckedRangeIymEE, symObjAddr: 0x14, symBinAddr: 0x10002F8D0, symSize: 0x394 }
  - { offsetInCU: 0x7A18, offset: 0x364C6D, size: 0x8, addend: 0x0, symName: __ZN8crashpad20DetermineMergedRangeEPKNS_14MemorySnapshotES2_PNS_12CheckedRangeIymEE, symObjAddr: 0x3A8, symBinAddr: 0x10002FC64, symSize: 0x14 }
  - { offsetInCU: 0x26, offset: 0x3654BE, size: 0x8, addend: 0x0, symName: __ZN8crashpad8internal25ExceptionSnapshotMinidumpC2Ev, symObjAddr: 0x0, symBinAddr: 0x10002FC78, symSize: 0x70 }
  - { offsetInCU: 0x5BE2, offset: 0x36B07A, size: 0x8, addend: 0x0, symName: __ZN8crashpad8internal25ExceptionSnapshotMinidumpC2Ev, symObjAddr: 0x0, symBinAddr: 0x10002FC78, symSize: 0x70 }
  - { offsetInCU: 0x5CAB, offset: 0x36B143, size: 0x8, addend: 0x0, symName: __ZN8crashpad8internal25ExceptionSnapshotMinidumpC1Ev, symObjAddr: 0x70, symBinAddr: 0x10002FCE8, symSize: 0x70 }
  - { offsetInCU: 0x5FE0, offset: 0x36B478, size: 0x8, addend: 0x0, symName: __ZN8crashpad8internal25ExceptionSnapshotMinidumpD2Ev, symObjAddr: 0xE0, symBinAddr: 0x10002FD58, symSize: 0x48 }
  - { offsetInCU: 0x634D, offset: 0x36B7E5, size: 0x8, addend: 0x0, symName: __ZN8crashpad8internal25ExceptionSnapshotMinidumpD1Ev, symObjAddr: 0x128, symBinAddr: 0x10002FDA0, symSize: 0x48 }
  - { offsetInCU: 0x66D8, offset: 0x36BB70, size: 0x8, addend: 0x0, symName: __ZN8crashpad8internal25ExceptionSnapshotMinidumpD0Ev, symObjAddr: 0x170, symBinAddr: 0x10002FDE8, symSize: 0x48 }
  - { offsetInCU: 0x6FBD, offset: 0x36C455, size: 0x8, addend: 0x0, symName: __ZN8crashpad8internal25ExceptionSnapshotMinidump10InitializeEPNS_19FileReaderInterfaceENS_15CPUArchitectureEj, symObjAddr: 0x1B8, symBinAddr: 0x10002FE30, symSize: 0x2C4 }
  - { offsetInCU: 0x7A4F, offset: 0x36CEE7, size: 0x8, addend: 0x0, symName: __ZNKSt3__16vectorIyNS_9allocatorIyEEE20__throw_length_errorB8ue170006Ev, symObjAddr: 0x4B8, symBinAddr: 0x100030130, symSize: 0x14 }
  - { offsetInCU: 0x7A84, offset: 0x36CF1C, size: 0x8, addend: 0x0, symName: __ZNK8crashpad8internal25ExceptionSnapshotMinidump7ContextEv, symObjAddr: 0x47C, symBinAddr: 0x1000300F4, symSize: 0x8 }
  - { offsetInCU: 0x7AAD, offset: 0x36CF45, size: 0x8, addend: 0x0, symName: __ZNK8crashpad8internal25ExceptionSnapshotMinidump8ThreadIDEv, symObjAddr: 0x484, symBinAddr: 0x1000300FC, symSize: 0x8 }
  - { offsetInCU: 0x7AD6, offset: 0x36CF6E, size: 0x8, addend: 0x0, symName: __ZNK8crashpad8internal25ExceptionSnapshotMinidump9ExceptionEv, symObjAddr: 0x48C, symBinAddr: 0x100030104, symSize: 0x8 }
  - { offsetInCU: 0x7AFF, offset: 0x36CF97, size: 0x8, addend: 0x0, symName: __ZNK8crashpad8internal25ExceptionSnapshotMinidump13ExceptionInfoEv, symObjAddr: 0x494, symBinAddr: 0x10003010C, symSize: 0x8 }
  - { offsetInCU: 0x7B28, offset: 0x36CFC0, size: 0x8, addend: 0x0, symName: __ZNK8crashpad8internal25ExceptionSnapshotMinidump16ExceptionAddressEv, symObjAddr: 0x49C, symBinAddr: 0x100030114, symSize: 0x8 }
  - { offsetInCU: 0x7B51, offset: 0x36CFE9, size: 0x8, addend: 0x0, symName: __ZNK8crashpad8internal25ExceptionSnapshotMinidump5CodesEv, symObjAddr: 0x4A4, symBinAddr: 0x10003011C, symSize: 0x8 }
  - { offsetInCU: 0x7BB3, offset: 0x36D04B, size: 0x8, addend: 0x0, symName: __ZNK8crashpad8internal25ExceptionSnapshotMinidump11ExtraMemoryEv, symObjAddr: 0x4AC, symBinAddr: 0x100030124, symSize: 0xC }
  - { offsetInCU: 0x7BDB, offset: 0x36D073, size: 0x8, addend: 0x0, symName: __ZNK8crashpad8internal25ExceptionSnapshotMinidump11ExtraMemoryEv, symObjAddr: 0x4AC, symBinAddr: 0x100030124, symSize: 0xC }
  - { offsetInCU: 0x7BF8, offset: 0x36D090, size: 0x8, addend: 0x0, symName: __ZNK8crashpad8internal25ExceptionSnapshotMinidump11ExtraMemoryEv, symObjAddr: 0x4AC, symBinAddr: 0x100030124, symSize: 0xC }
  - { offsetInCU: 0x26, offset: 0x36D140, size: 0x8, addend: 0x0, symName: __ZN8crashpad8internal22MemorySnapshotMinidumpC2Ev, symObjAddr: 0x0, symBinAddr: 0x100030144, symSize: 0x1C }
  - { offsetInCU: 0x5428, offset: 0x372542, size: 0x8, addend: 0x0, symName: __ZN8crashpad8internal22MemorySnapshotMinidumpC2Ev, symObjAddr: 0x0, symBinAddr: 0x100030144, symSize: 0x1C }
  - { offsetInCU: 0x54A6, offset: 0x3725C0, size: 0x8, addend: 0x0, symName: __ZN8crashpad8internal22MemorySnapshotMinidumpC1Ev, symObjAddr: 0x1C, symBinAddr: 0x100030160, symSize: 0x1C }
  - { offsetInCU: 0x54CA, offset: 0x3725E4, size: 0x8, addend: 0x0, symName: __ZN8crashpad8internal22MemorySnapshotMinidumpC1Ev, symObjAddr: 0x1C, symBinAddr: 0x100030160, symSize: 0x1C }
  - { offsetInCU: 0x5620, offset: 0x37273A, size: 0x8, addend: 0x0, symName: __ZN8crashpad8internal22MemorySnapshotMinidumpD2Ev, symObjAddr: 0x38, symBinAddr: 0x10003017C, symSize: 0x3C }
  - { offsetInCU: 0x57B2, offset: 0x3728CC, size: 0x8, addend: 0x0, symName: __ZN8crashpad8internal22MemorySnapshotMinidumpD1Ev, symObjAddr: 0x74, symBinAddr: 0x1000301B8, symSize: 0x3C }
  - { offsetInCU: 0x5962, offset: 0x372A7C, size: 0x8, addend: 0x0, symName: __ZN8crashpad8internal22MemorySnapshotMinidumpD0Ev, symObjAddr: 0xB0, symBinAddr: 0x1000301F4, symSize: 0x3C }
  - { offsetInCU: 0x5F8E, offset: 0x3730A8, size: 0x8, addend: 0x0, symName: __ZN8crashpad8internal22MemorySnapshotMinidump10InitializeEPNS_19FileReaderInterfaceEj, symObjAddr: 0xEC, symBinAddr: 0x100030230, symSize: 0x228 }
  - { offsetInCU: 0x657C, offset: 0x373696, size: 0x8, addend: 0x0, symName: __ZNK8crashpad8internal22MemorySnapshotMinidump7AddressEv, symObjAddr: 0x314, symBinAddr: 0x100030458, symSize: 0x8 }
  - { offsetInCU: 0x65A5, offset: 0x3736BF, size: 0x8, addend: 0x0, symName: __ZNK8crashpad8internal22MemorySnapshotMinidump4SizeEv, symObjAddr: 0x31C, symBinAddr: 0x100030460, symSize: 0xC }
  - { offsetInCU: 0x65D1, offset: 0x3736EB, size: 0x8, addend: 0x0, symName: __ZNK8crashpad8internal22MemorySnapshotMinidump4SizeEv, symObjAddr: 0x31C, symBinAddr: 0x100030460, symSize: 0xC }
  - { offsetInCU: 0x6604, offset: 0x37371E, size: 0x8, addend: 0x0, symName: __ZNK8crashpad8internal22MemorySnapshotMinidump4ReadEPNS_14MemorySnapshot8DelegateE, symObjAddr: 0x328, symBinAddr: 0x10003046C, symSize: 0x1C }
  - { offsetInCU: 0x68ED, offset: 0x373A07, size: 0x8, addend: 0x0, symName: __ZNK8crashpad8internal22MemorySnapshotMinidump22MergeWithOtherSnapshotEPKNS_14MemorySnapshotE, symObjAddr: 0x344, symBinAddr: 0x100030488, symSize: 0x31C }
  - { offsetInCU: 0x782A, offset: 0x374944, size: 0x8, addend: 0x0, symName: __ZNSt3__16vectorIhNS_9allocatorIhEEE18__insert_with_sizeB8ue170006INS_11__wrap_iterIPKhEES8_EENS5_IPhEES8_T_T0_l, symObjAddr: 0x830, symBinAddr: 0x1000307A4, symSize: 0x3A0 }
  - { offsetInCU: 0x784E, offset: 0x374968, size: 0x8, addend: 0x0, symName: __ZNSt3__16vectorIhNS_9allocatorIhEEE18__insert_with_sizeB8ue170006INS_11__wrap_iterIPKhEES8_EENS5_IPhEES8_T_T0_l, symObjAddr: 0x830, symBinAddr: 0x1000307A4, symSize: 0x3A0 }
  - { offsetInCU: 0x8DF9, offset: 0x37E915, size: 0x8, addend: 0x0, symName: __ZN8crashpad8internal26ReadMinidumpAnnotationListEPNS_19FileReaderInterfaceERK28MINIDUMP_LOCATION_DESCRIPTORPNSt3__16vectorINS_18AnnotationSnapshotENS6_9allocatorIS8_EEEE, symObjAddr: 0x0, symBinAddr: 0x100030B44, symSize: 0x3A4 }
  - { offsetInCU: 0xC3E4, offset: 0x381F00, size: 0x8, addend: 0x0, symName: __ZNSt3__16vectorIN8crashpad18AnnotationSnapshotENS_9allocatorIS2_EEE7reserveEm, symObjAddr: 0x3A4, symBinAddr: 0x100030EE8, symSize: 0x148 }
  - { offsetInCU: 0xC9F5, offset: 0x382511, size: 0x8, addend: 0x0, symName: __ZNSt3__16vectorIN8crashpad18AnnotationSnapshotENS_9allocatorIS2_EEE21__push_back_slow_pathIS2_EEvOT_, symObjAddr: 0x794, symBinAddr: 0x1000311B0, symSize: 0x1C0 }
  - { offsetInCU: 0xD118, offset: 0x382C34, size: 0x8, addend: 0x0, symName: __ZN8crashpad18AnnotationSnapshotC2ERKS0_, symObjAddr: 0x650, symBinAddr: 0x100031094, symSize: 0x11C }
  - { offsetInCU: 0xDE7D, offset: 0x383999, size: 0x8, addend: 0x0, symName: __ZNKSt3__16vectorIN8crashpad18AnnotationSnapshotENS_9allocatorIS2_EEE20__throw_length_errorB8ue170006Ev, symObjAddr: 0x5EC, symBinAddr: 0x100031030, symSize: 0x14 }
  - { offsetInCU: 0xDEA7, offset: 0x3839C3, size: 0x8, addend: 0x0, symName: __ZNSt3__114__split_bufferIN8crashpad18AnnotationSnapshotERNS_9allocatorIS2_EEED1Ev, symObjAddr: 0x600, symBinAddr: 0x100031044, symSize: 0x50 }
  - { offsetInCU: 0xDEB2, offset: 0x3839CE, size: 0x8, addend: 0x0, symName: __ZNSt3__114__split_bufferIN8crashpad18AnnotationSnapshotERNS_9allocatorIS2_EEED1Ev, symObjAddr: 0x600, symBinAddr: 0x100031044, symSize: 0x50 }
  - { offsetInCU: 0xE512, offset: 0x38402E, size: 0x8, addend: 0x0, symName: __ZNSt3__16vectorIN8crashpad18AnnotationSnapshotENS_9allocatorIS2_EEE21__push_back_slow_pathIS2_EEvOT_, symObjAddr: 0x794, symBinAddr: 0x1000311B0, symSize: 0x1C0 }
  - { offsetInCU: 0xE540, offset: 0x38405C, size: 0x8, addend: 0x0, symName: __ZN8crashpad18AnnotationSnapshotC2ERKS0_.cold.1, symObjAddr: 0xC4C, symBinAddr: 0x100065F70, symSize: 0x14 }
  - { offsetInCU: 0xE55B, offset: 0x384077, size: 0x8, addend: 0x0, symName: __ZN8crashpad18AnnotationSnapshotC2ERKS0_.cold.1, symObjAddr: 0xC4C, symBinAddr: 0x100065F70, symSize: 0x14 }
  - { offsetInCU: 0xE570, offset: 0x38408C, size: 0x8, addend: 0x0, symName: __ZN8crashpad18AnnotationSnapshotC2ERKS0_.cold.1, symObjAddr: 0xC4C, symBinAddr: 0x100065F70, symSize: 0x14 }
  - { offsetInCU: 0xE587, offset: 0x3840A3, size: 0x8, addend: 0x0, symName: __ZN8crashpad18AnnotationSnapshotC2ERKS0_.cold.1, symObjAddr: 0xC4C, symBinAddr: 0x100065F70, symSize: 0x14 }
  - { offsetInCU: 0x26, offset: 0x3845A5, size: 0x8, addend: 0x0, symName: __ZN8crashpad8internal24MinidumpContextConverterC2Ev, symObjAddr: 0x0, symBinAddr: 0x100031370, symSize: 0x10 }
  - { offsetInCU: 0x38D1, offset: 0x387E50, size: 0x8, addend: 0x0, symName: __ZN8crashpad8internal24MinidumpContextConverterC2Ev, symObjAddr: 0x0, symBinAddr: 0x100031370, symSize: 0x10 }
  - { offsetInCU: 0x38F5, offset: 0x387E74, size: 0x8, addend: 0x0, symName: __ZN8crashpad8internal24MinidumpContextConverterC2Ev, symObjAddr: 0x0, symBinAddr: 0x100031370, symSize: 0x10 }
  - { offsetInCU: 0x3914, offset: 0x387E93, size: 0x8, addend: 0x0, symName: __ZN8crashpad8internal24MinidumpContextConverterC2Ev, symObjAddr: 0x0, symBinAddr: 0x100031370, symSize: 0x10 }
  - { offsetInCU: 0x3954, offset: 0x387ED3, size: 0x8, addend: 0x0, symName: __ZN8crashpad8internal24MinidumpContextConverterC1Ev, symObjAddr: 0x10, symBinAddr: 0x100031380, symSize: 0x10 }
  - { offsetInCU: 0x3982, offset: 0x387F01, size: 0x8, addend: 0x0, symName: __ZN8crashpad8internal24MinidumpContextConverterC1Ev, symObjAddr: 0x10, symBinAddr: 0x100031380, symSize: 0x10 }
  - { offsetInCU: 0x399F, offset: 0x387F1E, size: 0x8, addend: 0x0, symName: __ZN8crashpad8internal24MinidumpContextConverterC1Ev, symObjAddr: 0x10, symBinAddr: 0x100031380, symSize: 0x10 }
  - { offsetInCU: 0x39BE, offset: 0x387F3D, size: 0x8, addend: 0x0, symName: __ZN8crashpad8internal24MinidumpContextConverterC1Ev, symObjAddr: 0x10, symBinAddr: 0x100031380, symSize: 0x10 }
  - { offsetInCU: 0x3EF4, offset: 0x388473, size: 0x8, addend: 0x0, symName: __ZN8crashpad8internal24MinidumpContextConverter10InitializeENS_15CPUArchitectureERKNSt3__16vectorIhNS3_9allocatorIhEEEE, symObjAddr: 0x20, symBinAddr: 0x100031390, symSize: 0x19FC }
  - { offsetInCU: 0x85DB, offset: 0x3933F8, size: 0x8, addend: 0x0, symName: __ZN8crashpad8internal34ReadMinidumpSimpleStringDictionaryEPNS_19FileReaderInterfaceERK28MINIDUMP_LOCATION_DESCRIPTORPNSt3__13mapINS6_12basic_stringIcNS6_11char_traitsIcEENS6_9allocatorIcEEEESD_NS6_4lessISD_EENSB_INS6_4pairIKSD_SD_EEEEEE, symObjAddr: 0x0, symBinAddr: 0x100032D8C, symSize: 0x3C0 }
  - { offsetInCU: 0xC4B9, offset: 0x3972D6, size: 0x8, addend: 0x0, symName: __ZNSt3__14pairINS_12basic_stringIcNS_11char_traitsIcEENS_9allocatorIcEEEES6_EC2B8ue170006IRS6_S9_LPv0EEEOT_OT0_, symObjAddr: 0x4FC, symBinAddr: 0x1000331B0, symSize: 0x154 }
  - { offsetInCU: 0xD169, offset: 0x397F86, size: 0x8, addend: 0x0, symName: __ZNSt3__13mapINS_12basic_stringIcNS_11char_traitsIcEENS_9allocatorIcEEEES6_NS_4lessIS6_EENS4_INS_4pairIKS6_S6_EEEEE4swapB8ue170006ERSD_, symObjAddr: 0x418, symBinAddr: 0x10003314C, symSize: 0x64 }
  - { offsetInCU: 0xD1A1, offset: 0x397FBE, size: 0x8, addend: 0x0, symName: __ZNSt3__13mapINS_12basic_stringIcNS_11char_traitsIcEENS_9allocatorIcEEEES6_NS_4lessIS6_EENS4_INS_4pairIKS6_S6_EEEEE4swapB8ue170006ERSD_, symObjAddr: 0x418, symBinAddr: 0x10003314C, symSize: 0x64 }
  - { offsetInCU: 0xD1C9, offset: 0x397FE6, size: 0x8, addend: 0x0, symName: __ZNSt3__13mapINS_12basic_stringIcNS_11char_traitsIcEENS_9allocatorIcEEEES6_NS_4lessIS6_EENS4_INS_4pairIKS6_S6_EEEEE4swapB8ue170006ERSD_, symObjAddr: 0x418, symBinAddr: 0x10003314C, symSize: 0x64 }
  - { offsetInCU: 0x9E87, offset: 0x3A2AE9, size: 0x8, addend: 0x0, symName: __ZN8crashpad8internal22ReadMinidumpStringListEPNS_19FileReaderInterfaceERK28MINIDUMP_LOCATION_DESCRIPTORPNSt3__16vectorINS6_12basic_stringIcNS6_11char_traitsIcEENS6_9allocatorIcEEEENSB_ISD_EEEE, symObjAddr: 0x0, symBinAddr: 0x100033304, symSize: 0x360 }
  - { offsetInCU: 0x26, offset: 0x3A4E0F, size: 0x8, addend: 0x0, symName: __ZN8crashpad8internal22ReadMinidumpUTF8StringEPNS_19FileReaderInterfaceEjPNSt3__112basic_stringIcNS3_11char_traitsIcEENS3_9allocatorIcEEEE, symObjAddr: 0x0, symBinAddr: 0x100033664, symSize: 0x15C }
  - { offsetInCU: 0x6CA7, offset: 0x3ABA90, size: 0x8, addend: 0x0, symName: __ZN8crashpad8internal12_GLOBAL__N_118ReadMinidumpStringINSt3__112basic_stringIDsNS3_11char_traitsIDsEENS3_9allocatorIDsEEEEjEEbPNS_19FileReaderInterfaceET0_PT_, symObjAddr: 0x2B8, symBinAddr: 0x10003391C, symSize: 0x16C }
  - { offsetInCU: 0x7360, offset: 0x3AC149, size: 0x8, addend: 0x0, symName: __ZN8crashpad8internal12_GLOBAL__N_118ReadMinidumpStringINSt3__112basic_stringIDsNS3_11char_traitsIDsEENS3_9allocatorIDsEEEEyEEbPNS_19FileReaderInterfaceET0_PT_, symObjAddr: 0x428, symBinAddr: 0x100033A8C, symSize: 0x168 }
  - { offsetInCU: 0x7A1A, offset: 0x3AC803, size: 0x8, addend: 0x0, symName: __ZN8crashpad8internal22ReadMinidumpUTF8StringEPNS_19FileReaderInterfaceEjPNSt3__112basic_stringIcNS3_11char_traitsIcEENS3_9allocatorIcEEEE, symObjAddr: 0x0, symBinAddr: 0x100033664, symSize: 0x15C }
  - { offsetInCU: 0x80E0, offset: 0x3ACEC9, size: 0x8, addend: 0x0, symName: __ZN8crashpad8internal22ReadMinidumpUTF8StringEPNS_19FileReaderInterfaceEyPNSt3__112basic_stringIcNS3_11char_traitsIcEENS3_9allocatorIcEEEE, symObjAddr: 0x15C, symBinAddr: 0x1000337C0, symSize: 0x158 }
  - { offsetInCU: 0x87A7, offset: 0x3AD590, size: 0x8, addend: 0x0, symName: __ZN8crashpad8internal23ReadMinidumpUTF16StringEPNS_19FileReaderInterfaceEjPNSt3__112basic_stringIDsNS3_11char_traitsIDsEENS3_9allocatorIDsEEEE, symObjAddr: 0x2B4, symBinAddr: 0x100033918, symSize: 0x4 }
  - { offsetInCU: 0x87F0, offset: 0x3AD5D9, size: 0x8, addend: 0x0, symName: __ZN8crashpad8internal23ReadMinidumpUTF16StringEPNS_19FileReaderInterfaceEjPNSt3__112basic_stringIDsNS3_11char_traitsIDsEENS3_9allocatorIDsEEEE, symObjAddr: 0x2B4, symBinAddr: 0x100033918, symSize: 0x4 }
  - { offsetInCU: 0x8810, offset: 0x3AD5F9, size: 0x8, addend: 0x0, symName: __ZN8crashpad8internal23ReadMinidumpUTF16StringEPNS_19FileReaderInterfaceEyPNSt3__112basic_stringIDsNS3_11char_traitsIDsEENS3_9allocatorIDsEEEE, symObjAddr: 0x424, symBinAddr: 0x100033A88, symSize: 0x4 }
  - { offsetInCU: 0x8859, offset: 0x3AD642, size: 0x8, addend: 0x0, symName: __ZN8crashpad8internal23ReadMinidumpUTF16StringEPNS_19FileReaderInterfaceEyPNSt3__112basic_stringIDsNS3_11char_traitsIDsEENS3_9allocatorIDsEEEE, symObjAddr: 0x424, symBinAddr: 0x100033A88, symSize: 0x4 }
  - { offsetInCU: 0x8878, offset: 0x3AD661, size: 0x8, addend: 0x0, symName: __ZN8crashpad8internal23ReadMinidumpUTF16StringEPNS_19FileReaderInterfaceEjPNSt3__112basic_stringIcNS3_11char_traitsIcEENS3_9allocatorIcEEEE, symObjAddr: 0x590, symBinAddr: 0x100033BF4, symSize: 0xA4 }
  - { offsetInCU: 0x8C32, offset: 0x3ADA1B, size: 0x8, addend: 0x0, symName: __ZN8crashpad8internal23ReadMinidumpUTF16StringEPNS_19FileReaderInterfaceEyPNSt3__112basic_stringIcNS3_11char_traitsIcEENS3_9allocatorIcEEEE, symObjAddr: 0x634, symBinAddr: 0x100033C98, symSize: 0xA4 }
  - { offsetInCU: 0xB648, offset: 0x3B9ADC, size: 0x8, addend: 0x0, symName: __ZNSt3__121__unwrap_and_dispatchB8ue170006INS_10__overloadINS_11__copy_loopINS_17_ClassicAlgPolicyEEENS_14__copy_trivialEEENS_11__wrap_iterIPhEES9_NS_20back_insert_iteratorINS_6vectorIhNS_9allocatorIhEEEEEELi0EEENS_4pairIT0_T2_EESH_T1_SI_, symObjAddr: 0xACC, symBinAddr: 0x100034760, symSize: 0x1E4 }
  - { offsetInCU: 0x104A8, offset: 0x3BE93C, size: 0x8, addend: 0x0, symName: __ZN8crashpad8internal22ModuleSnapshotMinidumpC2Ev, symObjAddr: 0x0, symBinAddr: 0x100033D3C, symSize: 0x68 }
  - { offsetInCU: 0x1060E, offset: 0x3BEAA2, size: 0x8, addend: 0x0, symName: __ZN8crashpad8internal22ModuleSnapshotMinidumpC1Ev, symObjAddr: 0x68, symBinAddr: 0x100033DA4, symSize: 0x68 }
  - { offsetInCU: 0x1063B, offset: 0x3BEACF, size: 0x8, addend: 0x0, symName: __ZN8crashpad8internal22ModuleSnapshotMinidumpC1Ev, symObjAddr: 0x68, symBinAddr: 0x100033DA4, symSize: 0x68 }
  - { offsetInCU: 0x10BFD, offset: 0x3BF091, size: 0x8, addend: 0x0, symName: __ZN8crashpad8internal22ModuleSnapshotMinidumpD2Ev, symObjAddr: 0xD0, symBinAddr: 0x100033E0C, symSize: 0xFC }
  - { offsetInCU: 0x11762, offset: 0x3BFBF6, size: 0x8, addend: 0x0, symName: __ZN8crashpad8internal22ModuleSnapshotMinidumpD1Ev, symObjAddr: 0x1CC, symBinAddr: 0x100033F08, symSize: 0x4 }
  - { offsetInCU: 0x11786, offset: 0x3BFC1A, size: 0x8, addend: 0x0, symName: __ZN8crashpad8internal22ModuleSnapshotMinidumpD1Ev, symObjAddr: 0x1CC, symBinAddr: 0x100033F08, symSize: 0x4 }
  - { offsetInCU: 0x117B4, offset: 0x3BFC48, size: 0x8, addend: 0x0, symName: __ZN8crashpad8internal22ModuleSnapshotMinidumpD0Ev, symObjAddr: 0x1D0, symBinAddr: 0x100033F0C, symSize: 0x14 }
  - { offsetInCU: 0x11813, offset: 0x3BFCA7, size: 0x8, addend: 0x0, symName: __ZN8crashpad8internal22ModuleSnapshotMinidump10InitializeEPNS_19FileReaderInterfaceEjPK28MINIDUMP_LOCATION_DESCRIPTOR, symObjAddr: 0x1E4, symBinAddr: 0x100033F20, symSize: 0x98 }
  - { offsetInCU: 0x118C4, offset: 0x3BFD58, size: 0x8, addend: 0x0, symName: __ZN8crashpad8internal22ModuleSnapshotMinidump28InitializeModuleCrashpadInfoEPNS_19FileReaderInterfaceEPK28MINIDUMP_LOCATION_DESCRIPTOR, symObjAddr: 0x27C, symBinAddr: 0x100033FB8, symSize: 0x184 }
  - { offsetInCU: 0x11A4D, offset: 0x3BFEE1, size: 0x8, addend: 0x0, symName: __ZN8crashpad8internal22ModuleSnapshotMinidump24InitializeModuleCodeViewEPNS_19FileReaderInterfaceE, symObjAddr: 0x400, symBinAddr: 0x10003413C, symSize: 0x2C0 }
  - { offsetInCU: 0x127D0, offset: 0x3C0C64, size: 0x8, addend: 0x0, symName: __ZNK8crashpad8internal22ModuleSnapshotMinidump4NameEv, symObjAddr: 0x6C0, symBinAddr: 0x1000343FC, symSize: 0xA4 }
  - { offsetInCU: 0x12BAD, offset: 0x3C1041, size: 0x8, addend: 0x0, symName: __ZNK8crashpad8internal22ModuleSnapshotMinidump7AddressEv, symObjAddr: 0x764, symBinAddr: 0x1000344A0, symSize: 0x8 }
  - { offsetInCU: 0x12BD8, offset: 0x3C106C, size: 0x8, addend: 0x0, symName: __ZNSt3__121__unwrap_and_dispatchB8ue170006INS_10__overloadINS_11__copy_loopINS_17_ClassicAlgPolicyEEENS_14__copy_trivialEEENS_11__wrap_iterIPhEES9_NS_20back_insert_iteratorINS_6vectorIhNS_9allocatorIhEEEEEELi0EEENS_4pairIT0_T2_EESH_T1_SI_, symObjAddr: 0xACC, symBinAddr: 0x100034760, symSize: 0x1E4 }
  - { offsetInCU: 0x12BE3, offset: 0x3C1077, size: 0x8, addend: 0x0, symName: __ZNK8crashpad8internal22ModuleSnapshotMinidump7AddressEv, symObjAddr: 0x764, symBinAddr: 0x1000344A0, symSize: 0x8 }
  - { offsetInCU: 0x12C0C, offset: 0x3C10A0, size: 0x8, addend: 0x0, symName: __ZNK8crashpad8internal22ModuleSnapshotMinidump4SizeEv, symObjAddr: 0x76C, symBinAddr: 0x1000344A8, symSize: 0x8 }
  - { offsetInCU: 0x12C35, offset: 0x3C10C9, size: 0x8, addend: 0x0, symName: __ZNK8crashpad8internal22ModuleSnapshotMinidump9TimestampEv, symObjAddr: 0x774, symBinAddr: 0x1000344B0, symSize: 0x8 }
  - { offsetInCU: 0x12C5E, offset: 0x3C10F2, size: 0x8, addend: 0x0, symName: __ZNK8crashpad8internal22ModuleSnapshotMinidump11FileVersionEPtS2_S2_S2_, symObjAddr: 0x77C, symBinAddr: 0x1000344B8, symSize: 0x20 }
  - { offsetInCU: 0x12CD9, offset: 0x3C116D, size: 0x8, addend: 0x0, symName: __ZNK8crashpad8internal22ModuleSnapshotMinidump13SourceVersionEPtS2_S2_S2_, symObjAddr: 0x79C, symBinAddr: 0x1000344D8, symSize: 0x20 }
  - { offsetInCU: 0x12D54, offset: 0x3C11E8, size: 0x8, addend: 0x0, symName: __ZNK8crashpad8internal22ModuleSnapshotMinidump13GetModuleTypeEv, symObjAddr: 0x7BC, symBinAddr: 0x1000344F8, symSize: 0x1C }
  - { offsetInCU: 0x12D7D, offset: 0x3C1211, size: 0x8, addend: 0x0, symName: __ZNK8crashpad8internal22ModuleSnapshotMinidump10UUIDAndAgeEPNS_4UUIDEPj, symObjAddr: 0x7D8, symBinAddr: 0x100034514, symSize: 0x14 }
  - { offsetInCU: 0x12DBE, offset: 0x3C1252, size: 0x8, addend: 0x0, symName: __ZNK8crashpad8internal22ModuleSnapshotMinidump13DebugFileNameEv, symObjAddr: 0x7EC, symBinAddr: 0x100034528, symSize: 0xA4 }
  - { offsetInCU: 0x1319B, offset: 0x3C162F, size: 0x8, addend: 0x0, symName: __ZNK8crashpad8internal22ModuleSnapshotMinidump7BuildIDEv, symObjAddr: 0x890, symBinAddr: 0x1000345CC, symSize: 0x88 }
  - { offsetInCU: 0x133C6, offset: 0x3C185A, size: 0x8, addend: 0x0, symName: __ZNK8crashpad8internal22ModuleSnapshotMinidump7BuildIDEv, symObjAddr: 0x890, symBinAddr: 0x1000345CC, symSize: 0x88 }
  - { offsetInCU: 0x138E5, offset: 0x3C1D79, size: 0x8, addend: 0x0, symName: __ZNK8crashpad8internal22ModuleSnapshotMinidump17AnnotationsVectorEv, symObjAddr: 0x918, symBinAddr: 0x100034654, symSize: 0xC }
  - { offsetInCU: 0x13D9D, offset: 0x3C2231, size: 0x8, addend: 0x0, symName: __ZNK8crashpad8internal22ModuleSnapshotMinidump20AnnotationsSimpleMapEv, symObjAddr: 0x924, symBinAddr: 0x100034660, symSize: 0xB0 }
  - { offsetInCU: 0x1449B, offset: 0x3C292F, size: 0x8, addend: 0x0, symName: __ZNK8crashpad8internal22ModuleSnapshotMinidump17AnnotationObjectsEv, symObjAddr: 0x9D4, symBinAddr: 0x100034710, symSize: 0x30 }
  - { offsetInCU: 0x144C6, offset: 0x3C295A, size: 0x8, addend: 0x0, symName: __ZNK8crashpad8internal22ModuleSnapshotMinidump17AnnotationObjectsEv, symObjAddr: 0x9D4, symBinAddr: 0x100034710, symSize: 0x30 }
  - { offsetInCU: 0x144ED, offset: 0x3C2981, size: 0x8, addend: 0x0, symName: __ZNK8crashpad8internal22ModuleSnapshotMinidump17AnnotationObjectsEv, symObjAddr: 0x9D4, symBinAddr: 0x100034710, symSize: 0x30 }
  - { offsetInCU: 0x14540, offset: 0x3C29D4, size: 0x8, addend: 0x0, symName: __ZNSt3__16vectorIN8crashpad18AnnotationSnapshotENS_9allocatorIS2_EEE16__init_with_sizeB8ue170006IPS2_S7_EEvT_T0_m, symObjAddr: 0xEBC, symBinAddr: 0x100034944, symSize: 0x100 }
  - { offsetInCU: 0x14AE0, offset: 0x3C2F74, size: 0x8, addend: 0x0, symName: __ZNK8crashpad8internal22ModuleSnapshotMinidump17ExtraMemoryRangesEv, symObjAddr: 0xA04, symBinAddr: 0x100034740, symSize: 0x14 }
  - { offsetInCU: 0x14B07, offset: 0x3C2F9B, size: 0x8, addend: 0x0, symName: __ZNK8crashpad8internal22ModuleSnapshotMinidump17ExtraMemoryRangesEv, symObjAddr: 0xA04, symBinAddr: 0x100034740, symSize: 0x14 }
  - { offsetInCU: 0x14B24, offset: 0x3C2FB8, size: 0x8, addend: 0x0, symName: __ZNK8crashpad8internal22ModuleSnapshotMinidump17ExtraMemoryRangesEv, symObjAddr: 0xA04, symBinAddr: 0x100034740, symSize: 0x14 }
  - { offsetInCU: 0x14B42, offset: 0x3C2FD6, size: 0x8, addend: 0x0, symName: __ZNK8crashpad8internal22ModuleSnapshotMinidump17ExtraMemoryRangesEv, symObjAddr: 0xA04, symBinAddr: 0x100034740, symSize: 0x14 }
  - { offsetInCU: 0x14B60, offset: 0x3C2FF4, size: 0x8, addend: 0x0, symName: __ZNK8crashpad8internal22ModuleSnapshotMinidump17ExtraMemoryRangesEv, symObjAddr: 0xA04, symBinAddr: 0x100034740, symSize: 0x14 }
  - { offsetInCU: 0x14B7E, offset: 0x3C3012, size: 0x8, addend: 0x0, symName: __ZNK8crashpad8internal22ModuleSnapshotMinidump17ExtraMemoryRangesEv, symObjAddr: 0xA04, symBinAddr: 0x100034740, symSize: 0x14 }
  - { offsetInCU: 0x14B9E, offset: 0x3C3032, size: 0x8, addend: 0x0, symName: __ZNK8crashpad8internal22ModuleSnapshotMinidump17ExtraMemoryRangesEv, symObjAddr: 0xA04, symBinAddr: 0x100034740, symSize: 0x14 }
  - { offsetInCU: 0x14BBD, offset: 0x3C3051, size: 0x8, addend: 0x0, symName: __ZNK8crashpad8internal22ModuleSnapshotMinidump17ExtraMemoryRangesEv, symObjAddr: 0xA04, symBinAddr: 0x100034740, symSize: 0x14 }
  - { offsetInCU: 0x14C1A, offset: 0x3C30AE, size: 0x8, addend: 0x0, symName: __ZNK8crashpad8internal22ModuleSnapshotMinidump21CustomMinidumpStreamsEv, symObjAddr: 0xA18, symBinAddr: 0x100034754, symSize: 0xC }
  - { offsetInCU: 0x14C41, offset: 0x3C30D5, size: 0x8, addend: 0x0, symName: __ZNK8crashpad8internal22ModuleSnapshotMinidump21CustomMinidumpStreamsEv, symObjAddr: 0xA18, symBinAddr: 0x100034754, symSize: 0xC }
  - { offsetInCU: 0x14C5E, offset: 0x3C30F2, size: 0x8, addend: 0x0, symName: __ZNK8crashpad8internal22ModuleSnapshotMinidump21CustomMinidumpStreamsEv, symObjAddr: 0xA18, symBinAddr: 0x100034754, symSize: 0xC }
  - { offsetInCU: 0x1556D, offset: 0x3C3A01, size: 0x8, addend: 0x0, symName: __ZNSt3__16vectorIN8crashpad18AnnotationSnapshotENS_9allocatorIS2_EEE16__init_with_sizeB8ue170006IPS2_S7_EEvT_T0_m, symObjAddr: 0xEBC, symBinAddr: 0x100034944, symSize: 0x100 }
  - { offsetInCU: 0x15578, offset: 0x3C3A0C, size: 0x8, addend: 0x0, symName: __ZNSt3__16vectorINS_12basic_stringIcNS_11char_traitsIcEENS_9allocatorIcEEEENS4_IS6_EEEC2ERKS8_.cold.1, symObjAddr: 0x1C6C, symBinAddr: 0x100065F84, symSize: 0x64 }
  - { offsetInCU: 0x16187, offset: 0x3C461B, size: 0x8, addend: 0x0, symName: __ZNSt3__128__exception_guard_exceptionsINS_6vectorIN8crashpad18AnnotationSnapshotENS_9allocatorIS3_EEE16__destroy_vectorEED1B8ue170006Ev, symObjAddr: 0xFBC, symBinAddr: 0x100034A44, symSize: 0x84 }
  - { offsetInCU: 0x16367, offset: 0x3C47FB, size: 0x8, addend: 0x0, symName: __ZN8crashpad18AnnotationSnapshotC2ERKS0_.cold.1, symObjAddr: 0x1CD0, symBinAddr: 0x100065FE8, symSize: 0x14 }
  - { offsetInCU: 0x16382, offset: 0x3C4816, size: 0x8, addend: 0x0, symName: __ZN8crashpad18AnnotationSnapshotC2ERKS0_.cold.1, symObjAddr: 0x1CD0, symBinAddr: 0x100065FE8, symSize: 0x14 }
  - { offsetInCU: 0x16397, offset: 0x3C482B, size: 0x8, addend: 0x0, symName: __ZN8crashpad18AnnotationSnapshotC2ERKS0_.cold.1, symObjAddr: 0x1CD0, symBinAddr: 0x100065FE8, symSize: 0x14 }
  - { offsetInCU: 0x163AE, offset: 0x3C4842, size: 0x8, addend: 0x0, symName: __ZN8crashpad18AnnotationSnapshotC2ERKS0_.cold.1, symObjAddr: 0x1CD0, symBinAddr: 0x100065FE8, symSize: 0x14 }
  - { offsetInCU: 0x2C9A7, offset: 0x3F2775, size: 0x8, addend: 0x0, symName: __ZN8crashpad23ProcessSnapshotMinidumpC2Ev, symObjAddr: 0x0, symBinAddr: 0x100034AC8, symSize: 0x184 }
  - { offsetInCU: 0x2D187, offset: 0x3F2F55, size: 0x8, addend: 0x0, symName: __ZNSt3__16vectorINS_10unique_ptrIN8crashpad14MinidumpStreamENS_14default_deleteIS3_EEEENS_9allocatorIS6_EEED1B8ue170006Ev, symObjAddr: 0x184, symBinAddr: 0x100034C4C, symSize: 0x80 }
  - { offsetInCU: 0x2D555, offset: 0x3F3323, size: 0x8, addend: 0x0, symName: __ZNSt3__16vectorINS_10unique_ptrIN8crashpad8internal22MemorySnapshotMinidumpENS_14default_deleteIS4_EEEENS_9allocatorIS7_EEED1B8ue170006Ev, symObjAddr: 0x204, symBinAddr: 0x100034CCC, symSize: 0x74 }
  - { offsetInCU: 0x2D7C1, offset: 0x3F358F, size: 0x8, addend: 0x0, symName: __ZNSt3__16vectorINS_10unique_ptrIN8crashpad8internal31MemoryMapRegionSnapshotMinidumpENS_14default_deleteIS4_EEEENS_9allocatorIS7_EEED1B8ue170006Ev, symObjAddr: 0x278, symBinAddr: 0x100034D40, symSize: 0x74 }
  - { offsetInCU: 0x2DB33, offset: 0x3F3901, size: 0x8, addend: 0x0, symName: __ZNSt3__16__treeINS_12__value_typeIjNS_12basic_stringIcNS_11char_traitsIcEENS_9allocatorIcEEEEEENS_19__map_value_compareIjS8_NS_4lessIjEELb1EEENS5_IS8_EEE7destroyEPNS_11__tree_nodeIS8_PvEE, symObjAddr: 0x3888, symBinAddr: 0x100038228, symSize: 0x60 }
  - { offsetInCU: 0x2DDFC, offset: 0x3F3BCA, size: 0x8, addend: 0x0, symName: __ZNSt3__16vectorINS_10unique_ptrIN8crashpad8internal22ThreadSnapshotMinidumpENS_14default_deleteIS4_EEEENS_9allocatorIS7_EEED1B8ue170006Ev, symObjAddr: 0x344, symBinAddr: 0x100034DB4, symSize: 0x74 }
  - { offsetInCU: 0x2E068, offset: 0x3F3E36, size: 0x8, addend: 0x0, symName: __ZNSt3__16vectorINS_10unique_ptrIN8crashpad8internal22ModuleSnapshotMinidumpENS_14default_deleteIS4_EEEENS_9allocatorIS7_EEED1B8ue170006Ev, symObjAddr: 0x3B8, symBinAddr: 0x100034E28, symSize: 0x70 }
  - { offsetInCU: 0x2E2C8, offset: 0x3F4096, size: 0x8, addend: 0x0, symName: __ZNSt3__16__treeINS_12__value_typeIN8crashpad18MinidumpStreamTypeEPK28MINIDUMP_LOCATION_DESCRIPTOREENS_19__map_value_compareIS3_S7_NS_4lessIS3_EELb1EEENS_9allocatorIS7_EEE7destroyEPNS_11__tree_nodeIS7_PvEE, symObjAddr: 0x3848, symBinAddr: 0x1000381E8, symSize: 0x40 }
  - { offsetInCU: 0x2EE22, offset: 0x3F4BF0, size: 0x8, addend: 0x0, symName: __ZN8crashpad23ProcessSnapshotMinidumpC1Ev, symObjAddr: 0x428, symBinAddr: 0x100034E98, symSize: 0x4 }
  - { offsetInCU: 0x2EE50, offset: 0x3F4C1E, size: 0x8, addend: 0x0, symName: __ZN8crashpad23ProcessSnapshotMinidumpC1Ev, symObjAddr: 0x428, symBinAddr: 0x100034E98, symSize: 0x4 }
  - { offsetInCU: 0x2F045, offset: 0x3F4E13, size: 0x8, addend: 0x0, symName: __ZN8crashpad23ProcessSnapshotMinidumpD2Ev, symObjAddr: 0x42C, symBinAddr: 0x100034E9C, symSize: 0x248 }
  - { offsetInCU: 0x30802, offset: 0x3F65D0, size: 0x8, addend: 0x0, symName: __ZN8crashpad23ProcessSnapshotMinidumpD1Ev, symObjAddr: 0x674, symBinAddr: 0x1000350E4, symSize: 0x4 }
  - { offsetInCU: 0x30826, offset: 0x3F65F4, size: 0x8, addend: 0x0, symName: __ZN8crashpad23ProcessSnapshotMinidumpD1Ev, symObjAddr: 0x674, symBinAddr: 0x1000350E4, symSize: 0x4 }
  - { offsetInCU: 0x30859, offset: 0x3F6627, size: 0x8, addend: 0x0, symName: __ZN8crashpad23ProcessSnapshotMinidumpD0Ev, symObjAddr: 0x678, symBinAddr: 0x1000350E8, symSize: 0x14 }
  - { offsetInCU: 0x30F2D, offset: 0x3F6CFB, size: 0x8, addend: 0x0, symName: __ZN8crashpad23ProcessSnapshotMinidump10InitializeEPNS_19FileReaderInterfaceE, symObjAddr: 0x68C, symBinAddr: 0x1000350FC, symSize: 0x39C }
  - { offsetInCU: 0x3165B, offset: 0x3F7429, size: 0x8, addend: 0x0, symName: __ZNSt3__16vectorI18MINIDUMP_DIRECTORYNS_9allocatorIS1_EEE8__appendEm, symObjAddr: 0x2D04, symBinAddr: 0x100037768, symSize: 0x198 }
  - { offsetInCU: 0x31B40, offset: 0x3F790E, size: 0x8, addend: 0x0, symName: __ZNKSt3__16vectorI18MINIDUMP_DIRECTORYNS_9allocatorIS1_EEE20__throw_length_errorB8ue170006Ev, symObjAddr: 0x2E9C, symBinAddr: 0x100037900, symSize: 0x14 }
  - { offsetInCU: 0x31B4B, offset: 0x3F7919, size: 0x8, addend: 0x0, symName: __ZN8crashpad23ProcessSnapshotMinidump22InitializeCrashpadInfoEv, symObjAddr: 0xA28, symBinAddr: 0x100035498, symSize: 0x1F8 }
  - { offsetInCU: 0x31E05, offset: 0x3F7BD3, size: 0x8, addend: 0x0, symName: __ZN8crashpad23ProcessSnapshotMinidump18InitializeMiscInfoEv, symObjAddr: 0xC20, symBinAddr: 0x100035690, symSize: 0x2E0 }
  - { offsetInCU: 0x32953, offset: 0x3F8721, size: 0x8, addend: 0x0, symName: __ZN8crashpad23ProcessSnapshotMinidump17InitializeModulesEv, symObjAddr: 0xF00, symBinAddr: 0x100035970, symSize: 0x308 }
  - { offsetInCU: 0x33362, offset: 0x3F9130, size: 0x8, addend: 0x0, symName: __ZN8crashpad23ProcessSnapshotMinidump24InitializeSystemSnapshotEv, symObjAddr: 0x1208, symBinAddr: 0x100035C78, symSize: 0x118 }
  - { offsetInCU: 0x33556, offset: 0x3F9324, size: 0x8, addend: 0x0, symName: __ZN8crashpad23ProcessSnapshotMinidump20InitializeMemoryInfoEv, symObjAddr: 0x1320, symBinAddr: 0x100035D90, symSize: 0x344 }
  - { offsetInCU: 0x340D5, offset: 0x3F9EA3, size: 0x8, addend: 0x0, symName: __ZN8crashpad23ProcessSnapshotMinidump21InitializeExtraMemoryEv, symObjAddr: 0x1664, symBinAddr: 0x1000360D4, symSize: 0x22C }
  - { offsetInCU: 0x34740, offset: 0x3FA50E, size: 0x8, addend: 0x0, symName: __ZN8crashpad23ProcessSnapshotMinidump17InitializeThreadsEv, symObjAddr: 0x1890, symBinAddr: 0x100036300, symSize: 0x298 }
  - { offsetInCU: 0x34EB4, offset: 0x3FAC82, size: 0x8, addend: 0x0, symName: __ZN8crashpad23ProcessSnapshotMinidump31InitializeCustomMinidumpStreamsEv, symObjAddr: 0x1B28, symBinAddr: 0x100036598, symSize: 0x300 }
  - { offsetInCU: 0x3601D, offset: 0x3FBDEB, size: 0x8, addend: 0x0, symName: __ZN8crashpad23ProcessSnapshotMinidump27InitializeExceptionSnapshotEv, symObjAddr: 0x1E28, symBinAddr: 0x100036898, symSize: 0x100 }
  - { offsetInCU: 0x3673F, offset: 0x3FC50D, size: 0x8, addend: 0x0, symName: __ZNKSt3__16vectorIPKN8crashpad23MemoryMapRegionSnapshotENS_9allocatorIS4_EEE20__throw_length_errorB8ue170006Ev, symObjAddr: 0x31C4, symBinAddr: 0x100037B78, symSize: 0x14 }
  - { offsetInCU: 0x36D75, offset: 0x3FCB43, size: 0x8, addend: 0x0, symName: __ZN8crashpad23ProcessSnapshotMinidump29InitializeModulesCrashpadInfoEPNSt3__13mapIj28MINIDUMP_LOCATION_DESCRIPTORNS1_4lessIjEENS1_9allocatorINS1_4pairIKjS3_EEEEEE, symObjAddr: 0x26AC, symBinAddr: 0x10003711C, symSize: 0x2F8 }
  - { offsetInCU: 0x3747D, offset: 0x3FD24B, size: 0x8, addend: 0x0, symName: __ZNSt3__16vectorINS_10unique_ptrIN8crashpad8internal22ModuleSnapshotMinidumpENS_14default_deleteIS4_EEEENS_9allocatorIS7_EEE21__push_back_slow_pathIS7_EEvOT_, symObjAddr: 0x3200, symBinAddr: 0x100037BB4, symSize: 0x124 }
  - { offsetInCU: 0x37B33, offset: 0x3FD901, size: 0x8, addend: 0x0, symName: __ZNKSt3__16vectorINS_10unique_ptrIN8crashpad8internal22ModuleSnapshotMinidumpENS_14default_deleteIS4_EEEENS_9allocatorIS7_EEE20__throw_length_errorB8ue170006Ev, symObjAddr: 0x3324, symBinAddr: 0x100037CD8, symSize: 0x14 }
  - { offsetInCU: 0x37B47, offset: 0x3FD915, size: 0x8, addend: 0x0, symName: __ZNSt3__110unique_ptrIN8crashpad8internal22ModuleSnapshotMinidumpENS_14default_deleteIS3_EEED1B8ue170006Ev, symObjAddr: 0x29A4, symBinAddr: 0x100037414, symSize: 0x34 }
  - { offsetInCU: 0x37BE0, offset: 0x3FD9AE, size: 0x8, addend: 0x0, symName: __ZNSt3__16__treeINS_12__value_typeIj28MINIDUMP_LOCATION_DESCRIPTOREENS_19__map_value_compareIjS3_NS_4lessIjEELb1EEENS_9allocatorIS3_EEE7destroyEPNS_11__tree_nodeIS3_PvEE, symObjAddr: 0x3E0C, symBinAddr: 0x100038288, symSize: 0x40 }
  - { offsetInCU: 0x3842E, offset: 0x3FE1FC, size: 0x8, addend: 0x0, symName: __ZNSt3__16vectorINS_10unique_ptrIN8crashpad8internal31MemoryMapRegionSnapshotMinidumpENS_14default_deleteIS4_EEEENS_9allocatorIS7_EEE24__emplace_back_slow_pathIJS7_EEEvDpOT_, symObjAddr: 0x3338, symBinAddr: 0x100037CEC, symSize: 0x128 }
  - { offsetInCU: 0x38AF0, offset: 0x3FE8BE, size: 0x8, addend: 0x0, symName: __ZNKSt3__16vectorINS_10unique_ptrIN8crashpad8internal31MemoryMapRegionSnapshotMinidumpENS_14default_deleteIS4_EEEENS_9allocatorIS7_EEE20__throw_length_errorB8ue170006Ev, symObjAddr: 0x3460, symBinAddr: 0x100037E14, symSize: 0x14 }
  - { offsetInCU: 0x38B06, offset: 0x3FE8D4, size: 0x8, addend: 0x0, symName: __ZNKSt3__16vectorIPKN8crashpad23MemoryMapRegionSnapshotENS_9allocatorIS4_EEE20__throw_length_errorB8ue170006Ev, symObjAddr: 0x31C4, symBinAddr: 0x100037B78, symSize: 0x14 }
  - { offsetInCU: 0x38B30, offset: 0x3FE8FE, size: 0x8, addend: 0x0, symName: __ZNKSt3__16vectorIPKN8crashpad14MemorySnapshotENS_9allocatorIS4_EEE20__throw_length_errorB8ue170006Ev, symObjAddr: 0x31D8, symBinAddr: 0x100037B8C, symSize: 0x14 }
  - { offsetInCU: 0x38EA6, offset: 0x3FEC74, size: 0x8, addend: 0x0, symName: __ZNSt3__16vectorINS_10unique_ptrIN8crashpad8internal22MemorySnapshotMinidumpENS_14default_deleteIS4_EEEENS_9allocatorIS7_EEE24__emplace_back_slow_pathIJS7_EEEvDpOT_, symObjAddr: 0x3474, symBinAddr: 0x100037E28, symSize: 0x128 }
  - { offsetInCU: 0x39568, offset: 0x3FF336, size: 0x8, addend: 0x0, symName: __ZNKSt3__16vectorINS_10unique_ptrIN8crashpad8internal22MemorySnapshotMinidumpENS_14default_deleteIS4_EEEENS_9allocatorIS7_EEE20__throw_length_errorB8ue170006Ev, symObjAddr: 0x359C, symBinAddr: 0x100037F50, symSize: 0x14 }
  - { offsetInCU: 0x398B2, offset: 0x3FF680, size: 0x8, addend: 0x0, symName: __ZN8crashpad23ProcessSnapshotMinidump21InitializeThreadNamesEv, symObjAddr: 0x29D8, symBinAddr: 0x100037448, symSize: 0x2DC }
  - { offsetInCU: 0x3A209, offset: 0x3FFFD7, size: 0x8, addend: 0x0, symName: __ZNSt3__16vectorINS_10unique_ptrIN8crashpad8internal22ThreadSnapshotMinidumpENS_14default_deleteIS4_EEEENS_9allocatorIS7_EEE21__push_back_slow_pathIS7_EEvOT_, symObjAddr: 0x35B0, symBinAddr: 0x100037F64, symSize: 0x128 }
  - { offsetInCU: 0x3A8CB, offset: 0x400699, size: 0x8, addend: 0x0, symName: __ZNKSt3__16vectorINS_10unique_ptrIN8crashpad8internal22ThreadSnapshotMinidumpENS_14default_deleteIS4_EEEENS_9allocatorIS7_EEE20__throw_length_errorB8ue170006Ev, symObjAddr: 0x36D8, symBinAddr: 0x10003808C, symSize: 0x14 }
  - { offsetInCU: 0x3B035, offset: 0x400E03, size: 0x8, addend: 0x0, symName: __ZNSt3__16vectorINS_10unique_ptrIN8crashpad14MinidumpStreamENS_14default_deleteIS3_EEEENS_9allocatorIS6_EEE21__push_back_slow_pathIS6_EEvOT_, symObjAddr: 0x3700, symBinAddr: 0x1000380A0, symSize: 0x134 }
  - { offsetInCU: 0x3B859, offset: 0x401627, size: 0x8, addend: 0x0, symName: __ZNKSt3__16vectorINS_10unique_ptrIN8crashpad14MinidumpStreamENS_14default_deleteIS3_EEEENS_9allocatorIS6_EEE20__throw_length_errorB8ue170006Ev, symObjAddr: 0x3834, symBinAddr: 0x1000381D4, symSize: 0x14 }
  - { offsetInCU: 0x3B885, offset: 0x401653, size: 0x8, addend: 0x0, symName: __ZNSt3__16vectorINS_10unique_ptrIN8crashpad14MinidumpStreamENS_14default_deleteIS3_EEEENS_9allocatorIS6_EEE21__push_back_slow_pathIS6_EEvOT_, symObjAddr: 0x3700, symBinAddr: 0x1000380A0, symSize: 0x134 }
  - { offsetInCU: 0x3B890, offset: 0x40165E, size: 0x8, addend: 0x0, symName: __ZNSt3__110unique_ptrIN8crashpad14MinidumpStreamENS_14default_deleteIS2_EEED1B8ue170006Ev, symObjAddr: 0x2CB4, symBinAddr: 0x100037724, symSize: 0x44 }
  - { offsetInCU: 0x3BAB8, offset: 0x401886, size: 0x8, addend: 0x0, symName: __ZNK8crashpad23ProcessSnapshotMinidump9ProcessIDEv, symObjAddr: 0x1F28, symBinAddr: 0x100036998, symSize: 0x8 }
  - { offsetInCU: 0x3BAE1, offset: 0x4018AF, size: 0x8, addend: 0x0, symName: __ZNK8crashpad23ProcessSnapshotMinidump15ParentProcessIDEv, symObjAddr: 0x1F30, symBinAddr: 0x1000369A0, symSize: 0x8 }
  - { offsetInCU: 0x3BB06, offset: 0x4018D4, size: 0x8, addend: 0x0, symName: __ZNK8crashpad23ProcessSnapshotMinidump12SnapshotTimeEP7timeval, symObjAddr: 0x1F38, symBinAddr: 0x1000369A8, symSize: 0x10 }
  - { offsetInCU: 0x3BB3A, offset: 0x401908, size: 0x8, addend: 0x0, symName: __ZNK8crashpad23ProcessSnapshotMinidump16ProcessStartTimeEP7timeval, symObjAddr: 0x1F48, symBinAddr: 0x1000369B8, symSize: 0x10 }
  - { offsetInCU: 0x3BB6E, offset: 0x40193C, size: 0x8, addend: 0x0, symName: __ZNK8crashpad23ProcessSnapshotMinidump15ProcessCPUTimesEP7timevalS2_, symObjAddr: 0x1F58, symBinAddr: 0x1000369C8, symSize: 0x1C }
  - { offsetInCU: 0x3BBAF, offset: 0x40197D, size: 0x8, addend: 0x0, symName: __ZNK8crashpad23ProcessSnapshotMinidump8ReportIDEPNS_4UUIDE, symObjAddr: 0x1F74, symBinAddr: 0x1000369E4, symSize: 0x10 }
  - { offsetInCU: 0x3BBE3, offset: 0x4019B1, size: 0x8, addend: 0x0, symName: __ZNK8crashpad23ProcessSnapshotMinidump8ClientIDEPNS_4UUIDE, symObjAddr: 0x1F84, symBinAddr: 0x1000369F4, symSize: 0x10 }
  - { offsetInCU: 0x3BC17, offset: 0x4019E5, size: 0x8, addend: 0x0, symName: __ZNK8crashpad23ProcessSnapshotMinidump20AnnotationsSimpleMapEv, symObjAddr: 0x1F94, symBinAddr: 0x100036A04, symSize: 0x8 }
  - { offsetInCU: 0x3BC40, offset: 0x401A0E, size: 0x8, addend: 0x0, symName: __ZNK8crashpad23ProcessSnapshotMinidump6SystemEv, symObjAddr: 0x1F9C, symBinAddr: 0x100036A0C, symSize: 0x8 }
  - { offsetInCU: 0x3C118, offset: 0x401EE6, size: 0x8, addend: 0x0, symName: __ZNK8crashpad23ProcessSnapshotMinidump7ThreadsEv, symObjAddr: 0x1FA4, symBinAddr: 0x100036A14, symSize: 0x17C }
  - { offsetInCU: 0x3C7CB, offset: 0x402599, size: 0x8, addend: 0x0, symName: __ZNKSt3__16vectorIPKN8crashpad14ThreadSnapshotENS_9allocatorIS4_EEE20__throw_length_errorB8ue170006Ev, symObjAddr: 0x2F4C, symBinAddr: 0x100037914, symSize: 0x14 }
  - { offsetInCU: 0x3C7F5, offset: 0x4025C3, size: 0x8, addend: 0x0, symName: __ZNKSt3__16vectorIPKN8crashpad14ModuleSnapshotENS_9allocatorIS4_EEE20__throw_length_errorB8ue170006Ev, symObjAddr: 0x2F60, symBinAddr: 0x100037928, symSize: 0x14 }
  - { offsetInCU: 0x3CCAF, offset: 0x402A7D, size: 0x8, addend: 0x0, symName: __ZNK8crashpad23ProcessSnapshotMinidump7ModulesEv, symObjAddr: 0x2120, symBinAddr: 0x100036B90, symSize: 0x17C }
  - { offsetInCU: 0x3D362, offset: 0x403130, size: 0x8, addend: 0x0, symName: __ZNKSt3__16vectorIPKN8crashpad14ModuleSnapshotENS_9allocatorIS4_EEE20__throw_length_errorB8ue170006Ev, symObjAddr: 0x2F60, symBinAddr: 0x100037928, symSize: 0x14 }
  - { offsetInCU: 0x3D38C, offset: 0x40315A, size: 0x8, addend: 0x0, symName: __ZNSt3__16vectorIN8crashpad22UnloadedModuleSnapshotENS_9allocatorIS2_EEE16__init_with_sizeB8ue170006IPS2_S7_EEvT_T0_m, symObjAddr: 0x2F74, symBinAddr: 0x10003793C, symSize: 0x1A4 }
  - { offsetInCU: 0x3D404, offset: 0x4031D2, size: 0x8, addend: 0x0, symName: __ZNK8crashpad23ProcessSnapshotMinidump15UnloadedModulesEv, symObjAddr: 0x229C, symBinAddr: 0x100036D0C, symSize: 0x28 }
  - { offsetInCU: 0x3D42F, offset: 0x4031FD, size: 0x8, addend: 0x0, symName: __ZNK8crashpad23ProcessSnapshotMinidump15UnloadedModulesEv, symObjAddr: 0x229C, symBinAddr: 0x100036D0C, symSize: 0x28 }
  - { offsetInCU: 0x3D456, offset: 0x403224, size: 0x8, addend: 0x0, symName: __ZNK8crashpad23ProcessSnapshotMinidump15UnloadedModulesEv, symObjAddr: 0x229C, symBinAddr: 0x100036D0C, symSize: 0x28 }
  - { offsetInCU: 0x3D4A9, offset: 0x403277, size: 0x8, addend: 0x0, symName: __ZNSt3__16vectorIN8crashpad22UnloadedModuleSnapshotENS_9allocatorIS2_EEE16__init_with_sizeB8ue170006IPS2_S7_EEvT_T0_m, symObjAddr: 0x2F74, symBinAddr: 0x10003793C, symSize: 0x1A4 }
  - { offsetInCU: 0x3DDE3, offset: 0x403BB1, size: 0x8, addend: 0x0, symName: __ZNK8crashpad23ProcessSnapshotMinidump9ExceptionEv, symObjAddr: 0x22C4, symBinAddr: 0x100036D34, symSize: 0x14 }
  - { offsetInCU: 0x3E02B, offset: 0x403DF9, size: 0x8, addend: 0x0, symName: __ZNK8crashpad23ProcessSnapshotMinidump9MemoryMapEv, symObjAddr: 0x22D8, symBinAddr: 0x100036D48, symSize: 0x8C }
  - { offsetInCU: 0x3E525, offset: 0x4042F3, size: 0x8, addend: 0x0, symName: __ZNK8crashpad23ProcessSnapshotMinidump7HandlesEv, symObjAddr: 0x2364, symBinAddr: 0x100036DD4, symSize: 0xC }
  - { offsetInCU: 0x3E54C, offset: 0x40431A, size: 0x8, addend: 0x0, symName: __ZNK8crashpad23ProcessSnapshotMinidump7HandlesEv, symObjAddr: 0x2364, symBinAddr: 0x100036DD4, symSize: 0xC }
  - { offsetInCU: 0x3E569, offset: 0x404337, size: 0x8, addend: 0x0, symName: __ZNK8crashpad23ProcessSnapshotMinidump7HandlesEv, symObjAddr: 0x2364, symBinAddr: 0x100036DD4, symSize: 0xC }
  - { offsetInCU: 0x3EA36, offset: 0x404804, size: 0x8, addend: 0x0, symName: __ZNK8crashpad23ProcessSnapshotMinidump11ExtraMemoryEv, symObjAddr: 0x2370, symBinAddr: 0x100036DE0, symSize: 0x17C }
  - { offsetInCU: 0x3F0E9, offset: 0x404EB7, size: 0x8, addend: 0x0, symName: __ZNKSt3__16vectorIPKN8crashpad14MemorySnapshotENS_9allocatorIS4_EEE20__throw_length_errorB8ue170006Ev, symObjAddr: 0x31D8, symBinAddr: 0x100037B8C, symSize: 0x14 }
  - { offsetInCU: 0x3F113, offset: 0x404EE1, size: 0x8, addend: 0x0, symName: __ZNKSt3__16vectorIPKN8crashpad14MinidumpStreamENS_9allocatorIS4_EEE20__throw_length_errorB8ue170006Ev, symObjAddr: 0x31EC, symBinAddr: 0x100037BA0, symSize: 0x14 }
  - { offsetInCU: 0x3F11E, offset: 0x404EEC, size: 0x8, addend: 0x0, symName: __ZNK8crashpad23ProcessSnapshotMinidump6MemoryEv, symObjAddr: 0x24EC, symBinAddr: 0x100036F5C, symSize: 0x8 }
  - { offsetInCU: 0x3F632, offset: 0x405400, size: 0x8, addend: 0x0, symName: __ZNK8crashpad23ProcessSnapshotMinidump21CustomMinidumpStreamsEv, symObjAddr: 0x24F4, symBinAddr: 0x100036F64, symSize: 0x1B8 }
  - { offsetInCU: 0x3FE67, offset: 0x405C35, size: 0x8, addend: 0x0, symName: __ZNKSt3__16vectorIPKN8crashpad14MinidumpStreamENS_9allocatorIS4_EEE20__throw_length_errorB8ue170006Ev, symObjAddr: 0x31EC, symBinAddr: 0x100037BA0, symSize: 0x14 }
  - { offsetInCU: 0x3FE91, offset: 0x405C5F, size: 0x8, addend: 0x0, symName: __ZNSt3__16vectorINS_10unique_ptrIN8crashpad8internal22ModuleSnapshotMinidumpENS_14default_deleteIS4_EEEENS_9allocatorIS7_EEE21__push_back_slow_pathIS7_EEvOT_, symObjAddr: 0x3200, symBinAddr: 0x100037BB4, symSize: 0x124 }
  - { offsetInCU: 0x40ACD, offset: 0x40689B, size: 0x8, addend: 0x0, symName: __ZNKSt3__16vectorI18MINIDUMP_DIRECTORYNS_9allocatorIS1_EEE20__throw_length_errorB8ue170006Ev, symObjAddr: 0x2E9C, symBinAddr: 0x100037900, symSize: 0x14 }
  - { offsetInCU: 0x40E82, offset: 0x406C50, size: 0x8, addend: 0x0, symName: __ZNKSt3__16vectorIN8crashpad22UnloadedModuleSnapshotENS_9allocatorIS2_EEE20__throw_length_errorB8ue170006Ev, symObjAddr: 0x319C, symBinAddr: 0x100037B64, symSize: 0x14 }
  - { offsetInCU: 0x40EB7, offset: 0x406C85, size: 0x8, addend: 0x0, symName: __ZNSt3__128__exception_guard_exceptionsINS_6vectorIN8crashpad22UnloadedModuleSnapshotENS_9allocatorIS3_EEE16__destroy_vectorEED1B8ue170006Ev, symObjAddr: 0x3118, symBinAddr: 0x100037AE0, symSize: 0x84 }
  - { offsetInCU: 0x41276, offset: 0x407044, size: 0x8, addend: 0x0, symName: __ZNKSt3__16vectorINS_10unique_ptrIN8crashpad8internal22ModuleSnapshotMinidumpENS_14default_deleteIS4_EEEENS_9allocatorIS7_EEE20__throw_length_errorB8ue170006Ev, symObjAddr: 0x3324, symBinAddr: 0x100037CD8, symSize: 0x14 }
  - { offsetInCU: 0x412A0, offset: 0x40706E, size: 0x8, addend: 0x0, symName: __ZNSt3__16vectorINS_10unique_ptrIN8crashpad8internal31MemoryMapRegionSnapshotMinidumpENS_14default_deleteIS4_EEEENS_9allocatorIS7_EEE24__emplace_back_slow_pathIJS7_EEEvDpOT_, symObjAddr: 0x3338, symBinAddr: 0x100037CEC, symSize: 0x128 }
  - { offsetInCU: 0x4148F, offset: 0x40725D, size: 0x8, addend: 0x0, symName: __ZNKSt3__16vectorINS_10unique_ptrIN8crashpad8internal31MemoryMapRegionSnapshotMinidumpENS_14default_deleteIS4_EEEENS_9allocatorIS7_EEE20__throw_length_errorB8ue170006Ev, symObjAddr: 0x3460, symBinAddr: 0x100037E14, symSize: 0x14 }
  - { offsetInCU: 0x414B9, offset: 0x407287, size: 0x8, addend: 0x0, symName: __ZNSt3__16vectorINS_10unique_ptrIN8crashpad8internal22MemorySnapshotMinidumpENS_14default_deleteIS4_EEEENS_9allocatorIS7_EEE24__emplace_back_slow_pathIJS7_EEEvDpOT_, symObjAddr: 0x3474, symBinAddr: 0x100037E28, symSize: 0x128 }
  - { offsetInCU: 0x416A3, offset: 0x407471, size: 0x8, addend: 0x0, symName: __ZNKSt3__16vectorINS_10unique_ptrIN8crashpad8internal22MemorySnapshotMinidumpENS_14default_deleteIS4_EEEENS_9allocatorIS7_EEE20__throw_length_errorB8ue170006Ev, symObjAddr: 0x359C, symBinAddr: 0x100037F50, symSize: 0x14 }
  - { offsetInCU: 0x416CD, offset: 0x40749B, size: 0x8, addend: 0x0, symName: __ZNSt3__16vectorINS_10unique_ptrIN8crashpad8internal22ThreadSnapshotMinidumpENS_14default_deleteIS4_EEEENS_9allocatorIS7_EEE21__push_back_slow_pathIS7_EEvOT_, symObjAddr: 0x35B0, symBinAddr: 0x100037F64, symSize: 0x128 }
  - { offsetInCU: 0x418B7, offset: 0x407685, size: 0x8, addend: 0x0, symName: __ZNKSt3__16vectorINS_10unique_ptrIN8crashpad8internal22ThreadSnapshotMinidumpENS_14default_deleteIS4_EEEENS_9allocatorIS7_EEE20__throw_length_errorB8ue170006Ev, symObjAddr: 0x36D8, symBinAddr: 0x10003808C, symSize: 0x14 }
  - { offsetInCU: 0x41AB5, offset: 0x407883, size: 0x8, addend: 0x0, symName: __ZNKSt3__16vectorINS_10unique_ptrIN8crashpad14MinidumpStreamENS_14default_deleteIS3_EEEENS_9allocatorIS6_EEE20__throw_length_errorB8ue170006Ev, symObjAddr: 0x3834, symBinAddr: 0x1000381D4, symSize: 0x14 }
  - { offsetInCU: 0x41ADF, offset: 0x4078AD, size: 0x8, addend: 0x0, symName: __ZNSt3__16__treeINS_12__value_typeIN8crashpad18MinidumpStreamTypeEPK28MINIDUMP_LOCATION_DESCRIPTOREENS_19__map_value_compareIS3_S7_NS_4lessIS3_EELb1EEENS_9allocatorIS7_EEE7destroyEPNS_11__tree_nodeIS7_PvEE, symObjAddr: 0x3848, symBinAddr: 0x1000381E8, symSize: 0x40 }
  - { offsetInCU: 0x42075, offset: 0x407E43, size: 0x8, addend: 0x0, symName: __ZN8crashpad8internal31MemoryMapRegionSnapshotMinidumpD1Ev, symObjAddr: 0x3E4C, symBinAddr: 0x1000382C8, symSize: 0x4 }
  - { offsetInCU: 0x4209E, offset: 0x407E6C, size: 0x8, addend: 0x0, symName: __ZN8crashpad8internal31MemoryMapRegionSnapshotMinidumpD0Ev, symObjAddr: 0x3E50, symBinAddr: 0x1000382CC, symSize: 0x4 }
  - { offsetInCU: 0x420C7, offset: 0x407E95, size: 0x8, addend: 0x0, symName: __ZNK8crashpad8internal31MemoryMapRegionSnapshotMinidump20AsMinidumpMemoryInfoEv, symObjAddr: 0x3E54, symBinAddr: 0x1000382D0, symSize: 0x8 }
  - { offsetInCU: 0x26, offset: 0x407F17, size: 0x8, addend: 0x0, symName: __ZN8crashpad8internal22SystemSnapshotMinidumpC2Ev, symObjAddr: 0x0, symBinAddr: 0x1000382D8, symSize: 0x30 }
  - { offsetInCU: 0x5134, offset: 0x40D025, size: 0x8, addend: 0x0, symName: __ZN8crashpad8internal22SystemSnapshotMinidumpC2Ev, symObjAddr: 0x0, symBinAddr: 0x1000382D8, symSize: 0x30 }
  - { offsetInCU: 0x51DC, offset: 0x40D0CD, size: 0x8, addend: 0x0, symName: __ZN8crashpad8internal22SystemSnapshotMinidumpC1Ev, symObjAddr: 0x30, symBinAddr: 0x100038308, symSize: 0x30 }
  - { offsetInCU: 0x520A, offset: 0x40D0FB, size: 0x8, addend: 0x0, symName: __ZN8crashpad8internal22SystemSnapshotMinidumpC1Ev, symObjAddr: 0x30, symBinAddr: 0x100038308, symSize: 0x30 }
  - { offsetInCU: 0x5354, offset: 0x40D245, size: 0x8, addend: 0x0, symName: __ZN8crashpad8internal22SystemSnapshotMinidumpD2Ev, symObjAddr: 0x60, symBinAddr: 0x100038338, symSize: 0x64 }
  - { offsetInCU: 0x55E2, offset: 0x40D4D3, size: 0x8, addend: 0x0, symName: __ZN8crashpad8internal22SystemSnapshotMinidumpD1Ev, symObjAddr: 0xC4, symBinAddr: 0x10003839C, symSize: 0x64 }
  - { offsetInCU: 0x5888, offset: 0x40D779, size: 0x8, addend: 0x0, symName: __ZN8crashpad8internal22SystemSnapshotMinidumpD0Ev, symObjAddr: 0x128, symBinAddr: 0x100038400, symSize: 0x64 }
  - { offsetInCU: 0x5B34, offset: 0x40DA25, size: 0x8, addend: 0x0, symName: __ZN8crashpad8internal22SystemSnapshotMinidump10InitializeEPNS_19FileReaderInterfaceEjRKNSt3__112basic_stringIcNS4_11char_traitsIcEENS4_9allocatorIcEEEE, symObjAddr: 0x18C, symBinAddr: 0x100038464, symSize: 0x84 }
  - { offsetInCU: 0x5BA8, offset: 0x40DA99, size: 0x8, addend: 0x0, symName: __ZNK8crashpad8internal22SystemSnapshotMinidump18GetCPUArchitectureEv, symObjAddr: 0x210, symBinAddr: 0x1000384E8, symSize: 0x70 }
  - { offsetInCU: 0x5BD1, offset: 0x40DAC2, size: 0x8, addend: 0x0, symName: __ZNK8crashpad8internal22SystemSnapshotMinidump11CPURevisionEv, symObjAddr: 0x280, symBinAddr: 0x100038558, symSize: 0x8 }
  - { offsetInCU: 0x5BFA, offset: 0x40DAEB, size: 0x8, addend: 0x0, symName: __ZNK8crashpad8internal22SystemSnapshotMinidump8CPUCountEv, symObjAddr: 0x288, symBinAddr: 0x100038560, symSize: 0x8 }
  - { offsetInCU: 0x5DAB, offset: 0x40DC9C, size: 0x8, addend: 0x0, symName: __ZNK8crashpad8internal22SystemSnapshotMinidump9CPUVendorEv, symObjAddr: 0x290, symBinAddr: 0x100038568, symSize: 0x64 }
  - { offsetInCU: 0x5FA3, offset: 0x40DE94, size: 0x8, addend: 0x0, symName: __ZNK8crashpad8internal22SystemSnapshotMinidump12CPUFrequencyEPyS2_, symObjAddr: 0x2F4, symBinAddr: 0x1000385CC, symSize: 0x4 }
  - { offsetInCU: 0x5FDE, offset: 0x40DECF, size: 0x8, addend: 0x0, symName: __ZNK8crashpad8internal22SystemSnapshotMinidump15CPUX86SignatureEv, symObjAddr: 0x2F8, symBinAddr: 0x1000385D0, symSize: 0x8 }
  - { offsetInCU: 0x6003, offset: 0x40DEF4, size: 0x8, addend: 0x0, symName: __ZNK8crashpad8internal22SystemSnapshotMinidump14CPUX86FeaturesEv, symObjAddr: 0x300, symBinAddr: 0x1000385D8, symSize: 0x8 }
  - { offsetInCU: 0x6028, offset: 0x40DF19, size: 0x8, addend: 0x0, symName: __ZNK8crashpad8internal22SystemSnapshotMinidump22CPUX86ExtendedFeaturesEv, symObjAddr: 0x308, symBinAddr: 0x1000385E0, symSize: 0x8 }
  - { offsetInCU: 0x604D, offset: 0x40DF3E, size: 0x8, addend: 0x0, symName: __ZNK8crashpad8internal22SystemSnapshotMinidump19CPUX86Leaf7FeaturesEv, symObjAddr: 0x310, symBinAddr: 0x1000385E8, symSize: 0x8 }
  - { offsetInCU: 0x6072, offset: 0x40DF63, size: 0x8, addend: 0x0, symName: __ZNK8crashpad8internal22SystemSnapshotMinidump17CPUX86SupportsDAZEv, symObjAddr: 0x318, symBinAddr: 0x1000385F0, symSize: 0x8 }
  - { offsetInCU: 0x6097, offset: 0x40DF88, size: 0x8, addend: 0x0, symName: __ZNK8crashpad8internal22SystemSnapshotMinidump18GetOperatingSystemEv, symObjAddr: 0x320, symBinAddr: 0x1000385F8, symSize: 0x84 }
  - { offsetInCU: 0x60C0, offset: 0x40DFB1, size: 0x8, addend: 0x0, symName: __ZNK8crashpad8internal22SystemSnapshotMinidump8OSServerEv, symObjAddr: 0x3A4, symBinAddr: 0x10003867C, symSize: 0x10 }
  - { offsetInCU: 0x60E9, offset: 0x40DFDA, size: 0x8, addend: 0x0, symName: __ZNK8crashpad8internal22SystemSnapshotMinidump9OSVersionEPiS2_S2_PNSt3__112basic_stringIcNS3_11char_traitsIcEENS3_9allocatorIcEEEE, symObjAddr: 0x3B4, symBinAddr: 0x10003868C, symSize: 0x24 }
  - { offsetInCU: 0x630A, offset: 0x40E1FB, size: 0x8, addend: 0x0, symName: __ZNK8crashpad8internal22SystemSnapshotMinidump13OSVersionFullEv, symObjAddr: 0x3D8, symBinAddr: 0x1000386B0, symSize: 0xA4 }
  - { offsetInCU: 0x66E7, offset: 0x40E5D8, size: 0x8, addend: 0x0, symName: __ZNK8crashpad8internal22SystemSnapshotMinidump18MachineDescriptionEv, symObjAddr: 0x47C, symBinAddr: 0x100038754, symSize: 0xC }
  - { offsetInCU: 0x671D, offset: 0x40E60E, size: 0x8, addend: 0x0, symName: __ZNK8crashpad8internal22SystemSnapshotMinidump18MachineDescriptionEv, symObjAddr: 0x47C, symBinAddr: 0x100038754, symSize: 0xC }
  - { offsetInCU: 0x6745, offset: 0x40E636, size: 0x8, addend: 0x0, symName: __ZNK8crashpad8internal22SystemSnapshotMinidump18MachineDescriptionEv, symObjAddr: 0x47C, symBinAddr: 0x100038754, symSize: 0xC }
  - { offsetInCU: 0x6762, offset: 0x40E653, size: 0x8, addend: 0x0, symName: __ZNK8crashpad8internal22SystemSnapshotMinidump18MachineDescriptionEv, symObjAddr: 0x47C, symBinAddr: 0x100038754, symSize: 0xC }
  - { offsetInCU: 0x6780, offset: 0x40E671, size: 0x8, addend: 0x0, symName: __ZNK8crashpad8internal22SystemSnapshotMinidump18MachineDescriptionEv, symObjAddr: 0x47C, symBinAddr: 0x100038754, symSize: 0xC }
  - { offsetInCU: 0x679E, offset: 0x40E68F, size: 0x8, addend: 0x0, symName: __ZNK8crashpad8internal22SystemSnapshotMinidump9NXEnabledEv, symObjAddr: 0x488, symBinAddr: 0x100038760, symSize: 0x8 }
  - { offsetInCU: 0x67C3, offset: 0x40E6B4, size: 0x8, addend: 0x0, symName: __ZNK8crashpad8internal22SystemSnapshotMinidump8TimeZoneEPNS_14SystemSnapshot24DaylightSavingTimeStatusEPiS5_PNSt3__112basic_stringIcNS6_11char_traitsIcEENS6_9allocatorIcEEEESD_, symObjAddr: 0x490, symBinAddr: 0x100038768, symSize: 0x4 }
  - { offsetInCU: 0x681F, offset: 0x40E710, size: 0x8, addend: 0x0, symName: __ZNK8crashpad8internal22SystemSnapshotMinidump11AddressMaskEv, symObjAddr: 0x494, symBinAddr: 0x10003876C, symSize: 0x8 }
  - { offsetInCU: 0x26, offset: 0x40E7C3, size: 0x8, addend: 0x0, symName: __ZN8crashpad8internal22ThreadSnapshotMinidumpC2Ev, symObjAddr: 0x0, symBinAddr: 0x100038774, symSize: 0xA0 }
  - { offsetInCU: 0x80A4, offset: 0x416841, size: 0x8, addend: 0x0, symName: __ZN8crashpad8internal22ThreadSnapshotMinidumpC2Ev, symObjAddr: 0x0, symBinAddr: 0x100038774, symSize: 0xA0 }
  - { offsetInCU: 0x83A7, offset: 0x416B44, size: 0x8, addend: 0x0, symName: __ZN8crashpad8internal22ThreadSnapshotMinidumpC1Ev, symObjAddr: 0xA0, symBinAddr: 0x100038814, symSize: 0xA0 }
  - { offsetInCU: 0x86AB, offset: 0x416E48, size: 0x8, addend: 0x0, symName: __ZN8crashpad8internal22ThreadSnapshotMinidumpD2Ev, symObjAddr: 0x140, symBinAddr: 0x1000388B4, symSize: 0x60 }
  - { offsetInCU: 0x89A9, offset: 0x417146, size: 0x8, addend: 0x0, symName: __ZN8crashpad8internal22ThreadSnapshotMinidumpD1Ev, symObjAddr: 0x1A0, symBinAddr: 0x100038914, symSize: 0x60 }
  - { offsetInCU: 0x8CBF, offset: 0x41745C, size: 0x8, addend: 0x0, symName: __ZN8crashpad8internal22ThreadSnapshotMinidumpD0Ev, symObjAddr: 0x200, symBinAddr: 0x100038974, symSize: 0x60 }
  - { offsetInCU: 0x9331, offset: 0x417ACE, size: 0x8, addend: 0x0, symName: __ZN8crashpad8internal22ThreadSnapshotMinidump10InitializeEPNS_19FileReaderInterfaceEjNS_15CPUArchitectureERKNSt3__13mapIjNS5_12basic_stringIcNS5_11char_traitsIcEENS5_9allocatorIcEEEENS5_4lessIjEENSA_INS5_4pairIKjSC_EEEEEE, symObjAddr: 0x260, symBinAddr: 0x1000389D4, symSize: 0x1A4 }
  - { offsetInCU: 0x9A42, offset: 0x4181DF, size: 0x8, addend: 0x0, symName: __ZNK8crashpad8internal22ThreadSnapshotMinidump8ThreadIDEv, symObjAddr: 0x404, symBinAddr: 0x100038B78, symSize: 0x8 }
  - { offsetInCU: 0x9C4C, offset: 0x4183E9, size: 0x8, addend: 0x0, symName: __ZNK8crashpad8internal22ThreadSnapshotMinidump10ThreadNameEv, symObjAddr: 0x40C, symBinAddr: 0x100038B80, symSize: 0xA4 }
  - { offsetInCU: 0xA029, offset: 0x4187C6, size: 0x8, addend: 0x0, symName: __ZNK8crashpad8internal22ThreadSnapshotMinidump12SuspendCountEv, symObjAddr: 0x4B0, symBinAddr: 0x100038C24, symSize: 0x8 }
  - { offsetInCU: 0xA05F, offset: 0x4187FC, size: 0x8, addend: 0x0, symName: __ZNK8crashpad8internal22ThreadSnapshotMinidump12SuspendCountEv, symObjAddr: 0x4B0, symBinAddr: 0x100038C24, symSize: 0x8 }
  - { offsetInCU: 0xA088, offset: 0x418825, size: 0x8, addend: 0x0, symName: __ZNK8crashpad8internal22ThreadSnapshotMinidump25ThreadSpecificDataAddressEv, symObjAddr: 0x4B8, symBinAddr: 0x100038C2C, symSize: 0x8 }
  - { offsetInCU: 0xA0B1, offset: 0x41884E, size: 0x8, addend: 0x0, symName: __ZNK8crashpad8internal22ThreadSnapshotMinidump8PriorityEv, symObjAddr: 0x4C0, symBinAddr: 0x100038C34, symSize: 0x8 }
  - { offsetInCU: 0xA0DA, offset: 0x418877, size: 0x8, addend: 0x0, symName: __ZNK8crashpad8internal22ThreadSnapshotMinidump7ContextEv, symObjAddr: 0x4C8, symBinAddr: 0x100038C3C, symSize: 0x8 }
  - { offsetInCU: 0xA103, offset: 0x4188A0, size: 0x8, addend: 0x0, symName: __ZNK8crashpad8internal22ThreadSnapshotMinidump5StackEv, symObjAddr: 0x4D0, symBinAddr: 0x100038C44, symSize: 0x8 }
  - { offsetInCU: 0xA165, offset: 0x418902, size: 0x8, addend: 0x0, symName: __ZNK8crashpad8internal22ThreadSnapshotMinidump11ExtraMemoryEv, symObjAddr: 0x4D8, symBinAddr: 0x100038C4C, symSize: 0xC }
  - { offsetInCU: 0xA18D, offset: 0x41892A, size: 0x8, addend: 0x0, symName: __ZNK8crashpad8internal22ThreadSnapshotMinidump11ExtraMemoryEv, symObjAddr: 0x4D8, symBinAddr: 0x100038C4C, symSize: 0xC }
  - { offsetInCU: 0xA1AA, offset: 0x418947, size: 0x8, addend: 0x0, symName: __ZNK8crashpad8internal22ThreadSnapshotMinidump11ExtraMemoryEv, symObjAddr: 0x4D8, symBinAddr: 0x100038C4C, symSize: 0xC }
  - { offsetInCU: 0x26, offset: 0x4189F7, size: 0x8, addend: 0x0, symName: __ZN8crashpad22UnloadedModuleSnapshotC2EyyjjRKNSt3__112basic_stringIcNS1_11char_traitsIcEENS1_9allocatorIcEEEE, symObjAddr: 0x0, symBinAddr: 0x100038C58, symSize: 0xC0 }
  - { offsetInCU: 0x4FB8, offset: 0x41D989, size: 0x8, addend: 0x0, symName: __ZN8crashpad22UnloadedModuleSnapshotC2EyyjjRKNSt3__112basic_stringIcNS1_11char_traitsIcEENS1_9allocatorIcEEEE, symObjAddr: 0x0, symBinAddr: 0x100038C58, symSize: 0xC0 }
  - { offsetInCU: 0x53E0, offset: 0x41DDB1, size: 0x8, addend: 0x0, symName: __ZN8crashpad22UnloadedModuleSnapshotC1EyyjjRKNSt3__112basic_stringIcNS1_11char_traitsIcEENS1_9allocatorIcEEEE, symObjAddr: 0xC0, symBinAddr: 0x100038D18, symSize: 0xC0 }
  - { offsetInCU: 0x546E, offset: 0x41DE3F, size: 0x8, addend: 0x0, symName: __ZN8crashpad22UnloadedModuleSnapshotC1EyyjjRKNSt3__112basic_stringIcNS1_11char_traitsIcEENS1_9allocatorIcEEEE, symObjAddr: 0xC0, symBinAddr: 0x100038D18, symSize: 0xC0 }
  - { offsetInCU: 0x5907, offset: 0x41E2D8, size: 0x8, addend: 0x0, symName: __ZN8crashpad22UnloadedModuleSnapshotD2Ev, symObjAddr: 0x180, symBinAddr: 0x100038DD8, symSize: 0x40 }
  - { offsetInCU: 0x59BE, offset: 0x41E38F, size: 0x8, addend: 0x0, symName: __ZN8crashpad22UnloadedModuleSnapshotD2Ev, symObjAddr: 0x180, symBinAddr: 0x100038DD8, symSize: 0x40 }
  - { offsetInCU: 0x5B1E, offset: 0x41E4EF, size: 0x8, addend: 0x0, symName: __ZN8crashpad22UnloadedModuleSnapshotD1Ev, symObjAddr: 0x1C0, symBinAddr: 0x100038E18, symSize: 0x40 }
  - { offsetInCU: 0x1BE, offset: 0x41E875, size: 0x8, addend: 0x0, symName: __ZN8crashpad8internal8TimeZoneERK7timevalPNS_14SystemSnapshot24DaylightSavingTimeStatusEPiS7_PNSt3__112basic_stringIcNS8_11char_traitsIcEENS8_9allocatorIcEEEESF_, symObjAddr: 0x0, symBinAddr: 0x100038E58, symSize: 0x2FC }
  - { offsetInCU: 0x1E4, offset: 0x41E89B, size: 0x8, addend: 0x0, symName: __ZZN8crashpad8internal8TimeZoneERK7timevalPNS_14SystemSnapshot24DaylightSavingTimeStatusEPiS7_PNSt3__112basic_stringIcNS8_11char_traitsIcEENS8_9allocatorIcEEEESF_E12kMonthDeltas, symObjAddr: 0x9D0, symBinAddr: 0x10007C620, symSize: 0x0 }
  - { offsetInCU: 0x5249, offset: 0x42BC63, size: 0x8, addend: 0x0, symName: __ZN8crashpad8internal25InitializeCPUContextARM64EPNS_15CPUContextARM64EiPKjjPK27__darwin_arm_thread_state64PK25__darwin_arm_neon_state64PK26__darwin_arm_debug_state64, symObjAddr: 0x0, symBinAddr: 0x100039154, symSize: 0x314 }
  - { offsetInCU: 0xB823, offset: 0x439C49, size: 0x8, addend: 0x0, symName: __ZN8crashpad8internal20ExceptionSnapshotMacC2Ev, symObjAddr: 0x0, symBinAddr: 0x100039468, symSize: 0x34 }
  - { offsetInCU: 0xB867, offset: 0x439C8D, size: 0x8, addend: 0x0, symName: __ZN8crashpad8internal20ExceptionSnapshotMacC1Ev, symObjAddr: 0x34, symBinAddr: 0x10003949C, symSize: 0x34 }
  - { offsetInCU: 0xB9B1, offset: 0x439DD7, size: 0x8, addend: 0x0, symName: __ZN8crashpad8internal20ExceptionSnapshotMacD2Ev, symObjAddr: 0x68, symBinAddr: 0x1000394D0, symSize: 0x30 }
  - { offsetInCU: 0xBB45, offset: 0x439F6B, size: 0x8, addend: 0x0, symName: __ZN8crashpad8internal20ExceptionSnapshotMacD1Ev, symObjAddr: 0x98, symBinAddr: 0x100039500, symSize: 0x30 }
  - { offsetInCU: 0xBCF7, offset: 0x43A11D, size: 0x8, addend: 0x0, symName: __ZN8crashpad8internal20ExceptionSnapshotMacD0Ev, symObjAddr: 0xC8, symBinAddr: 0x100039530, symSize: 0x30 }
  - { offsetInCU: 0xC3BE, offset: 0x43A7E4, size: 0x8, addend: 0x0, symName: __ZN8crashpad8internal20ExceptionSnapshotMac10InitializeEPNS_16ProcessReaderMacEijiPKxjiPKjj, symObjAddr: 0xF8, symBinAddr: 0x100039560, symSize: 0x83C }
  - { offsetInCU: 0xE0CD, offset: 0x43C4F3, size: 0x8, addend: 0x0, symName: __ZNK8crashpad8internal20ExceptionSnapshotMac7ContextEv, symObjAddr: 0x934, symBinAddr: 0x100039D9C, symSize: 0x8 }
  - { offsetInCU: 0xE0F6, offset: 0x43C51C, size: 0x8, addend: 0x0, symName: __ZNK8crashpad8internal20ExceptionSnapshotMac8ThreadIDEv, symObjAddr: 0x93C, symBinAddr: 0x100039DA4, symSize: 0x8 }
  - { offsetInCU: 0xE11F, offset: 0x43C545, size: 0x8, addend: 0x0, symName: __ZNK8crashpad8internal20ExceptionSnapshotMac9ExceptionEv, symObjAddr: 0x944, symBinAddr: 0x100039DAC, symSize: 0x8 }
  - { offsetInCU: 0xE148, offset: 0x43C56E, size: 0x8, addend: 0x0, symName: __ZNK8crashpad8internal20ExceptionSnapshotMac13ExceptionInfoEv, symObjAddr: 0x94C, symBinAddr: 0x100039DB4, symSize: 0x8 }
  - { offsetInCU: 0xE171, offset: 0x43C597, size: 0x8, addend: 0x0, symName: __ZNK8crashpad8internal20ExceptionSnapshotMac16ExceptionAddressEv, symObjAddr: 0x954, symBinAddr: 0x100039DBC, symSize: 0x8 }
  - { offsetInCU: 0xE19A, offset: 0x43C5C0, size: 0x8, addend: 0x0, symName: __ZNK8crashpad8internal20ExceptionSnapshotMac5CodesEv, symObjAddr: 0x95C, symBinAddr: 0x100039DC4, symSize: 0x8 }
  - { offsetInCU: 0xE1FC, offset: 0x43C622, size: 0x8, addend: 0x0, symName: __ZNK8crashpad8internal20ExceptionSnapshotMac11ExtraMemoryEv, symObjAddr: 0x964, symBinAddr: 0x100039DCC, symSize: 0xC }
  - { offsetInCU: 0xE224, offset: 0x43C64A, size: 0x8, addend: 0x0, symName: __ZNK8crashpad8internal20ExceptionSnapshotMac11ExtraMemoryEv, symObjAddr: 0x964, symBinAddr: 0x100039DCC, symSize: 0xC }
  - { offsetInCU: 0xE242, offset: 0x43C668, size: 0x8, addend: 0x0, symName: __ZNK8crashpad8internal20ExceptionSnapshotMac11ExtraMemoryEv, symObjAddr: 0x964, symBinAddr: 0x100039DCC, symSize: 0xC }
  - { offsetInCU: 0x15E73, offset: 0x45296C, size: 0x8, addend: 0x0, symName: __ZN8crashpad27MachOImageAnnotationsReaderC2EPNS_16ProcessReaderMacEPKNS_16MachOImageReaderERKNSt3__112basic_stringIcNS6_11char_traitsIcEENS6_9allocatorIcEEEE, symObjAddr: 0x0, symBinAddr: 0x100039DD8, symSize: 0xAC }
  - { offsetInCU: 0x16286, offset: 0x452D7F, size: 0x8, addend: 0x0, symName: __ZN8crashpad27MachOImageAnnotationsReaderC1EPNS_16ProcessReaderMacEPKNS_16MachOImageReaderERKNSt3__112basic_stringIcNS6_11char_traitsIcEENS6_9allocatorIcEEEE, symObjAddr: 0xAC, symBinAddr: 0x100039E84, symSize: 0xAC }
  - { offsetInCU: 0x162FE, offset: 0x452DF7, size: 0x8, addend: 0x0, symName: __ZN8crashpad27MachOImageAnnotationsReaderC1EPNS_16ProcessReaderMacEPKNS_16MachOImageReaderERKNSt3__112basic_stringIcNS6_11char_traitsIcEENS6_9allocatorIcEEEE, symObjAddr: 0xAC, symBinAddr: 0x100039E84, symSize: 0xAC }
  - { offsetInCU: 0x16763, offset: 0x45325C, size: 0x8, addend: 0x0, symName: __ZNK8crashpad27MachOImageAnnotationsReader6VectorEv, symObjAddr: 0x158, symBinAddr: 0x100039F30, symSize: 0x50 }
  - { offsetInCU: 0x167AA, offset: 0x4532A3, size: 0x8, addend: 0x0, symName: __ZNK8crashpad27MachOImageAnnotationsReader6VectorEv, symObjAddr: 0x158, symBinAddr: 0x100039F30, symSize: 0x50 }
  - { offsetInCU: 0x1686D, offset: 0x453366, size: 0x8, addend: 0x0, symName: __ZNK8crashpad27MachOImageAnnotationsReader34ReadCrashReporterClientAnnotationsEPNSt3__16vectorINS1_12basic_stringIcNS1_11char_traitsIcEENS1_9allocatorIcEEEENS6_IS8_EEEE, symObjAddr: 0x1A8, symBinAddr: 0x100039F80, symSize: 0x61C }
  - { offsetInCU: 0x18AFC, offset: 0x4555F5, size: 0x8, addend: 0x0, symName: __ZNK8crashpad27MachOImageAnnotationsReader29ReadDyldErrorStringAnnotationEPNSt3__16vectorINS1_12basic_stringIcNS1_11char_traitsIcEENS1_9allocatorIcEEEENS6_IS8_EEEE, symObjAddr: 0x7C4, symBinAddr: 0x10003A59C, symSize: 0x24C }
  - { offsetInCU: 0x1A7F6, offset: 0x4572EF, size: 0x8, addend: 0x0, symName: __ZNK8crashpad27MachOImageAnnotationsReader9SimpleMapEv, symObjAddr: 0xA84, symBinAddr: 0x10003A7E8, symSize: 0x48 }
  - { offsetInCU: 0x1A9D6, offset: 0x4574CF, size: 0x8, addend: 0x0, symName: __ZNK8crashpad27MachOImageAnnotationsReader29ReadCrashpadSimpleAnnotationsEPNSt3__13mapINS1_12basic_stringIcNS1_11char_traitsIcEENS1_9allocatorIcEEEES8_NS1_4lessIS8_EENS6_INS1_4pairIKS8_S8_EEEEEE, symObjAddr: 0xACC, symBinAddr: 0x10003A830, symSize: 0x3E8 }
  - { offsetInCU: 0x1D2E2, offset: 0x459DDB, size: 0x8, addend: 0x0, symName: __ZNK8crashpad27MachOImageAnnotationsReader15AnnotationsListEv, symObjAddr: 0xEB4, symBinAddr: 0x10003AC18, symSize: 0x40 }
  - { offsetInCU: 0x1D38A, offset: 0x459E83, size: 0x8, addend: 0x0, symName: __ZNK8crashpad27MachOImageAnnotationsReader27ReadCrashpadAnnotationsListEPNSt3__16vectorINS_18AnnotationSnapshotENS1_9allocatorIS3_EEEE, symObjAddr: 0xEF4, symBinAddr: 0x10003AC58, symSize: 0x51C }
  - { offsetInCU: 0x1FE5E, offset: 0x45C957, size: 0x8, addend: 0x0, symName: __ZN8crashpad18AnnotationSnapshotC2ERKS0_.cold.1, symObjAddr: 0x235C, symBinAddr: 0x100065FFC, symSize: 0x14 }
  - { offsetInCU: 0x1FE79, offset: 0x45C972, size: 0x8, addend: 0x0, symName: __ZN8crashpad18AnnotationSnapshotC2ERKS0_.cold.1, symObjAddr: 0x235C, symBinAddr: 0x100065FFC, symSize: 0x14 }
  - { offsetInCU: 0x1FE8E, offset: 0x45C987, size: 0x8, addend: 0x0, symName: __ZN8crashpad18AnnotationSnapshotC2ERKS0_.cold.1, symObjAddr: 0x235C, symBinAddr: 0x100065FFC, symSize: 0x14 }
  - { offsetInCU: 0x1FEA5, offset: 0x45C99E, size: 0x8, addend: 0x0, symName: __ZN8crashpad18AnnotationSnapshotC2ERKS0_.cold.1, symObjAddr: 0x235C, symBinAddr: 0x100065FFC, symSize: 0x14 }
  - { offsetInCU: 0xDFE2, offset: 0x46B163, size: 0x8, addend: 0x0, symName: __ZNSt3__1eqB8ue170006IcNS_11char_traitsIcEENS_9allocatorIcEEEEbRKNS_12basic_stringIT_T0_T1_EEPKS6_, symObjAddr: 0x1DF8, symBinAddr: 0x10003CF6C, symSize: 0x80 }
  - { offsetInCU: 0x1351B, offset: 0x47069C, size: 0x8, addend: 0x0, symName: __ZN8crashpad16MachOImageReaderC2Ev, symObjAddr: 0x0, symBinAddr: 0x10003B174, symSize: 0x38 }
  - { offsetInCU: 0x136CE, offset: 0x47084F, size: 0x8, addend: 0x0, symName: __ZN8crashpad16MachOImageReaderC1Ev, symObjAddr: 0x38, symBinAddr: 0x10003B1AC, symSize: 0x38 }
  - { offsetInCU: 0x136FB, offset: 0x47087C, size: 0x8, addend: 0x0, symName: __ZN8crashpad16MachOImageReaderC1Ev, symObjAddr: 0x38, symBinAddr: 0x10003B1AC, symSize: 0x38 }
  - { offsetInCU: 0x13DF1, offset: 0x470F72, size: 0x8, addend: 0x0, symName: __ZN8crashpad16MachOImageReaderD2Ev, symObjAddr: 0x70, symBinAddr: 0x10003B1E4, symSize: 0x130 }
  - { offsetInCU: 0x14728, offset: 0x4718A9, size: 0x8, addend: 0x0, symName: __ZNSt3__16__treeINS_12__value_typeINS_12basic_stringIcNS_11char_traitsIcEENS_9allocatorIcEEEEmEENS_19__map_value_compareIS7_S8_NS_4lessIS7_EELb1EEENS5_IS8_EEE7destroyEPNS_11__tree_nodeIS8_PvEE, symObjAddr: 0x2C0C, symBinAddr: 0x10003D9CC, symSize: 0x60 }
  - { offsetInCU: 0x149E9, offset: 0x471B6A, size: 0x8, addend: 0x0, symName: __ZN8crashpad16MachOImageReaderD1Ev, symObjAddr: 0x1A0, symBinAddr: 0x10003B314, symSize: 0x4 }
  - { offsetInCU: 0x14A17, offset: 0x471B98, size: 0x8, addend: 0x0, symName: __ZN8crashpad16MachOImageReaderD1Ev, symObjAddr: 0x1A0, symBinAddr: 0x10003B314, symSize: 0x4 }
  - { offsetInCU: 0x15188, offset: 0x472309, size: 0x8, addend: 0x0, symName: __ZN8crashpad16MachOImageReader10InitializeEPNS_16ProcessReaderMacEyRKNSt3__112basic_stringIcNS3_11char_traitsIcEENS3_9allocatorIcEEEE, symObjAddr: 0x1A4, symBinAddr: 0x10003B318, symSize: 0xCE0 }
  - { offsetInCU: 0x17D60, offset: 0x474EE1, size: 0x8, addend: 0x0, symName: __ZN8crashpad16MachOImageReader18ReadSegmentCommandEyRKNSt3__112basic_stringIcNS1_11char_traitsIcEENS1_9allocatorIcEEEE, symObjAddr: 0xE84, symBinAddr: 0x10003BFF8, symSize: 0x3F4 }
  - { offsetInCU: 0x19342, offset: 0x4764C3, size: 0x8, addend: 0x0, symName: __ZNSt3__16vectorINS_10unique_ptrIN8crashpad23MachOImageSegmentReaderENS_14default_deleteIS3_EEEENS_9allocatorIS6_EEE21__push_back_slow_pathIS6_EEvOT_, symObjAddr: 0x27DC, symBinAddr: 0x10003D894, symSize: 0x124 }
  - { offsetInCU: 0x199F8, offset: 0x476B79, size: 0x8, addend: 0x0, symName: __ZNKSt3__16vectorINS_10unique_ptrIN8crashpad23MachOImageSegmentReaderENS_14default_deleteIS3_EEEENS_9allocatorIS6_EEE20__throw_length_errorB8ue170006Ev, symObjAddr: 0x2900, symBinAddr: 0x10003D9B8, symSize: 0x14 }
  - { offsetInCU: 0x19A0C, offset: 0x476B8D, size: 0x8, addend: 0x0, symName: __ZNSt3__16__treeINS_12__value_typeINS_12basic_stringIcNS_11char_traitsIcEENS_9allocatorIcEEEEmEENS_19__map_value_compareIS7_S8_NS_4lessIS7_EELb1EEENS5_IS8_EEE25__emplace_unique_key_argsIS7_JNS_4pairIS7_mEEEEENSG_INS_15__tree_iteratorIS8_PNS_11__tree_nodeIS8_PvEElEEbEERKT_DpOT0_, symObjAddr: 0x2D84, symBinAddr: 0x10003DB44, symSize: 0x160 }
  - { offsetInCU: 0x19FC1, offset: 0x477142, size: 0x8, addend: 0x0, symName: __ZNSt3__110unique_ptrIN8crashpad23MachOImageSegmentReaderENS_14default_deleteIS2_EEED1B8ue170006Ev, symObjAddr: 0x22B4, symBinAddr: 0x10003D428, symSize: 0x34 }
  - { offsetInCU: 0x1A075, offset: 0x4771F6, size: 0x8, addend: 0x0, symName: __ZN8crashpad16MachOImageReader17ReadSymTabCommandEyRKNSt3__112basic_stringIcNS1_11char_traitsIcEENS1_9allocatorIcEEEE, symObjAddr: 0x1278, symBinAddr: 0x10003C3EC, symSize: 0x64 }
  - { offsetInCU: 0x1A14F, offset: 0x4772D0, size: 0x8, addend: 0x0, symName: __ZN8crashpad16MachOImageReader15ReadLoadCommandINS_13process_types14symtab_commandEEEbyRKNSt3__112basic_stringIcNS4_11char_traitsIcEENS4_9allocatorIcEEEEjPT_, symObjAddr: 0x22E8, symBinAddr: 0x10003D45C, symSize: 0xB4 }
  - { offsetInCU: 0x1A309, offset: 0x47748A, size: 0x8, addend: 0x0, symName: __ZN8crashpad16MachOImageReader19ReadDySymTabCommandEyRKNSt3__112basic_stringIcNS1_11char_traitsIcEENS1_9allocatorIcEEEE, symObjAddr: 0x12DC, symBinAddr: 0x10003C450, symSize: 0x70 }
  - { offsetInCU: 0x1A3E3, offset: 0x477564, size: 0x8, addend: 0x0, symName: __ZN8crashpad16MachOImageReader15ReadLoadCommandINS_13process_types16dysymtab_commandEEEbyRKNSt3__112basic_stringIcNS4_11char_traitsIcEENS4_9allocatorIcEEEEjPT_, symObjAddr: 0x239C, symBinAddr: 0x10003D510, symSize: 0xB4 }
  - { offsetInCU: 0x1A598, offset: 0x477719, size: 0x8, addend: 0x0, symName: __ZN8crashpad16MachOImageReader18ReadIdDylibCommandEyRKNSt3__112basic_stringIcNS1_11char_traitsIcEENS1_9allocatorIcEEEE, symObjAddr: 0x134C, symBinAddr: 0x10003C4C0, symSize: 0x150 }
  - { offsetInCU: 0x1AA4D, offset: 0x477BCE, size: 0x8, addend: 0x0, symName: __ZN8crashpad16MachOImageReader15ReadLoadCommandINS_13process_types13dylib_commandEEEbyRKNSt3__112basic_stringIcNS4_11char_traitsIcEENS4_9allocatorIcEEEEjPT_, symObjAddr: 0x2450, symBinAddr: 0x10003D5C4, symSize: 0xB4 }
  - { offsetInCU: 0x1AC43, offset: 0x477DC4, size: 0x8, addend: 0x0, symName: __ZN8crashpad16MachOImageReader19ReadDylinkerCommandEyRKNSt3__112basic_stringIcNS1_11char_traitsIcEENS1_9allocatorIcEEEE, symObjAddr: 0x149C, symBinAddr: 0x10003C610, symSize: 0x1BC }
  - { offsetInCU: 0x1B228, offset: 0x4783A9, size: 0x8, addend: 0x0, symName: __ZN8crashpad16MachOImageReader15ReadLoadCommandINS_13process_types16dylinker_commandEEEbyRKNSt3__112basic_stringIcNS4_11char_traitsIcEENS4_9allocatorIcEEEEjPT_, symObjAddr: 0x2504, symBinAddr: 0x10003D678, symSize: 0xB4 }
  - { offsetInCU: 0x1B3C7, offset: 0x478548, size: 0x8, addend: 0x0, symName: __ZN8crashpad16MachOImageReader15ReadUUIDCommandEyRKNSt3__112basic_stringIcNS1_11char_traitsIcEENS1_9allocatorIcEEEE, symObjAddr: 0x1658, symBinAddr: 0x10003C7CC, symSize: 0x80 }
  - { offsetInCU: 0x1B472, offset: 0x4785F3, size: 0x8, addend: 0x0, symName: __ZN8crashpad16MachOImageReader15ReadLoadCommandINS_13process_types12uuid_commandEEEbyRKNSt3__112basic_stringIcNS4_11char_traitsIcEENS4_9allocatorIcEEEEjPT_, symObjAddr: 0x25B8, symBinAddr: 0x10003D72C, symSize: 0xB4 }
  - { offsetInCU: 0x1B611, offset: 0x478792, size: 0x8, addend: 0x0, symName: __ZN8crashpad16MachOImageReader24ReadSourceVersionCommandEyRKNSt3__112basic_stringIcNS1_11char_traitsIcEENS1_9allocatorIcEEEE, symObjAddr: 0x16D8, symBinAddr: 0x10003C84C, symSize: 0x3C }
  - { offsetInCU: 0x1B6B1, offset: 0x478832, size: 0x8, addend: 0x0, symName: __ZN8crashpad16MachOImageReader15ReadLoadCommandINS_13process_types22source_version_commandEEEbyRKNSt3__112basic_stringIcNS4_11char_traitsIcEENS4_9allocatorIcEEEEjPT_, symObjAddr: 0x266C, symBinAddr: 0x10003D7E0, symSize: 0xB4 }
  - { offsetInCU: 0x1B850, offset: 0x4789D1, size: 0x8, addend: 0x0, symName: __ZN8crashpad16MachOImageReader21ReadUnexpectedCommandEyRKNSt3__112basic_stringIcNS1_11char_traitsIcEENS1_9allocatorIcEEEE, symObjAddr: 0x1714, symBinAddr: 0x10003C888, symSize: 0xA0 }
  - { offsetInCU: 0x1BA14, offset: 0x478B95, size: 0x8, addend: 0x0, symName: __ZNK8crashpad16MachOImageReader16GetSegmentByNameERKNSt3__112basic_stringIcNS1_11char_traitsIcEENS1_9allocatorIcEEEE, symObjAddr: 0x17B4, symBinAddr: 0x10003C928, symSize: 0x4C }
  - { offsetInCU: 0x1BB05, offset: 0x478C86, size: 0x8, addend: 0x0, symName: __ZNKSt3__16__treeINS_12__value_typeINS_12basic_stringIcNS_11char_traitsIcEENS_9allocatorIcEEEEmEENS_19__map_value_compareIS7_S8_NS_4lessIS7_EELb1EEENS5_IS8_EEE4findIS7_EENS_21__tree_const_iteratorIS8_PNS_11__tree_nodeIS8_PvEElEERKT_, symObjAddr: 0x2C6C, symBinAddr: 0x10003DA2C, symSize: 0x118 }
  - { offsetInCU: 0x1BE8D, offset: 0x47900E, size: 0x8, addend: 0x0, symName: __ZNK8crashpad16MachOImageReader16GetSectionByNameERKNSt3__112basic_stringIcNS1_11char_traitsIcEENS1_9allocatorIcEEEES9_Py, symObjAddr: 0x1800, symBinAddr: 0x10003C974, symSize: 0x6C }
  - { offsetInCU: 0x1C008, offset: 0x479189, size: 0x8, addend: 0x0, symName: __ZNK8crashpad16MachOImageReader17GetSectionAtIndexEmPPKNS_23MachOImageSegmentReaderEPy, symObjAddr: 0x186C, symBinAddr: 0x10003C9E0, symSize: 0x154 }
  - { offsetInCU: 0x1C32F, offset: 0x4794B0, size: 0x8, addend: 0x0, symName: __ZNK8crashpad16MachOImageReader27LookUpExternalDefinedSymbolERKNSt3__112basic_stringIcNS1_11char_traitsIcEENS1_9allocatorIcEEEEPy, symObjAddr: 0x19C0, symBinAddr: 0x10003CB34, symSize: 0x288 }
  - { offsetInCU: 0x1CD5E, offset: 0x479EDF, size: 0x8, addend: 0x0, symName: __ZNK8crashpad16MachOImageReader21InitializeSymbolTableEv, symObjAddr: 0x1C48, symBinAddr: 0x10003CDBC, symSize: 0x1B0 }
  - { offsetInCU: 0x1D5BA, offset: 0x47A73B, size: 0x8, addend: 0x0, symName: __ZNK8crashpad16MachOImageReader12DylibVersionEv, symObjAddr: 0x1E78, symBinAddr: 0x10003CFEC, symSize: 0x18 }
  - { offsetInCU: 0x1D5E6, offset: 0x47A767, size: 0x8, addend: 0x0, symName: __ZNK8crashpad16MachOImageReader12DylibVersionEv, symObjAddr: 0x1E78, symBinAddr: 0x10003CFEC, symSize: 0x18 }
  - { offsetInCU: 0x1D606, offset: 0x47A787, size: 0x8, addend: 0x0, symName: __ZNK8crashpad16MachOImageReader4UUIDEPNS_4UUIDE, symObjAddr: 0x1E90, symBinAddr: 0x10003D004, symSize: 0xC }
  - { offsetInCU: 0x1D6B6, offset: 0x47A837, size: 0x8, addend: 0x0, symName: __ZNK8crashpad16MachOImageReader15GetCrashpadInfoEPNS_13process_types12CrashpadInfoE, symObjAddr: 0x1E9C, symBinAddr: 0x10003D010, symSize: 0x418 }
  - { offsetInCU: 0x1ED54, offset: 0x47BED5, size: 0x8, addend: 0x0, symName: __ZNKSt3__16vectorINS_10unique_ptrIN8crashpad23MachOImageSegmentReaderENS_14default_deleteIS3_EEEENS_9allocatorIS6_EEE20__throw_length_errorB8ue170006Ev, symObjAddr: 0x2900, symBinAddr: 0x10003D9B8, symSize: 0x14 }
  - { offsetInCU: 0xB8E0, offset: 0x487EDB, size: 0x8, addend: 0x0, symName: __ZN8crashpad26IsMalformedCLKernelsModuleEjRKNSt3__112basic_stringIcNS0_11char_traitsIcEENS0_9allocatorIcEEEE, symObjAddr: 0x0, symBinAddr: 0x10003DCA4, symSize: 0x8 }
  - { offsetInCU: 0xE691, offset: 0x48AC8C, size: 0x8, addend: 0x0, symName: __ZN8crashpad23MachOImageSegmentReaderC2Ev, symObjAddr: 0x8, symBinAddr: 0x10003DCAC, symSize: 0x24 }
  - { offsetInCU: 0xE7CF, offset: 0x48ADCA, size: 0x8, addend: 0x0, symName: __ZN8crashpad23MachOImageSegmentReaderC1Ev, symObjAddr: 0x2C, symBinAddr: 0x10003DCD0, symSize: 0x24 }
  - { offsetInCU: 0xE7FC, offset: 0x48ADF7, size: 0x8, addend: 0x0, symName: __ZN8crashpad23MachOImageSegmentReaderC1Ev, symObjAddr: 0x2C, symBinAddr: 0x10003DCD0, symSize: 0x24 }
  - { offsetInCU: 0xEA95, offset: 0x48B090, size: 0x8, addend: 0x0, symName: __ZN8crashpad23MachOImageSegmentReaderD2Ev, symObjAddr: 0x50, symBinAddr: 0x10003DCF4, symSize: 0x3C }
  - { offsetInCU: 0xEE95, offset: 0x48B490, size: 0x8, addend: 0x0, symName: __ZN8crashpad23MachOImageSegmentReaderD1Ev, symObjAddr: 0x8C, symBinAddr: 0x10003DD30, symSize: 0x3C }
  - { offsetInCU: 0xF879, offset: 0x48BE74, size: 0x8, addend: 0x0, symName: __ZN8crashpad23MachOImageSegmentReader10InitializeEPNS_16ProcessReaderMacEyRKNSt3__112basic_stringIcNS3_11char_traitsIcEENS3_9allocatorIcEEEESB_j, symObjAddr: 0xC8, symBinAddr: 0x10003DD6C, symSize: 0xBA4 }
  - { offsetInCU: 0x130AE, offset: 0x48F6A9, size: 0x8, addend: 0x0, symName: __ZNSt3__16vectorIN8crashpad13process_types7sectionENS_9allocatorIS3_EEE8__appendEm, symObjAddr: 0x1310, symBinAddr: 0x10003EFA8, symSize: 0x1EC }
  - { offsetInCU: 0x135E3, offset: 0x48FBDE, size: 0x8, addend: 0x0, symName: __ZNKSt3__16vectorIN8crashpad13process_types7sectionENS_9allocatorIS3_EEE20__throw_length_errorB8ue170006Ev, symObjAddr: 0x14FC, symBinAddr: 0x10003F194, symSize: 0x14 }
  - { offsetInCU: 0x135EE, offset: 0x48FBE9, size: 0x8, addend: 0x0, symName: __ZN8crashpad23MachOImageSegmentReader27SegmentAndSectionNameStringEPKcS2_, symObjAddr: 0xE50, symBinAddr: 0x10003EAF4, symSize: 0x1D8 }
  - { offsetInCU: 0x1479B, offset: 0x490D96, size: 0x8, addend: 0x0, symName: __ZNK8crashpad23MachOImageSegmentReader12NameInternalEv, symObjAddr: 0xC6C, symBinAddr: 0x10003E910, symSize: 0xA4 }
  - { offsetInCU: 0x14B9A, offset: 0x491195, size: 0x8, addend: 0x0, symName: __ZN8crashpad23MachOImageSegmentReader17SegmentNameStringEPKc, symObjAddr: 0xD10, symBinAddr: 0x10003E9B4, symSize: 0xA0 }
  - { offsetInCU: 0x14BAD, offset: 0x4911A8, size: 0x8, addend: 0x0, symName: __ZN8crashpad23MachOImageSegmentReader17SegmentNameStringEPKc, symObjAddr: 0xD10, symBinAddr: 0x10003E9B4, symSize: 0xA0 }
  - { offsetInCU: 0x14F90, offset: 0x49158B, size: 0x8, addend: 0x0, symName: __ZN8crashpad23MachOImageSegmentReader17SectionNameStringEPKc, symObjAddr: 0xDB0, symBinAddr: 0x10003EA54, symSize: 0xA0 }
  - { offsetInCU: 0x14FA3, offset: 0x49159E, size: 0x8, addend: 0x0, symName: __ZN8crashpad23MachOImageSegmentReader17SectionNameStringEPKc, symObjAddr: 0xDB0, symBinAddr: 0x10003EA54, symSize: 0xA0 }
  - { offsetInCU: 0x15386, offset: 0x491981, size: 0x8, addend: 0x0, symName: __ZN8crashpad23MachOImageSegmentReader27SegmentAndSectionNameStringEPKcS2_, symObjAddr: 0xE50, symBinAddr: 0x10003EAF4, symSize: 0x1D8 }
  - { offsetInCU: 0x15399, offset: 0x491994, size: 0x8, addend: 0x0, symName: __ZNK8crashpad23MachOImageSegmentReader4NameEv, symObjAddr: 0x1028, symBinAddr: 0x10003ECCC, symSize: 0xA4 }
  - { offsetInCU: 0x157B6, offset: 0x491DB1, size: 0x8, addend: 0x0, symName: __ZNK8crashpad23MachOImageSegmentReader7AddressEv, symObjAddr: 0x10CC, symBinAddr: 0x10003ED70, symSize: 0x44 }
  - { offsetInCU: 0x157F7, offset: 0x491DF2, size: 0x8, addend: 0x0, symName: __ZNK8crashpad23MachOImageSegmentReader7AddressEv, symObjAddr: 0x10CC, symBinAddr: 0x10003ED70, symSize: 0x44 }
  - { offsetInCU: 0x15822, offset: 0x491E1D, size: 0x8, addend: 0x0, symName: __ZNK8crashpad23MachOImageSegmentReader7AddressEv, symObjAddr: 0x10CC, symBinAddr: 0x10003ED70, symSize: 0x44 }
  - { offsetInCU: 0x15856, offset: 0x491E51, size: 0x8, addend: 0x0, symName: __ZNK8crashpad23MachOImageSegmentReader13SegmentSlidesEv, symObjAddr: 0x1110, symBinAddr: 0x10003EDB4, symSize: 0x3C }
  - { offsetInCU: 0x1588F, offset: 0x491E8A, size: 0x8, addend: 0x0, symName: __ZNK8crashpad23MachOImageSegmentReader4SizeEv, symObjAddr: 0x114C, symBinAddr: 0x10003EDF0, symSize: 0x5C }
  - { offsetInCU: 0x158BE, offset: 0x491EB9, size: 0x8, addend: 0x0, symName: __ZNK8crashpad23MachOImageSegmentReader4SizeEv, symObjAddr: 0x114C, symBinAddr: 0x10003EDF0, symSize: 0x5C }
  - { offsetInCU: 0x1595C, offset: 0x491F57, size: 0x8, addend: 0x0, symName: __ZNK8crashpad23MachOImageSegmentReader16GetSectionByNameERKNSt3__112basic_stringIcNS1_11char_traitsIcEENS1_9allocatorIcEEEEPy, symObjAddr: 0x11A8, symBinAddr: 0x10003EE4C, symSize: 0x50 }
  - { offsetInCU: 0x15C30, offset: 0x49222B, size: 0x8, addend: 0x0, symName: __ZNK8crashpad23MachOImageSegmentReader17GetSectionAtIndexEmPy, symObjAddr: 0x11F8, symBinAddr: 0x10003EE9C, symSize: 0x104 }
  - { offsetInCU: 0x15D59, offset: 0x492354, size: 0x8, addend: 0x0, symName: __ZN8crashpad23MachOImageSegmentReader8SetSlideEy, symObjAddr: 0x12FC, symBinAddr: 0x10003EFA0, symSize: 0x8 }
  - { offsetInCU: 0x160C8, offset: 0x4926C3, size: 0x8, addend: 0x0, symName: __ZNKSt3__16vectorIN8crashpad13process_types7sectionENS_9allocatorIS3_EEE20__throw_length_errorB8ue170006Ev, symObjAddr: 0x14FC, symBinAddr: 0x10003F194, symSize: 0x14 }
  - { offsetInCU: 0xF7C6, offset: 0x4A2A7F, size: 0x8, addend: 0x0, symName: __ZN8crashpad27MachOImageSymbolTableReaderC2Ev, symObjAddr: 0x0, symBinAddr: 0x10003F1A8, symSize: 0x14 }
  - { offsetInCU: 0xF7E9, offset: 0x4A2AA2, size: 0x8, addend: 0x0, symName: __ZN8crashpad27MachOImageSymbolTableReaderC2Ev, symObjAddr: 0x0, symBinAddr: 0x10003F1A8, symSize: 0x14 }
  - { offsetInCU: 0xF807, offset: 0x4A2AC0, size: 0x8, addend: 0x0, symName: __ZN8crashpad27MachOImageSymbolTableReaderC2Ev, symObjAddr: 0x0, symBinAddr: 0x10003F1A8, symSize: 0x14 }
  - { offsetInCU: 0xF825, offset: 0x4A2ADE, size: 0x8, addend: 0x0, symName: __ZN8crashpad27MachOImageSymbolTableReaderC2Ev, symObjAddr: 0x0, symBinAddr: 0x10003F1A8, symSize: 0x14 }
  - { offsetInCU: 0xF843, offset: 0x4A2AFC, size: 0x8, addend: 0x0, symName: __ZN8crashpad27MachOImageSymbolTableReaderC2Ev, symObjAddr: 0x0, symBinAddr: 0x10003F1A8, symSize: 0x14 }
  - { offsetInCU: 0xF861, offset: 0x4A2B1A, size: 0x8, addend: 0x0, symName: __ZN8crashpad27MachOImageSymbolTableReaderC2Ev, symObjAddr: 0x0, symBinAddr: 0x10003F1A8, symSize: 0x14 }
  - { offsetInCU: 0xF881, offset: 0x4A2B3A, size: 0x8, addend: 0x0, symName: __ZN8crashpad27MachOImageSymbolTableReaderC2Ev, symObjAddr: 0x0, symBinAddr: 0x10003F1A8, symSize: 0x14 }
  - { offsetInCU: 0xF8A0, offset: 0x4A2B59, size: 0x8, addend: 0x0, symName: __ZN8crashpad27MachOImageSymbolTableReaderC2Ev, symObjAddr: 0x0, symBinAddr: 0x10003F1A8, symSize: 0x14 }
  - { offsetInCU: 0xF8E6, offset: 0x4A2B9F, size: 0x8, addend: 0x0, symName: __ZN8crashpad27MachOImageSymbolTableReaderC1Ev, symObjAddr: 0x14, symBinAddr: 0x10003F1BC, symSize: 0x14 }
  - { offsetInCU: 0xF914, offset: 0x4A2BCD, size: 0x8, addend: 0x0, symName: __ZN8crashpad27MachOImageSymbolTableReaderC1Ev, symObjAddr: 0x14, symBinAddr: 0x10003F1BC, symSize: 0x14 }
  - { offsetInCU: 0xF932, offset: 0x4A2BEB, size: 0x8, addend: 0x0, symName: __ZN8crashpad27MachOImageSymbolTableReaderC1Ev, symObjAddr: 0x14, symBinAddr: 0x10003F1BC, symSize: 0x14 }
  - { offsetInCU: 0xF950, offset: 0x4A2C09, size: 0x8, addend: 0x0, symName: __ZN8crashpad27MachOImageSymbolTableReaderC1Ev, symObjAddr: 0x14, symBinAddr: 0x10003F1BC, symSize: 0x14 }
  - { offsetInCU: 0xF96E, offset: 0x4A2C27, size: 0x8, addend: 0x0, symName: __ZN8crashpad27MachOImageSymbolTableReaderC1Ev, symObjAddr: 0x14, symBinAddr: 0x10003F1BC, symSize: 0x14 }
  - { offsetInCU: 0xF98C, offset: 0x4A2C45, size: 0x8, addend: 0x0, symName: __ZN8crashpad27MachOImageSymbolTableReaderC1Ev, symObjAddr: 0x14, symBinAddr: 0x10003F1BC, symSize: 0x14 }
  - { offsetInCU: 0xF9AA, offset: 0x4A2C63, size: 0x8, addend: 0x0, symName: __ZN8crashpad27MachOImageSymbolTableReaderC1Ev, symObjAddr: 0x14, symBinAddr: 0x10003F1BC, symSize: 0x14 }
  - { offsetInCU: 0xF9CA, offset: 0x4A2C83, size: 0x8, addend: 0x0, symName: __ZN8crashpad27MachOImageSymbolTableReaderC1Ev, symObjAddr: 0x14, symBinAddr: 0x10003F1BC, symSize: 0x14 }
  - { offsetInCU: 0xF9E9, offset: 0x4A2CA2, size: 0x8, addend: 0x0, symName: __ZN8crashpad27MachOImageSymbolTableReaderC1Ev, symObjAddr: 0x14, symBinAddr: 0x10003F1BC, symSize: 0x14 }
  - { offsetInCU: 0xFA95, offset: 0x4A2D4E, size: 0x8, addend: 0x0, symName: __ZN8crashpad27MachOImageSymbolTableReaderD2Ev, symObjAddr: 0x28, symBinAddr: 0x10003F1D0, symSize: 0x28 }
  - { offsetInCU: 0xFB69, offset: 0x4A2E22, size: 0x8, addend: 0x0, symName: __ZNSt3__16__treeINS_12__value_typeINS_12basic_stringIcNS_11char_traitsIcEENS_9allocatorIcEEEEN8crashpad27MachOImageSymbolTableReader17SymbolInformationEEENS_19__map_value_compareIS7_SB_NS_4lessIS7_EELb1EEENS5_ISB_EEE7destroyEPNS_11__tree_nodeISB_PvEE, symObjAddr: 0x14E4, symBinAddr: 0x10004014C, symSize: 0x60 }
  - { offsetInCU: 0xFE47, offset: 0x4A3100, size: 0x8, addend: 0x0, symName: __ZN8crashpad27MachOImageSymbolTableReaderD1Ev, symObjAddr: 0x50, symBinAddr: 0x10003F1F8, symSize: 0x28 }
  - { offsetInCU: 0x100A3, offset: 0x4A335C, size: 0x8, addend: 0x0, symName: __ZN8crashpad27MachOImageSymbolTableReader10InitializeEPNS_16ProcessReaderMacEPKNS_13process_types14symtab_commandEPKNS3_16dysymtab_commandEPKNS_23MachOImageSegmentReaderERKNSt3__112basic_stringIcNSD_11char_traitsIcEENSD_9allocatorIcEEEE, symObjAddr: 0x78, symBinAddr: 0x10003F220, symSize: 0xA4 }
  - { offsetInCU: 0x10474, offset: 0x4A372D, size: 0x8, addend: 0x0, symName: __ZN8crashpad8internal38MachOImageSymbolTableReaderInitializerC2EPNS_16ProcessReaderMacEPKNS_23MachOImageSegmentReaderERKNSt3__112basic_stringIcNS7_11char_traitsIcEENS7_9allocatorIcEEEE, symObjAddr: 0xB20, symBinAddr: 0x10003FCC8, symSize: 0xFC }
  - { offsetInCU: 0x109D0, offset: 0x4A3C89, size: 0x8, addend: 0x0, symName: __ZN8crashpad8internal38MachOImageSymbolTableReaderInitializer10InitializeEPKNS_13process_types14symtab_commandEPKNS2_16dysymtab_commandEPNSt3__13mapINS9_12basic_stringIcNS9_11char_traitsIcEENS9_9allocatorIcEEEENS_27MachOImageSymbolTableReader17SymbolInformationENS9_4lessISG_EENSE_INS9_4pairIKSG_SI_EEEEEE, symObjAddr: 0x11C, symBinAddr: 0x10003F2C4, symSize: 0x9D4 }
  - { offsetInCU: 0x137A5, offset: 0x4A6A5E, size: 0x8, addend: 0x0, symName: __ZNK8crashpad8internal38MachOImageSymbolTableReaderInitializer19IsInLinkEditSegmentEyyPKc, symObjAddr: 0xCB0, symBinAddr: 0x10003FDC4, symSize: 0x1EC }
  - { offsetInCU: 0x13ABB, offset: 0x4A6D74, size: 0x8, addend: 0x0, symName: __ZNSt3__16__treeINS_12__value_typeINS_12basic_stringIcNS_11char_traitsIcEENS_9allocatorIcEEEEN8crashpad27MachOImageSymbolTableReader17SymbolInformationEEENS_19__map_value_compareIS7_SB_NS_4lessIS7_EELb1EEENS5_ISB_EEE25__emplace_unique_key_argsIS7_JNS_4pairIS7_SA_EEEEENSJ_INS_15__tree_iteratorISB_PNS_11__tree_nodeISB_PvEElEEbEERKT_DpOT0_, symObjAddr: 0x11C8, symBinAddr: 0x10003FFE4, symSize: 0x168 }
  - { offsetInCU: 0x14081, offset: 0x4A733A, size: 0x8, addend: 0x0, symName: __ZNSt3__110unique_ptrIN8crashpad16ProcessMemoryMac12MappedMemoryENS_14default_deleteIS3_EEED1B8ue170006Ev, symObjAddr: 0xE9C, symBinAddr: 0x10003FFB0, symSize: 0x34 }
  - { offsetInCU: 0x14184, offset: 0x4A743D, size: 0x8, addend: 0x0, symName: __ZNK8crashpad27MachOImageSymbolTableReader27LookUpExternalDefinedSymbolERKNSt3__112basic_stringIcNS1_11char_traitsIcEENS1_9allocatorIcEEEE, symObjAddr: 0xAF0, symBinAddr: 0x10003FC98, symSize: 0x30 }
  - { offsetInCU: 0x1426D, offset: 0x4A7526, size: 0x8, addend: 0x0, symName: __ZNKSt3__16__treeINS_12__value_typeINS_12basic_stringIcNS_11char_traitsIcEENS_9allocatorIcEEEEN8crashpad27MachOImageSymbolTableReader17SymbolInformationEEENS_19__map_value_compareIS7_SB_NS_4lessIS7_EELb1EEENS5_ISB_EEE4findIS7_EENS_21__tree_const_iteratorISB_PNS_11__tree_nodeISB_PvEElEERKT_, symObjAddr: 0x1544, symBinAddr: 0x1000401AC, symSize: 0x118 }
  - { offsetInCU: 0x26, offset: 0x4A80D6, size: 0x8, addend: 0x0, symName: __ZN8crashpad8internal17ModuleSnapshotMacC2Ev, symObjAddr: 0x0, symBinAddr: 0x1000402C4, symSize: 0x20 }
  - { offsetInCU: 0xE6B1, offset: 0x4B6761, size: 0x8, addend: 0x0, symName: __ZN8crashpad8internal17ModuleSnapshotMacC2Ev, symObjAddr: 0x0, symBinAddr: 0x1000402C4, symSize: 0x20 }
  - { offsetInCU: 0xE6F3, offset: 0x4B67A3, size: 0x8, addend: 0x0, symName: __ZN8crashpad8internal17ModuleSnapshotMacC1Ev, symObjAddr: 0x20, symBinAddr: 0x1000402E4, symSize: 0x20 }
  - { offsetInCU: 0xE721, offset: 0x4B67D1, size: 0x8, addend: 0x0, symName: __ZN8crashpad8internal17ModuleSnapshotMacC1Ev, symObjAddr: 0x20, symBinAddr: 0x1000402E4, symSize: 0x20 }
  - { offsetInCU: 0xE801, offset: 0x4B68B1, size: 0x8, addend: 0x0, symName: __ZN8crashpad8internal17ModuleSnapshotMacD2Ev, symObjAddr: 0x40, symBinAddr: 0x100040304, symSize: 0x40 }
  - { offsetInCU: 0xE968, offset: 0x4B6A18, size: 0x8, addend: 0x0, symName: __ZN8crashpad8internal17ModuleSnapshotMacD1Ev, symObjAddr: 0x80, symBinAddr: 0x100040344, symSize: 0x40 }
  - { offsetInCU: 0xEAE7, offset: 0x4B6B97, size: 0x8, addend: 0x0, symName: __ZN8crashpad8internal17ModuleSnapshotMacD0Ev, symObjAddr: 0xC0, symBinAddr: 0x100040384, symSize: 0x40 }
  - { offsetInCU: 0xEC6C, offset: 0x4B6D1C, size: 0x8, addend: 0x0, symName: __ZN8crashpad8internal17ModuleSnapshotMac10InitializeEPNS_16ProcessReaderMacERKNS2_6ModuleE, symObjAddr: 0x100, symBinAddr: 0x1000403C4, symSize: 0x40 }
  - { offsetInCU: 0xECB5, offset: 0x4B6D65, size: 0x8, addend: 0x0, symName: __ZN8crashpad8internal17ModuleSnapshotMac18GetCrashpadOptionsEPNS_25CrashpadInfoClientOptionsE, symObjAddr: 0x140, symBinAddr: 0x100040404, symSize: 0x7C }
  - { offsetInCU: 0xEEDE, offset: 0x4B6F8E, size: 0x8, addend: 0x0, symName: __ZNK8crashpad8internal17ModuleSnapshotMac4NameEv, symObjAddr: 0x1BC, symBinAddr: 0x100040480, symSize: 0xA4 }
  - { offsetInCU: 0xF2B5, offset: 0x4B7365, size: 0x8, addend: 0x0, symName: __ZNK8crashpad8internal17ModuleSnapshotMac7AddressEv, symObjAddr: 0x260, symBinAddr: 0x100040524, symSize: 0xC }
  - { offsetInCU: 0xF301, offset: 0x4B73B1, size: 0x8, addend: 0x0, symName: __ZNK8crashpad8internal17ModuleSnapshotMac7AddressEv, symObjAddr: 0x260, symBinAddr: 0x100040524, symSize: 0xC }
  - { offsetInCU: 0xF35E, offset: 0x4B740E, size: 0x8, addend: 0x0, symName: __ZNK8crashpad8internal17ModuleSnapshotMac4SizeEv, symObjAddr: 0x26C, symBinAddr: 0x100040530, symSize: 0xC }
  - { offsetInCU: 0xF3A5, offset: 0x4B7455, size: 0x8, addend: 0x0, symName: __ZNK8crashpad8internal17ModuleSnapshotMac9TimestampEv, symObjAddr: 0x278, symBinAddr: 0x10004053C, symSize: 0x8 }
  - { offsetInCU: 0xF3E4, offset: 0x4B7494, size: 0x8, addend: 0x0, symName: __ZNK8crashpad8internal17ModuleSnapshotMac11FileVersionEPtS2_S2_S2_, symObjAddr: 0x280, symBinAddr: 0x100040544, symSize: 0x84 }
  - { offsetInCU: 0xF4A0, offset: 0x4B7550, size: 0x8, addend: 0x0, symName: __ZNK8crashpad8internal17ModuleSnapshotMac13SourceVersionEPtS2_S2_S2_, symObjAddr: 0x304, symBinAddr: 0x1000405C8, symSize: 0x28 }
  - { offsetInCU: 0xF529, offset: 0x4B75D9, size: 0x8, addend: 0x0, symName: __ZNK8crashpad8internal17ModuleSnapshotMac13GetModuleTypeEv, symObjAddr: 0x32C, symBinAddr: 0x1000405F0, symSize: 0x2C }
  - { offsetInCU: 0xF580, offset: 0x4B7630, size: 0x8, addend: 0x0, symName: __ZNK8crashpad8internal17ModuleSnapshotMac10UUIDAndAgeEPNS_4UUIDEPj, symObjAddr: 0x358, symBinAddr: 0x10004061C, symSize: 0x28 }
  - { offsetInCU: 0xF5E6, offset: 0x4B7696, size: 0x8, addend: 0x0, symName: __ZNK8crashpad8internal17ModuleSnapshotMac13DebugFileNameEv, symObjAddr: 0x380, symBinAddr: 0x100040644, symSize: 0x1BC }
  - { offsetInCU: 0x1005C, offset: 0x4B810C, size: 0x8, addend: 0x0, symName: __ZNK8crashpad8internal17ModuleSnapshotMac7BuildIDEv, symObjAddr: 0x53C, symBinAddr: 0x100040800, symSize: 0xC }
  - { offsetInCU: 0x10084, offset: 0x4B8134, size: 0x8, addend: 0x0, symName: __ZNK8crashpad8internal17ModuleSnapshotMac7BuildIDEv, symObjAddr: 0x53C, symBinAddr: 0x100040800, symSize: 0xC }
  - { offsetInCU: 0x100A1, offset: 0x4B8151, size: 0x8, addend: 0x0, symName: __ZNK8crashpad8internal17ModuleSnapshotMac7BuildIDEv, symObjAddr: 0x53C, symBinAddr: 0x100040800, symSize: 0xC }
  - { offsetInCU: 0x1011C, offset: 0x4B81CC, size: 0x8, addend: 0x0, symName: __ZNK8crashpad8internal17ModuleSnapshotMac17AnnotationsVectorEv, symObjAddr: 0x548, symBinAddr: 0x10004080C, symSize: 0x7C }
  - { offsetInCU: 0x10424, offset: 0x4B84D4, size: 0x8, addend: 0x0, symName: __ZNK8crashpad8internal17ModuleSnapshotMac20AnnotationsSimpleMapEv, symObjAddr: 0x5C4, symBinAddr: 0x100040888, symSize: 0x7C }
  - { offsetInCU: 0x1072C, offset: 0x4B87DC, size: 0x8, addend: 0x0, symName: __ZNK8crashpad8internal17ModuleSnapshotMac17AnnotationObjectsEv, symObjAddr: 0x640, symBinAddr: 0x100040904, symSize: 0x7C }
  - { offsetInCU: 0x10B7D, offset: 0x4B8C2D, size: 0x8, addend: 0x0, symName: __ZNK8crashpad8internal17ModuleSnapshotMac17ExtraMemoryRangesEv, symObjAddr: 0x6BC, symBinAddr: 0x100040980, symSize: 0x14 }
  - { offsetInCU: 0x10BA5, offset: 0x4B8C55, size: 0x8, addend: 0x0, symName: __ZNK8crashpad8internal17ModuleSnapshotMac17ExtraMemoryRangesEv, symObjAddr: 0x6BC, symBinAddr: 0x100040980, symSize: 0x14 }
  - { offsetInCU: 0x10BC2, offset: 0x4B8C72, size: 0x8, addend: 0x0, symName: __ZNK8crashpad8internal17ModuleSnapshotMac17ExtraMemoryRangesEv, symObjAddr: 0x6BC, symBinAddr: 0x100040980, symSize: 0x14 }
  - { offsetInCU: 0x10BE0, offset: 0x4B8C90, size: 0x8, addend: 0x0, symName: __ZNK8crashpad8internal17ModuleSnapshotMac17ExtraMemoryRangesEv, symObjAddr: 0x6BC, symBinAddr: 0x100040980, symSize: 0x14 }
  - { offsetInCU: 0x10BFE, offset: 0x4B8CAE, size: 0x8, addend: 0x0, symName: __ZNK8crashpad8internal17ModuleSnapshotMac17ExtraMemoryRangesEv, symObjAddr: 0x6BC, symBinAddr: 0x100040980, symSize: 0x14 }
  - { offsetInCU: 0x10C1C, offset: 0x4B8CCC, size: 0x8, addend: 0x0, symName: __ZNK8crashpad8internal17ModuleSnapshotMac17ExtraMemoryRangesEv, symObjAddr: 0x6BC, symBinAddr: 0x100040980, symSize: 0x14 }
  - { offsetInCU: 0x10C3C, offset: 0x4B8CEC, size: 0x8, addend: 0x0, symName: __ZNK8crashpad8internal17ModuleSnapshotMac17ExtraMemoryRangesEv, symObjAddr: 0x6BC, symBinAddr: 0x100040980, symSize: 0x14 }
  - { offsetInCU: 0x10C5B, offset: 0x4B8D0B, size: 0x8, addend: 0x0, symName: __ZNK8crashpad8internal17ModuleSnapshotMac17ExtraMemoryRangesEv, symObjAddr: 0x6BC, symBinAddr: 0x100040980, symSize: 0x14 }
  - { offsetInCU: 0x10CB7, offset: 0x4B8D67, size: 0x8, addend: 0x0, symName: __ZNK8crashpad8internal17ModuleSnapshotMac21CustomMinidumpStreamsEv, symObjAddr: 0x6D0, symBinAddr: 0x100040994, symSize: 0xC }
  - { offsetInCU: 0x10CDF, offset: 0x4B8D8F, size: 0x8, addend: 0x0, symName: __ZNK8crashpad8internal17ModuleSnapshotMac21CustomMinidumpStreamsEv, symObjAddr: 0x6D0, symBinAddr: 0x100040994, symSize: 0xC }
  - { offsetInCU: 0x10CFC, offset: 0x4B8DAC, size: 0x8, addend: 0x0, symName: __ZNK8crashpad8internal17ModuleSnapshotMac21CustomMinidumpStreamsEv, symObjAddr: 0x6D0, symBinAddr: 0x100040994, symSize: 0xC }
  - { offsetInCU: 0xD098, offset: 0x4C5EC4, size: 0x8, addend: 0x0, symName: __ZNSt3__14swapB8ue170006IN8crashpad16ProcessReaderMac6ModuleEEENS_9enable_ifIXaasr21is_move_constructibleIT_EE5valuesr18is_move_assignableIS5_EE5valueEvE4typeERS5_S8_, symObjAddr: 0x2E54, symBinAddr: 0x1000435E8, symSize: 0x128 }
  - { offsetInCU: 0xD8B0, offset: 0x4C66DC, size: 0x8, addend: 0x0, symName: __ZNSt3__142__uninitialized_allocator_move_if_noexceptB8ue170006INS_9allocatorIN8crashpad16ProcessReaderMac6ModuleEEENS_16reverse_iteratorIPS4_EES8_S8_EET2_RT_T0_T1_S9_, symObjAddr: 0x2988, symBinAddr: 0x10004311C, symSize: 0x128 }
  - { offsetInCU: 0xDFD6, offset: 0x4C6E02, size: 0x8, addend: 0x0, symName: __ZNSt3__142__uninitialized_allocator_move_if_noexceptB8ue170006INS_9allocatorIN8crashpad16ProcessReaderMac6ThreadEEENS_16reverse_iteratorIPS4_EES8_S8_EET2_RT_T0_T1_S9_, symObjAddr: 0x2768, symBinAddr: 0x100042EFC, symSize: 0x148 }
  - { offsetInCU: 0x12D4E, offset: 0x4CBB7A, size: 0x8, addend: 0x0, symName: __ZN8crashpad16ProcessReaderMac6ThreadC2Ev, symObjAddr: 0x0, symBinAddr: 0x1000409A0, symSize: 0x8 }
  - { offsetInCU: 0x12D8B, offset: 0x4CBBB7, size: 0x8, addend: 0x0, symName: __ZN8crashpad16ProcessReaderMac6ThreadC1Ev, symObjAddr: 0x8, symBinAddr: 0x1000409A8, symSize: 0x8 }
  - { offsetInCU: 0x12DAE, offset: 0x4CBBDA, size: 0x8, addend: 0x0, symName: __ZN8crashpad16ProcessReaderMac6ThreadC1Ev, symObjAddr: 0x8, symBinAddr: 0x1000409A8, symSize: 0x8 }
  - { offsetInCU: 0x12DCA, offset: 0x4CBBF6, size: 0x8, addend: 0x0, symName: __ZN8crashpad16ProcessReaderMac6ModuleC2Ev, symObjAddr: 0x10, symBinAddr: 0x1000409B0, symSize: 0x10 }
  - { offsetInCU: 0x12E07, offset: 0x4CBC33, size: 0x8, addend: 0x0, symName: __ZN8crashpad16ProcessReaderMac6ModuleC1Ev, symObjAddr: 0x20, symBinAddr: 0x1000409C0, symSize: 0x10 }
  - { offsetInCU: 0x12E2A, offset: 0x4CBC56, size: 0x8, addend: 0x0, symName: __ZN8crashpad16ProcessReaderMac6ModuleC1Ev, symObjAddr: 0x20, symBinAddr: 0x1000409C0, symSize: 0x10 }
  - { offsetInCU: 0x12F15, offset: 0x4CBD41, size: 0x8, addend: 0x0, symName: __ZN8crashpad16ProcessReaderMac6ModuleD2Ev, symObjAddr: 0x30, symBinAddr: 0x1000409D0, symSize: 0x40 }
  - { offsetInCU: 0x13074, offset: 0x4CBEA0, size: 0x8, addend: 0x0, symName: __ZN8crashpad16ProcessReaderMac6ModuleD1Ev, symObjAddr: 0x70, symBinAddr: 0x100040A10, symSize: 0x40 }
  - { offsetInCU: 0x13208, offset: 0x4CC034, size: 0x8, addend: 0x0, symName: __ZN8crashpad16ProcessReaderMacC2Ev, symObjAddr: 0xB0, symBinAddr: 0x100040A50, symSize: 0x88 }
  - { offsetInCU: 0x132AE, offset: 0x4CC0DA, size: 0x8, addend: 0x0, symName: __ZNSt3__16vectorINS_10unique_ptrIN8crashpad16MachOImageReaderENS_14default_deleteIS3_EEEENS_9allocatorIS6_EEED1B8ue170006Ev, symObjAddr: 0x138, symBinAddr: 0x100040AD8, symSize: 0x70 }
  - { offsetInCU: 0x1350E, offset: 0x4CC33A, size: 0x8, addend: 0x0, symName: __ZNSt3__16vectorIN8crashpad16ProcessReaderMac6ModuleENS_9allocatorIS3_EEED1B8ue170006Ev, symObjAddr: 0x1A8, symBinAddr: 0x100040B48, symSize: 0x74 }
  - { offsetInCU: 0x1383E, offset: 0x4CC66A, size: 0x8, addend: 0x0, symName: __ZNSt3__16vectorIN8crashpad16ProcessReaderMac6ThreadENS_9allocatorIS3_EEED1B8ue170006Ev, symObjAddr: 0x21C, symBinAddr: 0x100040BBC, symSize: 0x74 }
  - { offsetInCU: 0x13FBE, offset: 0x4CCDEA, size: 0x8, addend: 0x0, symName: __ZN8crashpad16ProcessReaderMacC1Ev, symObjAddr: 0x290, symBinAddr: 0x100040C30, symSize: 0x90 }
  - { offsetInCU: 0x140EF, offset: 0x4CCF1B, size: 0x8, addend: 0x0, symName: __ZN8crashpad16ProcessReaderMacC1Ev.cold.2, symObjAddr: 0x3664, symBinAddr: 0x1000660DC, symSize: 0x60 }
  - { offsetInCU: 0x1433F, offset: 0x4CD16B, size: 0x8, addend: 0x0, symName: __ZN8crashpad16ProcessReaderMacC1Ev.cold.1, symObjAddr: 0x3598, symBinAddr: 0x100066010, symSize: 0xCC }
  - { offsetInCU: 0x149CF, offset: 0x4CD7FB, size: 0x8, addend: 0x0, symName: __ZN8crashpad16ProcessReaderMacD2Ev, symObjAddr: 0x320, symBinAddr: 0x100040CC0, symSize: 0x1C4 }
  - { offsetInCU: 0x153ED, offset: 0x4CE219, size: 0x8, addend: 0x0, symName: __ZN8crashpad16ProcessReaderMacD1Ev, symObjAddr: 0x4F0, symBinAddr: 0x100040E84, symSize: 0x4 }
  - { offsetInCU: 0x1541B, offset: 0x4CE247, size: 0x8, addend: 0x0, symName: __ZN8crashpad16ProcessReaderMacD1Ev, symObjAddr: 0x4F0, symBinAddr: 0x100040E84, symSize: 0x4 }
  - { offsetInCU: 0x1542D, offset: 0x4CE259, size: 0x8, addend: 0x0, symName: __ZN8crashpad16ProcessReaderMac10InitializeEj, symObjAddr: 0x4F4, symBinAddr: 0x100040E88, symSize: 0x44 }
  - { offsetInCU: 0x15466, offset: 0x4CE292, size: 0x8, addend: 0x0, symName: __ZNK8crashpad16ProcessReaderMac9StartTimeEP7timeval, symObjAddr: 0x538, symBinAddr: 0x100040ECC, symSize: 0x8 }
  - { offsetInCU: 0x15613, offset: 0x4CE43F, size: 0x8, addend: 0x0, symName: __ZNK8crashpad16ProcessReaderMac8CPUTimesEP7timevalS2_, symObjAddr: 0x540, symBinAddr: 0x100040ED4, symSize: 0x204 }
  - { offsetInCU: 0x15848, offset: 0x4CE674, size: 0x8, addend: 0x0, symName: __ZN8crashpad16ProcessReaderMac7ThreadsEv, symObjAddr: 0x744, symBinAddr: 0x1000410D8, symSize: 0x40 }
  - { offsetInCU: 0x15886, offset: 0x4CE6B2, size: 0x8, addend: 0x0, symName: __ZN8crashpad16ProcessReaderMac17InitializeThreadsEv, symObjAddr: 0x784, symBinAddr: 0x100041118, symSize: 0x680 }
  - { offsetInCU: 0x171D8, offset: 0x4D0004, size: 0x8, addend: 0x0, symName: __ZN8crashpad16ProcessReaderMac20CalculateStackRegionEyPy, symObjAddr: 0x1D84, symBinAddr: 0x100042718, symSize: 0x20C }
  - { offsetInCU: 0x174E1, offset: 0x4D030D, size: 0x8, addend: 0x0, symName: __ZNSt3__16vectorIN8crashpad16ProcessReaderMac6ThreadENS_9allocatorIS3_EEE21__push_back_slow_pathIRKS3_EEvOT_, symObjAddr: 0x249C, symBinAddr: 0x100042C30, symSize: 0x254 }
  - { offsetInCU: 0x18044, offset: 0x4D0E70, size: 0x8, addend: 0x0, symName: __ZN4base5apple12ScopedMachVMD1Ev, symObjAddr: 0x1F90, symBinAddr: 0x100042924, symSize: 0x40 }
  - { offsetInCU: 0x1808D, offset: 0x4D0EB9, size: 0x8, addend: 0x0, symName: __ZN8crashpad16ProcessReaderMac7ModulesEv, symObjAddr: 0xE04, symBinAddr: 0x100041798, symSize: 0x40 }
  - { offsetInCU: 0x180CB, offset: 0x4D0EF7, size: 0x8, addend: 0x0, symName: __ZN8crashpad16ProcessReaderMac17InitializeModulesEv, symObjAddr: 0xE44, symBinAddr: 0x1000417D8, symSize: 0xDF8 }
  - { offsetInCU: 0x1C10D, offset: 0x4D4F39, size: 0x8, addend: 0x0, symName: __ZN8crashpad16ProcessReaderMac16DyldAllImageInfoEPy, symObjAddr: 0x1C3C, symBinAddr: 0x1000425D0, symSize: 0x148 }
  - { offsetInCU: 0x1C26D, offset: 0x4D5099, size: 0x8, addend: 0x0, symName: __ZNSt3__16vectorIN8crashpad16ProcessReaderMac6ModuleENS_9allocatorIS3_EEE7reserveEm, symObjAddr: 0x1FD0, symBinAddr: 0x100042964, symSize: 0x11C }
  - { offsetInCU: 0x1C830, offset: 0x4D565C, size: 0x8, addend: 0x0, symName: __ZNSt3__16vectorINS_10unique_ptrIN8crashpad16MachOImageReaderENS_14default_deleteIS3_EEEENS_9allocatorIS6_EEE21__push_back_slow_pathIS6_EEvOT_, symObjAddr: 0x2B10, symBinAddr: 0x1000432A4, symSize: 0x124 }
  - { offsetInCU: 0x1CEE6, offset: 0x4D5D12, size: 0x8, addend: 0x0, symName: __ZNKSt3__16vectorINS_10unique_ptrIN8crashpad16MachOImageReaderENS_14default_deleteIS3_EEEENS_9allocatorIS6_EEE20__throw_length_errorB8ue170006Ev, symObjAddr: 0x2C34, symBinAddr: 0x1000433C8, symSize: 0x14 }
  - { offsetInCU: 0x1CEFA, offset: 0x4D5D26, size: 0x8, addend: 0x0, symName: __ZNSt3__16vectorIN8crashpad16ProcessReaderMac6ModuleENS_9allocatorIS3_EEE21__push_back_slow_pathIRKS3_EEvOT_, symObjAddr: 0x2C48, symBinAddr: 0x1000433DC, symSize: 0x20C }
  - { offsetInCU: 0x1D9D1, offset: 0x4D67FD, size: 0x8, addend: 0x0, symName: __ZNK8crashpad16MachOImageReader12DylinkerNameEv, symObjAddr: 0x2120, symBinAddr: 0x100042AB4, symSize: 0xA4 }
  - { offsetInCU: 0x1DDAD, offset: 0x4D6BD9, size: 0x8, addend: 0x0, symName: __ZNSt3__112basic_stringIcNS_11char_traitsIcEENS_9allocatorIcEEEC1B8ue170006ILi0EEEPKc, symObjAddr: 0x21C4, symBinAddr: 0x100042B58, symSize: 0xA0 }
  - { offsetInCU: 0x1DDC5, offset: 0x4D6BF1, size: 0x8, addend: 0x0, symName: __ZNSt3__112basic_stringIcNS_11char_traitsIcEENS_9allocatorIcEEEC1B8ue170006ILi0EEEPKc, symObjAddr: 0x21C4, symBinAddr: 0x100042B58, symSize: 0xA0 }
  - { offsetInCU: 0x1E188, offset: 0x4D6FB4, size: 0x8, addend: 0x0, symName: __ZNSt3__112basic_stringIcNS_11char_traitsIcEENS_9allocatorIcEEEaSB8ue170006EPKc, symObjAddr: 0x2264, symBinAddr: 0x100042BF8, symSize: 0x34 }
  - { offsetInCU: 0x1E1A1, offset: 0x4D6FCD, size: 0x8, addend: 0x0, symName: __ZNSt3__112basic_stringIcNS_11char_traitsIcEENS_9allocatorIcEEEaSB8ue170006EPKc, symObjAddr: 0x2264, symBinAddr: 0x100042BF8, symSize: 0x34 }
  - { offsetInCU: 0x1E249, offset: 0x4D7075, size: 0x8, addend: 0x0, symName: __ZNSt3__110unique_ptrIN8crashpad16MachOImageReaderENS_14default_deleteIS2_EEED1B8ue170006Ev, symObjAddr: 0x20EC, symBinAddr: 0x100042A80, symSize: 0x34 }
  - { offsetInCU: 0x1E640, offset: 0x4D746C, size: 0x8, addend: 0x0, symName: __ZNKSt3__16vectorIN8crashpad16ProcessReaderMac6ModuleENS_9allocatorIS3_EEE20__throw_length_errorB8ue170006Ev, symObjAddr: 0x2910, symBinAddr: 0x1000430A4, symSize: 0x14 }
  - { offsetInCU: 0x1E66A, offset: 0x4D7496, size: 0x8, addend: 0x0, symName: __ZNSt3__114__split_bufferIN8crashpad16ProcessReaderMac6ModuleERNS_9allocatorIS3_EEED1Ev, symObjAddr: 0x2924, symBinAddr: 0x1000430B8, symSize: 0x64 }
  - { offsetInCU: 0x1E675, offset: 0x4D74A1, size: 0x8, addend: 0x0, symName: __ZNSt3__114__split_bufferIN8crashpad16ProcessReaderMac6ModuleERNS_9allocatorIS3_EEED1Ev, symObjAddr: 0x2924, symBinAddr: 0x1000430B8, symSize: 0x64 }
  - { offsetInCU: 0x1EA31, offset: 0x4D785D, size: 0x8, addend: 0x0, symName: __ZN8crashpad16ProcessReaderMac13LocateRedZoneEPyS1_S1_j, symObjAddr: 0x2298, symBinAddr: 0x100042C2C, symSize: 0x4 }
  - { offsetInCU: 0x1EF0F, offset: 0x4D7D3B, size: 0x8, addend: 0x0, symName: __ZNKSt3__16vectorIN8crashpad16ProcessReaderMac6ThreadENS_9allocatorIS3_EEE20__throw_length_errorB8ue170006Ev, symObjAddr: 0x2754, symBinAddr: 0x100042EE8, symSize: 0x14 }
  - { offsetInCU: 0x1EF39, offset: 0x4D7D65, size: 0x8, addend: 0x0, symName: __ZNSt3__142__uninitialized_allocator_move_if_noexceptB8ue170006INS_9allocatorIN8crashpad16ProcessReaderMac6ThreadEEENS_16reverse_iteratorIPS4_EES8_S8_EET2_RT_T0_T1_S9_, symObjAddr: 0x2768, symBinAddr: 0x100042EFC, symSize: 0x148 }
  - { offsetInCU: 0x1EF44, offset: 0x4D7D70, size: 0x8, addend: 0x0, symName: __ZNSt3__114__split_bufferIN8crashpad16ProcessReaderMac6ThreadERNS_9allocatorIS3_EEED1Ev, symObjAddr: 0x26F0, symBinAddr: 0x100042E84, symSize: 0x64 }
  - { offsetInCU: 0x1F2D4, offset: 0x4D8100, size: 0x8, addend: 0x0, symName: __ZNSt3__128__exception_guard_exceptionsINS_29_AllocatorDestroyRangeReverseINS_9allocatorIN8crashpad16ProcessReaderMac6ThreadEEENS_16reverse_iteratorIPS5_EEEEED1B8ue170006Ev, symObjAddr: 0x28B0, symBinAddr: 0x100043044, symSize: 0x60 }
  - { offsetInCU: 0x1F67E, offset: 0x4D84AA, size: 0x8, addend: 0x0, symName: __ZNSt3__128__exception_guard_exceptionsINS_29_AllocatorDestroyRangeReverseINS_9allocatorIN8crashpad16ProcessReaderMac6ModuleEEENS_16reverse_iteratorIPS5_EEEEED1B8ue170006Ev, symObjAddr: 0x2AB0, symBinAddr: 0x100043244, symSize: 0x60 }
  - { offsetInCU: 0x1FB3A, offset: 0x4D8966, size: 0x8, addend: 0x0, symName: __ZNKSt3__16vectorINS_10unique_ptrIN8crashpad16MachOImageReaderENS_14default_deleteIS3_EEEENS_9allocatorIS6_EEE20__throw_length_errorB8ue170006Ev, symObjAddr: 0x2C34, symBinAddr: 0x1000433C8, symSize: 0x14 }
  - { offsetInCU: 0x1FB64, offset: 0x4D8990, size: 0x8, addend: 0x0, symName: __ZNSt3__16vectorIN8crashpad16ProcessReaderMac6ModuleENS_9allocatorIS3_EEE21__push_back_slow_pathIRKS3_EEvOT_, symObjAddr: 0x2C48, symBinAddr: 0x1000433DC, symSize: 0x20C }
  - { offsetInCU: 0x16556, offset: 0x4EF82D, size: 0x8, addend: 0x0, symName: __ZN8crashpad18ProcessSnapshotMacC2Ev, symObjAddr: 0x0, symBinAddr: 0x100043710, symSize: 0xAC }
  - { offsetInCU: 0x1669A, offset: 0x4EF971, size: 0x8, addend: 0x0, symName: __ZNSt3__110unique_ptrIN8crashpad8internal20ExceptionSnapshotMacENS_14default_deleteIS3_EEED1B8ue170006Ev, symObjAddr: 0xAC, symBinAddr: 0x1000437BC, symSize: 0x34 }
  - { offsetInCU: 0x16733, offset: 0x4EFA0A, size: 0x8, addend: 0x0, symName: __ZNSt3__16vectorINS_10unique_ptrIN8crashpad8internal17ModuleSnapshotMacENS_14default_deleteIS4_EEEENS_9allocatorIS7_EEED1B8ue170006Ev, symObjAddr: 0xE0, symBinAddr: 0x1000437F0, symSize: 0x70 }
  - { offsetInCU: 0x16993, offset: 0x4EFC6A, size: 0x8, addend: 0x0, symName: __ZNSt3__16vectorINS_10unique_ptrIN8crashpad8internal17ThreadSnapshotMacENS_14default_deleteIS4_EEEENS_9allocatorIS7_EEED1B8ue170006Ev, symObjAddr: 0x150, symBinAddr: 0x100043860, symSize: 0x70 }
  - { offsetInCU: 0x16FE3, offset: 0x4F02BA, size: 0x8, addend: 0x0, symName: __ZN8crashpad18ProcessSnapshotMacC1Ev, symObjAddr: 0x1C0, symBinAddr: 0x1000438D0, symSize: 0xB4 }
  - { offsetInCU: 0x171DB, offset: 0x4F04B2, size: 0x8, addend: 0x0, symName: __ZN8crashpad18ProcessSnapshotMacC1Ev.cold.1, symObjAddr: 0x12DC, symBinAddr: 0x10006613C, symSize: 0xC4 }
  - { offsetInCU: 0x17701, offset: 0x4F09D8, size: 0x8, addend: 0x0, symName: __ZN8crashpad18ProcessSnapshotMacD2Ev, symObjAddr: 0x274, symBinAddr: 0x100043984, symSize: 0xE8 }
  - { offsetInCU: 0x17FA1, offset: 0x4F1278, size: 0x8, addend: 0x0, symName: __ZN8crashpad18ProcessSnapshotMacD1Ev, symObjAddr: 0x35C, symBinAddr: 0x100043A6C, symSize: 0x4 }
  - { offsetInCU: 0x17FC5, offset: 0x4F129C, size: 0x8, addend: 0x0, symName: __ZN8crashpad18ProcessSnapshotMacD1Ev, symObjAddr: 0x35C, symBinAddr: 0x100043A6C, symSize: 0x4 }
  - { offsetInCU: 0x17FF3, offset: 0x4F12CA, size: 0x8, addend: 0x0, symName: __ZN8crashpad18ProcessSnapshotMacD0Ev, symObjAddr: 0x360, symBinAddr: 0x100043A70, symSize: 0x14 }
  - { offsetInCU: 0x180F6, offset: 0x4F13CD, size: 0x8, addend: 0x0, symName: __ZN8crashpad18ProcessSnapshotMac10InitializeEj, symObjAddr: 0x374, symBinAddr: 0x100043A84, symSize: 0x104 }
  - { offsetInCU: 0x181FE, offset: 0x4F14D5, size: 0x8, addend: 0x0, symName: __ZN8crashpad18ProcessSnapshotMac17InitializeThreadsEv, symObjAddr: 0x478, symBinAddr: 0x100043B88, symSize: 0xF4 }
  - { offsetInCU: 0x18629, offset: 0x4F1900, size: 0x8, addend: 0x0, symName: __ZN8crashpad18ProcessSnapshotMac17InitializeModulesEv, symObjAddr: 0x56C, symBinAddr: 0x100043C7C, symSize: 0xF4 }
  - { offsetInCU: 0x18DC6, offset: 0x4F209D, size: 0x8, addend: 0x0, symName: __ZNSt3__16vectorINS_10unique_ptrIN8crashpad8internal17ThreadSnapshotMacENS_14default_deleteIS4_EEEENS_9allocatorIS7_EEE21__push_back_slow_pathIS7_EEvOT_, symObjAddr: 0xCE8, symBinAddr: 0x100044328, symSize: 0x124 }
  - { offsetInCU: 0x1947C, offset: 0x4F2753, size: 0x8, addend: 0x0, symName: __ZNKSt3__16vectorINS_10unique_ptrIN8crashpad8internal17ThreadSnapshotMacENS_14default_deleteIS4_EEEENS_9allocatorIS7_EEE20__throw_length_errorB8ue170006Ev, symObjAddr: 0xE0C, symBinAddr: 0x10004444C, symSize: 0x14 }
  - { offsetInCU: 0x19490, offset: 0x4F2767, size: 0x8, addend: 0x0, symName: __ZNSt3__110unique_ptrIN8crashpad8internal17ThreadSnapshotMacENS_14default_deleteIS3_EEED1B8ue170006Ev, symObjAddr: 0xBB0, symBinAddr: 0x1000442C0, symSize: 0x34 }
  - { offsetInCU: 0x19895, offset: 0x4F2B6C, size: 0x8, addend: 0x0, symName: __ZNSt3__16vectorINS_10unique_ptrIN8crashpad8internal17ModuleSnapshotMacENS_14default_deleteIS4_EEEENS_9allocatorIS7_EEE21__push_back_slow_pathIS7_EEvOT_, symObjAddr: 0xE20, symBinAddr: 0x100044460, symSize: 0x124 }
  - { offsetInCU: 0x19F4B, offset: 0x4F3222, size: 0x8, addend: 0x0, symName: __ZNKSt3__16vectorINS_10unique_ptrIN8crashpad8internal17ModuleSnapshotMacENS_14default_deleteIS4_EEEENS_9allocatorIS7_EEE20__throw_length_errorB8ue170006Ev, symObjAddr: 0xF44, symBinAddr: 0x100044584, symSize: 0x14 }
  - { offsetInCU: 0x19F5F, offset: 0x4F3236, size: 0x8, addend: 0x0, symName: __ZNSt3__110unique_ptrIN8crashpad8internal17ModuleSnapshotMacENS_14default_deleteIS3_EEED1B8ue170006Ev, symObjAddr: 0xBE4, symBinAddr: 0x1000442F4, symSize: 0x34 }
  - { offsetInCU: 0x1A013, offset: 0x4F32EA, size: 0x8, addend: 0x0, symName: __ZN8crashpad18ProcessSnapshotMac19InitializeExceptionEijiPKxjiPKjj, symObjAddr: 0x660, symBinAddr: 0x100043D70, symSize: 0xEC }
  - { offsetInCU: 0x1A1AB, offset: 0x4F3482, size: 0x8, addend: 0x0, symName: __ZN8crashpad18ProcessSnapshotMac18GetCrashpadOptionsEPNS_25CrashpadInfoClientOptionsE, symObjAddr: 0x74C, symBinAddr: 0x100043E5C, symSize: 0xD0 }
  - { offsetInCU: 0x1A2C5, offset: 0x4F359C, size: 0x8, addend: 0x0, symName: __ZNK8crashpad18ProcessSnapshotMac9ProcessIDEv, symObjAddr: 0x81C, symBinAddr: 0x100043F2C, symSize: 0x8 }
  - { offsetInCU: 0x1A2F0, offset: 0x4F35C7, size: 0x8, addend: 0x0, symName: __ZNK8crashpad18ProcessSnapshotMac9ProcessIDEv, symObjAddr: 0x81C, symBinAddr: 0x100043F2C, symSize: 0x8 }
  - { offsetInCU: 0x1A324, offset: 0x4F35FB, size: 0x8, addend: 0x0, symName: __ZNK8crashpad18ProcessSnapshotMac15ParentProcessIDEv, symObjAddr: 0x824, symBinAddr: 0x100043F34, symSize: 0x8 }
  - { offsetInCU: 0x1A34F, offset: 0x4F3626, size: 0x8, addend: 0x0, symName: __ZNK8crashpad18ProcessSnapshotMac15ParentProcessIDEv, symObjAddr: 0x824, symBinAddr: 0x100043F34, symSize: 0x8 }
  - { offsetInCU: 0x1A36D, offset: 0x4F3644, size: 0x8, addend: 0x0, symName: __ZNK8crashpad18ProcessSnapshotMac12SnapshotTimeEP7timeval, symObjAddr: 0x82C, symBinAddr: 0x100043F3C, symSize: 0xC }
  - { offsetInCU: 0x1A3A1, offset: 0x4F3678, size: 0x8, addend: 0x0, symName: __ZNK8crashpad18ProcessSnapshotMac16ProcessStartTimeEP7timeval, symObjAddr: 0x838, symBinAddr: 0x100043F48, symSize: 0x8 }
  - { offsetInCU: 0x1A3D7, offset: 0x4F36AE, size: 0x8, addend: 0x0, symName: __ZNK8crashpad18ProcessSnapshotMac15ProcessCPUTimesEP7timevalS2_, symObjAddr: 0x840, symBinAddr: 0x100043F50, symSize: 0x8 }
  - { offsetInCU: 0x1A41A, offset: 0x4F36F1, size: 0x8, addend: 0x0, symName: __ZNK8crashpad18ProcessSnapshotMac8ReportIDEPNS_4UUIDE, symObjAddr: 0x848, symBinAddr: 0x100043F58, symSize: 0x10 }
  - { offsetInCU: 0x1A44E, offset: 0x4F3725, size: 0x8, addend: 0x0, symName: __ZNK8crashpad18ProcessSnapshotMac8ClientIDEPNS_4UUIDE, symObjAddr: 0x858, symBinAddr: 0x100043F68, symSize: 0x10 }
  - { offsetInCU: 0x1A482, offset: 0x4F3759, size: 0x8, addend: 0x0, symName: __ZNK8crashpad18ProcessSnapshotMac20AnnotationsSimpleMapEv, symObjAddr: 0x868, symBinAddr: 0x100043F78, symSize: 0x8 }
  - { offsetInCU: 0x1A4AB, offset: 0x4F3782, size: 0x8, addend: 0x0, symName: __ZNK8crashpad18ProcessSnapshotMac6SystemEv, symObjAddr: 0x870, symBinAddr: 0x100043F80, symSize: 0x8 }
  - { offsetInCU: 0x1A971, offset: 0x4F3C48, size: 0x8, addend: 0x0, symName: __ZNK8crashpad18ProcessSnapshotMac7ThreadsEv, symObjAddr: 0x878, symBinAddr: 0x100043F88, symSize: 0x17C }
  - { offsetInCU: 0x1B4DA, offset: 0x4F47B1, size: 0x8, addend: 0x0, symName: __ZNK8crashpad18ProcessSnapshotMac7ModulesEv, symObjAddr: 0x9F4, symBinAddr: 0x100044104, symSize: 0x17C }
  - { offsetInCU: 0x1BBA5, offset: 0x4F4E7C, size: 0x8, addend: 0x0, symName: __ZNSt3__16vectorINS_10unique_ptrIN8crashpad8internal17ThreadSnapshotMacENS_14default_deleteIS4_EEEENS_9allocatorIS7_EEE21__push_back_slow_pathIS7_EEvOT_, symObjAddr: 0xCE8, symBinAddr: 0x100044328, symSize: 0x124 }
  - { offsetInCU: 0x1BBE9, offset: 0x4F4EC0, size: 0x8, addend: 0x0, symName: __ZNK8crashpad18ProcessSnapshotMac15UnloadedModulesEv, symObjAddr: 0xB70, symBinAddr: 0x100044280, symSize: 0xC }
  - { offsetInCU: 0x1BC10, offset: 0x4F4EE7, size: 0x8, addend: 0x0, symName: __ZNK8crashpad18ProcessSnapshotMac15UnloadedModulesEv, symObjAddr: 0xB70, symBinAddr: 0x100044280, symSize: 0xC }
  - { offsetInCU: 0x1BC2D, offset: 0x4F4F04, size: 0x8, addend: 0x0, symName: __ZNK8crashpad18ProcessSnapshotMac15UnloadedModulesEv, symObjAddr: 0xB70, symBinAddr: 0x100044280, symSize: 0xC }
  - { offsetInCU: 0x1BC61, offset: 0x4F4F38, size: 0x8, addend: 0x0, symName: __ZNK8crashpad18ProcessSnapshotMac9ExceptionEv, symObjAddr: 0xB7C, symBinAddr: 0x10004428C, symSize: 0x8 }
  - { offsetInCU: 0x1BC8C, offset: 0x4F4F63, size: 0x8, addend: 0x0, symName: __ZNK8crashpad18ProcessSnapshotMac9ExceptionEv, symObjAddr: 0xB7C, symBinAddr: 0x10004428C, symSize: 0x8 }
  - { offsetInCU: 0x1BCE4, offset: 0x4F4FBB, size: 0x8, addend: 0x0, symName: __ZNK8crashpad18ProcessSnapshotMac9MemoryMapEv, symObjAddr: 0xB84, symBinAddr: 0x100044294, symSize: 0xC }
  - { offsetInCU: 0x1BD0B, offset: 0x4F4FE2, size: 0x8, addend: 0x0, symName: __ZNK8crashpad18ProcessSnapshotMac9MemoryMapEv, symObjAddr: 0xB84, symBinAddr: 0x100044294, symSize: 0xC }
  - { offsetInCU: 0x1BD28, offset: 0x4F4FFF, size: 0x8, addend: 0x0, symName: __ZNK8crashpad18ProcessSnapshotMac9MemoryMapEv, symObjAddr: 0xB84, symBinAddr: 0x100044294, symSize: 0xC }
  - { offsetInCU: 0x1BD7F, offset: 0x4F5056, size: 0x8, addend: 0x0, symName: __ZNK8crashpad18ProcessSnapshotMac7HandlesEv, symObjAddr: 0xB90, symBinAddr: 0x1000442A0, symSize: 0xC }
  - { offsetInCU: 0x1BDA6, offset: 0x4F507D, size: 0x8, addend: 0x0, symName: __ZNK8crashpad18ProcessSnapshotMac7HandlesEv, symObjAddr: 0xB90, symBinAddr: 0x1000442A0, symSize: 0xC }
  - { offsetInCU: 0x1BDC3, offset: 0x4F509A, size: 0x8, addend: 0x0, symName: __ZNK8crashpad18ProcessSnapshotMac7HandlesEv, symObjAddr: 0xB90, symBinAddr: 0x1000442A0, symSize: 0xC }
  - { offsetInCU: 0x1BE1A, offset: 0x4F50F1, size: 0x8, addend: 0x0, symName: __ZNK8crashpad18ProcessSnapshotMac11ExtraMemoryEv, symObjAddr: 0xB9C, symBinAddr: 0x1000442AC, symSize: 0xC }
  - { offsetInCU: 0x1BE41, offset: 0x4F5118, size: 0x8, addend: 0x0, symName: __ZNK8crashpad18ProcessSnapshotMac11ExtraMemoryEv, symObjAddr: 0xB9C, symBinAddr: 0x1000442AC, symSize: 0xC }
  - { offsetInCU: 0x1BE5E, offset: 0x4F5135, size: 0x8, addend: 0x0, symName: __ZNK8crashpad18ProcessSnapshotMac11ExtraMemoryEv, symObjAddr: 0xB9C, symBinAddr: 0x1000442AC, symSize: 0xC }
  - { offsetInCU: 0x1BE92, offset: 0x4F5169, size: 0x8, addend: 0x0, symName: __ZNK8crashpad18ProcessSnapshotMac6MemoryEv, symObjAddr: 0xBA8, symBinAddr: 0x1000442B8, symSize: 0x8 }
  - { offsetInCU: 0x1BEBD, offset: 0x4F5194, size: 0x8, addend: 0x0, symName: __ZNK8crashpad18ProcessSnapshotMac6MemoryEv, symObjAddr: 0xBA8, symBinAddr: 0x1000442B8, symSize: 0x8 }
  - { offsetInCU: 0x1C11F, offset: 0x4F53F6, size: 0x8, addend: 0x0, symName: __ZNKSt3__16vectorINS_10unique_ptrIN8crashpad8internal17ThreadSnapshotMacENS_14default_deleteIS4_EEEENS_9allocatorIS7_EEE20__throw_length_errorB8ue170006Ev, symObjAddr: 0xE0C, symBinAddr: 0x10004444C, symSize: 0x14 }
  - { offsetInCU: 0x1C149, offset: 0x4F5420, size: 0x8, addend: 0x0, symName: __ZNSt3__16vectorINS_10unique_ptrIN8crashpad8internal17ModuleSnapshotMacENS_14default_deleteIS4_EEEENS_9allocatorIS7_EEE21__push_back_slow_pathIS7_EEvOT_, symObjAddr: 0xE20, symBinAddr: 0x100044460, symSize: 0x124 }
  - { offsetInCU: 0x1C333, offset: 0x4F560A, size: 0x8, addend: 0x0, symName: __ZNKSt3__16vectorINS_10unique_ptrIN8crashpad8internal17ModuleSnapshotMacENS_14default_deleteIS4_EEEENS_9allocatorIS7_EEE20__throw_length_errorB8ue170006Ev, symObjAddr: 0xF44, symBinAddr: 0x100044584, symSize: 0x14 }
  - { offsetInCU: 0x26, offset: 0x4F5BF5, size: 0x8, addend: 0x0, symName: __ZN8crashpad13process_types10Annotation12ExpectedSizeEPNS_16ProcessReaderMacE, symObjAddr: 0x0, symBinAddr: 0x100044598, symSize: 0x8 }
  - { offsetInCU: 0x149EB, offset: 0x50A5BA, size: 0x8, addend: 0x0, symName: __ZN8crashpad13process_types10Annotation12ExpectedSizeEPNS_16ProcessReaderMacE, symObjAddr: 0x0, symBinAddr: 0x100044598, symSize: 0x8 }
  - { offsetInCU: 0x14B1C, offset: 0x50A6EB, size: 0x8, addend: 0x0, symName: __ZN8crashpad13process_types10Annotation8ReadIntoEPNS_16ProcessReaderMacEyPS1_, symObjAddr: 0x8, symBinAddr: 0x1000445A0, symSize: 0x60 }
  - { offsetInCU: 0x14CD5, offset: 0x50A8A4, size: 0x8, addend: 0x0, symName: __ZN8crashpad13process_types14AnnotationList12ExpectedSizeEPNS_16ProcessReaderMacE, symObjAddr: 0x68, symBinAddr: 0x100044600, symSize: 0x8 }
  - { offsetInCU: 0x14DCB, offset: 0x50A99A, size: 0x8, addend: 0x0, symName: __ZN8crashpad13process_types14AnnotationList8ReadIntoEPNS_16ProcessReaderMacEyPS1_, symObjAddr: 0x70, symBinAddr: 0x100044608, symSize: 0x70 }
  - { offsetInCU: 0x14F6B, offset: 0x50AB3A, size: 0x8, addend: 0x0, symName: __ZN8crashpad13process_types12CrashpadInfo12ExpectedSizeEPNS_16ProcessReaderMacE, symObjAddr: 0xE0, symBinAddr: 0x100044678, symSize: 0x8 }
  - { offsetInCU: 0x15031, offset: 0x50AC00, size: 0x8, addend: 0x0, symName: __ZN8crashpad13process_types12CrashpadInfo8ReadIntoEPNS_16ProcessReaderMacEyPS1_, symObjAddr: 0xE8, symBinAddr: 0x100044680, symSize: 0x58 }
  - { offsetInCU: 0x1519A, offset: 0x50AD69, size: 0x8, addend: 0x0, symName: __ZN8crashpad13process_types27crashreporter_annotations_t12ExpectedSizeEPNS_16ProcessReaderMacE, symObjAddr: 0x140, symBinAddr: 0x1000446D8, symSize: 0x8 }
  - { offsetInCU: 0x15260, offset: 0x50AE2F, size: 0x8, addend: 0x0, symName: __ZN8crashpad13process_types27crashreporter_annotations_t8ReadIntoEPNS_16ProcessReaderMacEyPS1_, symObjAddr: 0x148, symBinAddr: 0x1000446E0, symSize: 0x48 }
  - { offsetInCU: 0x15376, offset: 0x50AF45, size: 0x8, addend: 0x0, symName: __ZN8crashpad13process_types15dyld_image_info12ExpectedSizeEPNS_16ProcessReaderMacE, symObjAddr: 0x190, symBinAddr: 0x100044728, symSize: 0x8 }
  - { offsetInCU: 0x1545C, offset: 0x50B02B, size: 0x8, addend: 0x0, symName: __ZN8crashpad13process_types15dyld_image_info8ReadIntoEPNS_16ProcessReaderMacEyPS1_, symObjAddr: 0x198, symBinAddr: 0x100044730, symSize: 0x4C }
  - { offsetInCU: 0x15598, offset: 0x50B167, size: 0x8, addend: 0x0, symName: __ZN8crashpad13process_types14dyld_uuid_info12ExpectedSizeEPNS_16ProcessReaderMacE, symObjAddr: 0x1E4, symBinAddr: 0x10004477C, symSize: 0x8 }
  - { offsetInCU: 0x1568E, offset: 0x50B25D, size: 0x8, addend: 0x0, symName: __ZN8crashpad13process_types14dyld_uuid_info8ReadIntoEPNS_16ProcessReaderMacEyPS1_, symObjAddr: 0x1EC, symBinAddr: 0x100044784, symSize: 0x7C }
  - { offsetInCU: 0x1581F, offset: 0x50B3EE, size: 0x8, addend: 0x0, symName: __ZN8crashpad13process_types20dyld_all_image_infos12ExpectedSizeEPNS_16ProcessReaderMacE, symObjAddr: 0x268, symBinAddr: 0x100044800, symSize: 0x8 }
  - { offsetInCU: 0x15844, offset: 0x50B413, size: 0x8, addend: 0x0, symName: __ZN8crashpad13process_types20dyld_all_image_infos8ReadIntoEPNS_16ProcessReaderMacEyPS1_, symObjAddr: 0x270, symBinAddr: 0x100044808, symSize: 0x4 }
  - { offsetInCU: 0x15884, offset: 0x50B453, size: 0x8, addend: 0x0, symName: __ZN8crashpad13process_types20dyld_all_image_infos8ReadIntoEPNS_16ProcessReaderMacEyPS1_, symObjAddr: 0x270, symBinAddr: 0x100044808, symSize: 0x4 }
  - { offsetInCU: 0x158BA, offset: 0x50B489, size: 0x8, addend: 0x0, symName: __ZN8crashpad13process_types20dyld_all_image_infos16ReadIntoInternalINS0_8internal20dyld_all_image_infosINS3_8Traits64EEEEEbPNS_16ProcessReaderMacEyPS1_, symObjAddr: 0x274, symBinAddr: 0x10004480C, symSize: 0x138 }
  - { offsetInCU: 0x15C6D, offset: 0x50B83C, size: 0x8, addend: 0x0, symName: __ZN8crashpad13process_types11mach_header12ExpectedSizeEPNS_16ProcessReaderMacE, symObjAddr: 0x3AC, symBinAddr: 0x100044944, symSize: 0x8 }
  - { offsetInCU: 0x15D53, offset: 0x50B922, size: 0x8, addend: 0x0, symName: __ZN8crashpad13process_types11mach_header8ReadIntoEPNS_16ProcessReaderMacEyPS1_, symObjAddr: 0x3B4, symBinAddr: 0x10004494C, symSize: 0x48 }
  - { offsetInCU: 0x15E98, offset: 0x50BA67, size: 0x8, addend: 0x0, symName: __ZN8crashpad13process_types12load_command12ExpectedSizeEPNS_16ProcessReaderMacE, symObjAddr: 0x3FC, symBinAddr: 0x100044994, symSize: 0x8 }
  - { offsetInCU: 0x15F7E, offset: 0x50BB4D, size: 0x8, addend: 0x0, symName: __ZN8crashpad13process_types12load_command8ReadIntoEPNS_16ProcessReaderMacEyPS1_, symObjAddr: 0x404, symBinAddr: 0x10004499C, symSize: 0x48 }
  - { offsetInCU: 0x160C9, offset: 0x50BC98, size: 0x8, addend: 0x0, symName: __ZN8crashpad13process_types15segment_command12ExpectedSizeEPNS_16ProcessReaderMacE, symObjAddr: 0x44C, symBinAddr: 0x1000449E4, symSize: 0x8 }
  - { offsetInCU: 0x161C5, offset: 0x50BD94, size: 0x8, addend: 0x0, symName: __ZN8crashpad13process_types15segment_command8ReadIntoEPNS_16ProcessReaderMacEyPS1_, symObjAddr: 0x454, symBinAddr: 0x1000449EC, symSize: 0x94 }
  - { offsetInCU: 0x1638B, offset: 0x50BF5A, size: 0x8, addend: 0x0, symName: __ZN8crashpad13process_types13dylib_command12ExpectedSizeEPNS_16ProcessReaderMacE, symObjAddr: 0x4E8, symBinAddr: 0x100044A80, symSize: 0x8 }
  - { offsetInCU: 0x16471, offset: 0x50C040, size: 0x8, addend: 0x0, symName: __ZN8crashpad13process_types13dylib_command8ReadIntoEPNS_16ProcessReaderMacEyPS1_, symObjAddr: 0x4F0, symBinAddr: 0x100044A88, symSize: 0x50 }
  - { offsetInCU: 0x165D6, offset: 0x50C1A5, size: 0x8, addend: 0x0, symName: __ZN8crashpad13process_types16dylinker_command12ExpectedSizeEPNS_16ProcessReaderMacE, symObjAddr: 0x540, symBinAddr: 0x100044AD8, symSize: 0x8 }
  - { offsetInCU: 0x166BC, offset: 0x50C28B, size: 0x8, addend: 0x0, symName: __ZN8crashpad13process_types16dylinker_command8ReadIntoEPNS_16ProcessReaderMacEyPS1_, symObjAddr: 0x548, symBinAddr: 0x100044AE0, symSize: 0x50 }
  - { offsetInCU: 0x16821, offset: 0x50C3F0, size: 0x8, addend: 0x0, symName: __ZN8crashpad13process_types14symtab_command12ExpectedSizeEPNS_16ProcessReaderMacE, symObjAddr: 0x598, symBinAddr: 0x100044B30, symSize: 0x8 }
  - { offsetInCU: 0x16907, offset: 0x50C4D6, size: 0x8, addend: 0x0, symName: __ZN8crashpad13process_types14symtab_command8ReadIntoEPNS_16ProcessReaderMacEyPS1_, symObjAddr: 0x5A0, symBinAddr: 0x100044B38, symSize: 0x50 }
  - { offsetInCU: 0x16A6C, offset: 0x50C63B, size: 0x8, addend: 0x0, symName: __ZN8crashpad13process_types16dysymtab_command12ExpectedSizeEPNS_16ProcessReaderMacE, symObjAddr: 0x5F0, symBinAddr: 0x100044B88, symSize: 0x8 }
  - { offsetInCU: 0x16B52, offset: 0x50C721, size: 0x8, addend: 0x0, symName: __ZN8crashpad13process_types16dysymtab_command8ReadIntoEPNS_16ProcessReaderMacEyPS1_, symObjAddr: 0x5F8, symBinAddr: 0x100044B90, symSize: 0x58 }
  - { offsetInCU: 0x16CD9, offset: 0x50C8A8, size: 0x8, addend: 0x0, symName: __ZN8crashpad13process_types12uuid_command12ExpectedSizeEPNS_16ProcessReaderMacE, symObjAddr: 0x650, symBinAddr: 0x100044BE8, symSize: 0x8 }
  - { offsetInCU: 0x16DBF, offset: 0x50C98E, size: 0x8, addend: 0x0, symName: __ZN8crashpad13process_types12uuid_command8ReadIntoEPNS_16ProcessReaderMacEyPS1_, symObjAddr: 0x658, symBinAddr: 0x100044BF0, symSize: 0x7C }
  - { offsetInCU: 0x16F24, offset: 0x50CAF3, size: 0x8, addend: 0x0, symName: __ZN8crashpad13process_types22source_version_command12ExpectedSizeEPNS_16ProcessReaderMacE, symObjAddr: 0x6D4, symBinAddr: 0x100044C6C, symSize: 0x8 }
  - { offsetInCU: 0x1700A, offset: 0x50CBD9, size: 0x8, addend: 0x0, symName: __ZN8crashpad13process_types22source_version_command8ReadIntoEPNS_16ProcessReaderMacEyPS1_, symObjAddr: 0x6DC, symBinAddr: 0x100044C74, symSize: 0x4C }
  - { offsetInCU: 0x17146, offset: 0x50CD15, size: 0x8, addend: 0x0, symName: __ZN8crashpad13process_types7section12ExpectedSizeEPNS_16ProcessReaderMacE, symObjAddr: 0x728, symBinAddr: 0x100044CC0, symSize: 0x8 }
  - { offsetInCU: 0x1722C, offset: 0x50CDFB, size: 0x8, addend: 0x0, symName: __ZN8crashpad13process_types7section8ReadIntoEPNS_16ProcessReaderMacEyPS1_, symObjAddr: 0x730, symBinAddr: 0x100044CC8, symSize: 0x8C }
  - { offsetInCU: 0x173D0, offset: 0x50CF9F, size: 0x8, addend: 0x0, symName: __ZN8crashpad13process_types5nlist12ExpectedSizeEPNS_16ProcessReaderMacE, symObjAddr: 0x7BC, symBinAddr: 0x100044D54, symSize: 0x8 }
  - { offsetInCU: 0x174B6, offset: 0x50D085, size: 0x8, addend: 0x0, symName: __ZN8crashpad13process_types5nlist8ReadIntoEPNS_16ProcessReaderMacEyPS1_, symObjAddr: 0x7C4, symBinAddr: 0x100044D5C, symSize: 0x4C }
  - { offsetInCU: 0x175FB, offset: 0x50D1CA, size: 0x8, addend: 0x0, symName: __ZN8crashpad13process_types10Annotation13ReadArrayIntoEPNS_16ProcessReaderMacEymPS1_, symObjAddr: 0x810, symBinAddr: 0x100044DA8, symSize: 0x4 }
  - { offsetInCU: 0x17647, offset: 0x50D216, size: 0x8, addend: 0x0, symName: __ZN8crashpad13process_types10Annotation13ReadArrayIntoEPNS_16ProcessReaderMacEymPS1_, symObjAddr: 0x810, symBinAddr: 0x100044DA8, symSize: 0x4 }
  - { offsetInCU: 0x1766E, offset: 0x50D23D, size: 0x8, addend: 0x0, symName: __ZN8crashpad13process_types10Annotation21ReadArrayIntoInternalINS0_8internal10AnnotationINS3_8Traits64EEEEEbPNS_16ProcessReaderMacEymPS1_, symObjAddr: 0x814, symBinAddr: 0x100044DAC, symSize: 0xF4 }
  - { offsetInCU: 0x17AB3, offset: 0x50D682, size: 0x8, addend: 0x0, symName: __ZN8crashpad13process_types15dyld_image_info13ReadArrayIntoEPNS_16ProcessReaderMacEymPS1_, symObjAddr: 0x908, symBinAddr: 0x100044EA0, symSize: 0x4 }
  - { offsetInCU: 0x17AFF, offset: 0x50D6CE, size: 0x8, addend: 0x0, symName: __ZN8crashpad13process_types15dyld_image_info13ReadArrayIntoEPNS_16ProcessReaderMacEymPS1_, symObjAddr: 0x908, symBinAddr: 0x100044EA0, symSize: 0x4 }
  - { offsetInCU: 0x17B26, offset: 0x50D6F5, size: 0x8, addend: 0x0, symName: __ZN8crashpad13process_types15dyld_image_info21ReadArrayIntoInternalINS0_8internal15dyld_image_infoINS3_8Traits64EEEEEbPNS_16ProcessReaderMacEymPS1_, symObjAddr: 0x90C, symBinAddr: 0x100044EA4, symSize: 0x1A0 }
  - { offsetInCU: 0x180D9, offset: 0x50DCA8, size: 0x8, addend: 0x0, symName: __ZN8crashpad13process_types14dyld_uuid_info13ReadArrayIntoEPNS_16ProcessReaderMacEymPS1_, symObjAddr: 0xAAC, symBinAddr: 0x100045044, symSize: 0xE8 }
  - { offsetInCU: 0x183A8, offset: 0x50DF77, size: 0x8, addend: 0x0, symName: __ZN8crashpad13process_types11mach_header13ReadArrayIntoEPNS_16ProcessReaderMacEymPS1_, symObjAddr: 0xB94, symBinAddr: 0x10004512C, symSize: 0x4 }
  - { offsetInCU: 0x183F4, offset: 0x50DFC3, size: 0x8, addend: 0x0, symName: __ZN8crashpad13process_types11mach_header13ReadArrayIntoEPNS_16ProcessReaderMacEymPS1_, symObjAddr: 0xB94, symBinAddr: 0x10004512C, symSize: 0x4 }
  - { offsetInCU: 0x1841B, offset: 0x50DFEA, size: 0x8, addend: 0x0, symName: __ZN8crashpad13process_types11mach_header21ReadArrayIntoInternalINS0_8internal11mach_headerINS3_8Traits64EEEEEbPNS_16ProcessReaderMacEymPS1_, symObjAddr: 0xB98, symBinAddr: 0x100045130, symSize: 0xE0 }
  - { offsetInCU: 0x189CD, offset: 0x50E59C, size: 0x8, addend: 0x0, symName: __ZN8crashpad13process_types12load_command13ReadArrayIntoEPNS_16ProcessReaderMacEymPS1_, symObjAddr: 0xC78, symBinAddr: 0x100045210, symSize: 0xDC }
  - { offsetInCU: 0x18C7C, offset: 0x50E84B, size: 0x8, addend: 0x0, symName: __ZN8crashpad13process_types15segment_command13ReadArrayIntoEPNS_16ProcessReaderMacEymPS1_, symObjAddr: 0xD54, symBinAddr: 0x1000452EC, symSize: 0x4 }
  - { offsetInCU: 0x18CC8, offset: 0x50E897, size: 0x8, addend: 0x0, symName: __ZN8crashpad13process_types15segment_command13ReadArrayIntoEPNS_16ProcessReaderMacEymPS1_, symObjAddr: 0xD54, symBinAddr: 0x1000452EC, symSize: 0x4 }
  - { offsetInCU: 0x18CEF, offset: 0x50E8BE, size: 0x8, addend: 0x0, symName: __ZN8crashpad13process_types15segment_command21ReadArrayIntoInternalINS0_8internal15segment_commandINS3_8Traits64EEEEEbPNS_16ProcessReaderMacEymPS1_, symObjAddr: 0xD58, symBinAddr: 0x1000452F0, symSize: 0xF4 }
  - { offsetInCU: 0x1911A, offset: 0x50ECE9, size: 0x8, addend: 0x0, symName: __ZN8crashpad13process_types13dylib_command13ReadArrayIntoEPNS_16ProcessReaderMacEymPS1_, symObjAddr: 0xE4C, symBinAddr: 0x1000453E4, symSize: 0x4 }
  - { offsetInCU: 0x19166, offset: 0x50ED35, size: 0x8, addend: 0x0, symName: __ZN8crashpad13process_types13dylib_command13ReadArrayIntoEPNS_16ProcessReaderMacEymPS1_, symObjAddr: 0xE4C, symBinAddr: 0x1000453E4, symSize: 0x4 }
  - { offsetInCU: 0x1918D, offset: 0x50ED5C, size: 0x8, addend: 0x0, symName: __ZN8crashpad13process_types13dylib_command21ReadArrayIntoInternalINS0_8internal13dylib_commandINS3_8Traits64EEEEEbPNS_16ProcessReaderMacEymPS1_, symObjAddr: 0xE50, symBinAddr: 0x1000453E8, symSize: 0xE8 }
  - { offsetInCU: 0x1959A, offset: 0x50F169, size: 0x8, addend: 0x0, symName: __ZN8crashpad13process_types16dylinker_command13ReadArrayIntoEPNS_16ProcessReaderMacEymPS1_, symObjAddr: 0xF38, symBinAddr: 0x1000454D0, symSize: 0x4 }
  - { offsetInCU: 0x195E6, offset: 0x50F1B5, size: 0x8, addend: 0x0, symName: __ZN8crashpad13process_types16dylinker_command13ReadArrayIntoEPNS_16ProcessReaderMacEymPS1_, symObjAddr: 0xF38, symBinAddr: 0x1000454D0, symSize: 0x4 }
  - { offsetInCU: 0x1960D, offset: 0x50F1DC, size: 0x8, addend: 0x0, symName: __ZN8crashpad13process_types16dylinker_command21ReadArrayIntoInternalINS0_8internal16dylinker_commandINS3_8Traits64EEEEEbPNS_16ProcessReaderMacEymPS1_, symObjAddr: 0xF3C, symBinAddr: 0x1000454D4, symSize: 0xE8 }
  - { offsetInCU: 0x19A1A, offset: 0x50F5E9, size: 0x8, addend: 0x0, symName: __ZN8crashpad13process_types14symtab_command13ReadArrayIntoEPNS_16ProcessReaderMacEymPS1_, symObjAddr: 0x1024, symBinAddr: 0x1000455BC, symSize: 0x4 }
  - { offsetInCU: 0x19A66, offset: 0x50F635, size: 0x8, addend: 0x0, symName: __ZN8crashpad13process_types14symtab_command13ReadArrayIntoEPNS_16ProcessReaderMacEymPS1_, symObjAddr: 0x1024, symBinAddr: 0x1000455BC, symSize: 0x4 }
  - { offsetInCU: 0x19A8D, offset: 0x50F65C, size: 0x8, addend: 0x0, symName: __ZN8crashpad13process_types14symtab_command21ReadArrayIntoInternalINS0_8internal14symtab_commandINS3_8Traits64EEEEEbPNS_16ProcessReaderMacEymPS1_, symObjAddr: 0x1028, symBinAddr: 0x1000455C0, symSize: 0xE8 }
  - { offsetInCU: 0x19E9A, offset: 0x50FA69, size: 0x8, addend: 0x0, symName: __ZN8crashpad13process_types16dysymtab_command13ReadArrayIntoEPNS_16ProcessReaderMacEymPS1_, symObjAddr: 0x1110, symBinAddr: 0x1000456A8, symSize: 0x4 }
  - { offsetInCU: 0x19EE6, offset: 0x50FAB5, size: 0x8, addend: 0x0, symName: __ZN8crashpad13process_types16dysymtab_command13ReadArrayIntoEPNS_16ProcessReaderMacEymPS1_, symObjAddr: 0x1110, symBinAddr: 0x1000456A8, symSize: 0x4 }
  - { offsetInCU: 0x19F0D, offset: 0x50FADC, size: 0x8, addend: 0x0, symName: __ZN8crashpad13process_types16dysymtab_command21ReadArrayIntoInternalINS0_8internal16dysymtab_commandINS3_8Traits64EEEEEbPNS_16ProcessReaderMacEymPS1_, symObjAddr: 0x1114, symBinAddr: 0x1000456AC, symSize: 0xF8 }
  - { offsetInCU: 0x1A4F3, offset: 0x5100C2, size: 0x8, addend: 0x0, symName: __ZN8crashpad13process_types12uuid_command13ReadArrayIntoEPNS_16ProcessReaderMacEymPS1_, symObjAddr: 0x120C, symBinAddr: 0x1000457A4, symSize: 0xE8 }
  - { offsetInCU: 0x1A7C2, offset: 0x510391, size: 0x8, addend: 0x0, symName: __ZN8crashpad13process_types22source_version_command13ReadArrayIntoEPNS_16ProcessReaderMacEymPS1_, symObjAddr: 0x12F4, symBinAddr: 0x10004588C, symSize: 0x4 }
  - { offsetInCU: 0x1A80E, offset: 0x5103DD, size: 0x8, addend: 0x0, symName: __ZN8crashpad13process_types22source_version_command13ReadArrayIntoEPNS_16ProcessReaderMacEymPS1_, symObjAddr: 0x12F4, symBinAddr: 0x10004588C, symSize: 0x4 }
  - { offsetInCU: 0x1A835, offset: 0x510404, size: 0x8, addend: 0x0, symName: __ZN8crashpad13process_types22source_version_command21ReadArrayIntoInternalINS0_8internal22source_version_commandINS3_8Traits64EEEEEbPNS_16ProcessReaderMacEymPS1_, symObjAddr: 0x12F8, symBinAddr: 0x100045890, symSize: 0xDC }
  - { offsetInCU: 0x1AC1F, offset: 0x5107EE, size: 0x8, addend: 0x0, symName: __ZN8crashpad13process_types7section13ReadArrayIntoEPNS_16ProcessReaderMacEymPS1_, symObjAddr: 0x13D4, symBinAddr: 0x10004596C, symSize: 0x4 }
  - { offsetInCU: 0x1AC6B, offset: 0x51083A, size: 0x8, addend: 0x0, symName: __ZN8crashpad13process_types7section13ReadArrayIntoEPNS_16ProcessReaderMacEymPS1_, symObjAddr: 0x13D4, symBinAddr: 0x10004596C, symSize: 0x4 }
  - { offsetInCU: 0x1AC92, offset: 0x510861, size: 0x8, addend: 0x0, symName: __ZN8crashpad13process_types7section21ReadArrayIntoInternalINS0_8internal7sectionINS3_8Traits64EEEEEbPNS_16ProcessReaderMacEymPS1_, symObjAddr: 0x13D8, symBinAddr: 0x100045970, symSize: 0xF8 }
  - { offsetInCU: 0x1B0BD, offset: 0x510C8C, size: 0x8, addend: 0x0, symName: __ZN8crashpad13process_types5nlist13ReadArrayIntoEPNS_16ProcessReaderMacEymPS1_, symObjAddr: 0x14D0, symBinAddr: 0x100045A68, symSize: 0x4 }
  - { offsetInCU: 0x1B109, offset: 0x510CD8, size: 0x8, addend: 0x0, symName: __ZN8crashpad13process_types5nlist13ReadArrayIntoEPNS_16ProcessReaderMacEymPS1_, symObjAddr: 0x14D0, symBinAddr: 0x100045A68, symSize: 0x4 }
  - { offsetInCU: 0x1B130, offset: 0x510CFF, size: 0x8, addend: 0x0, symName: __ZN8crashpad13process_types5nlist21ReadArrayIntoInternalINS0_8internal5nlistINS3_8Traits64EEEEEbPNS_16ProcessReaderMacEymPS1_, symObjAddr: 0x14D4, symBinAddr: 0x100045A6C, symSize: 0xDC }
  - { offsetInCU: 0x1B521, offset: 0x5110F0, size: 0x8, addend: 0x0, symName: __ZN8crashpad13process_types27crashreporter_annotations_t22ExpectedSizeForVersionEPNS_16ProcessReaderMacEy, symObjAddr: 0x15B0, symBinAddr: 0x100045B48, symSize: 0x8 }
  - { offsetInCU: 0x1B556, offset: 0x511125, size: 0x8, addend: 0x0, symName: __ZN8crashpad13process_types20dyld_all_image_infos22ExpectedSizeForVersionEPNS_16ProcessReaderMacEj, symObjAddr: 0x15B8, symBinAddr: 0x100045B50, symSize: 0x8 }
  - { offsetInCU: 0x1B595, offset: 0x511164, size: 0x8, addend: 0x0, symName: __ZN8crashpad13process_types8internal12CrashpadInfoINS1_8Traits32EE11MinimumSizeEv, symObjAddr: 0x15C0, symBinAddr: 0x100045B58, symSize: 0x8 }
  - { offsetInCU: 0x1B5A9, offset: 0x511178, size: 0x8, addend: 0x0, symName: __ZN8crashpad13process_types8internal12CrashpadInfoINS1_8Traits64EE11MinimumSizeEv, symObjAddr: 0x15C8, symBinAddr: 0x100045B60, symSize: 0x8 }
  - { offsetInCU: 0x1B5BD, offset: 0x51118C, size: 0x8, addend: 0x0, symName: __ZN8crashpad13process_types12CrashpadInfo11MinimumSizeEPNS_16ProcessReaderMacE, symObjAddr: 0x15D0, symBinAddr: 0x100045B68, symSize: 0x8 }
  - { offsetInCU: 0x83A3, offset: 0x519553, size: 0x8, addend: 0x0, symName: __ZN8crashpad13process_types8internal20dyld_all_image_infosINS1_8Traits32EE22ExpectedSizeForVersionEj, symObjAddr: 0x0, symBinAddr: 0x100045B70, symSize: 0x60 }
  - { offsetInCU: 0x83C3, offset: 0x519573, size: 0x8, addend: 0x0, symName: __ZZN8crashpad13process_types8internal20dyld_all_image_infosINS1_8Traits32EE22ExpectedSizeForVersionEjE15kSizeForVersion, symObjAddr: 0xD98, symBinAddr: 0x10007C740, symSize: 0x0 }
  - { offsetInCU: 0x841F, offset: 0x5195CF, size: 0x8, addend: 0x0, symName: __ZN8crashpad13process_types8internal20dyld_all_image_infosINS1_8Traits64EE22ExpectedSizeForVersionEj, symObjAddr: 0x568, symBinAddr: 0x1000460D8, symSize: 0x60 }
  - { offsetInCU: 0x843F, offset: 0x5195EF, size: 0x8, addend: 0x0, symName: __ZZN8crashpad13process_types8internal20dyld_all_image_infosINS1_8Traits64EE22ExpectedSizeForVersionEjE15kSizeForVersion, symObjAddr: 0xE30, symBinAddr: 0x10007C7D8, symSize: 0x0 }
  - { offsetInCU: 0xA940, offset: 0x51BAF0, size: 0x8, addend: 0x0, symName: __ZN8crashpad13process_types8internal20dyld_all_image_infosINS1_8Traits32EE8ReadIntoEPNS_16ProcessReaderMacEyPS4_, symObjAddr: 0x60, symBinAddr: 0x100045BD0, symSize: 0x1B8 }
  - { offsetInCU: 0xAE4F, offset: 0x51BFFF, size: 0x8, addend: 0x0, symName: __ZN8crashpad13process_types8internal27crashreporter_annotations_tINS1_8Traits32EE22ExpectedSizeForVersionEy, symObjAddr: 0x218, symBinAddr: 0x100045D88, symSize: 0x1C }
  - { offsetInCU: 0xAE83, offset: 0x51C033, size: 0x8, addend: 0x0, symName: __ZN8crashpad13process_types8internal27crashreporter_annotations_tINS1_8Traits32EE8ReadIntoEPNS_16ProcessReaderMacEyPS4_, symObjAddr: 0x234, symBinAddr: 0x100045DA4, symSize: 0x168 }
  - { offsetInCU: 0xB361, offset: 0x51C511, size: 0x8, addend: 0x0, symName: __ZN8crashpad13process_types8internal12CrashpadInfoINS1_8Traits32EE8ReadIntoEPNS_16ProcessReaderMacEyPS4_, symObjAddr: 0x39C, symBinAddr: 0x100045F0C, symSize: 0x1CC }
  - { offsetInCU: 0xB893, offset: 0x51CA43, size: 0x8, addend: 0x0, symName: __ZN8crashpad13process_types8internal20dyld_all_image_infosINS1_8Traits64EE8ReadIntoEPNS_16ProcessReaderMacEyPS4_, symObjAddr: 0x5C8, symBinAddr: 0x100046138, symSize: 0xE4 }
  - { offsetInCU: 0xB9E5, offset: 0x51CB95, size: 0x8, addend: 0x0, symName: __ZN8crashpad13process_types8internal27crashreporter_annotations_tINS1_8Traits64EE22ExpectedSizeForVersionEy, symObjAddr: 0x6AC, symBinAddr: 0x10004621C, symSize: 0x1C }
  - { offsetInCU: 0xBA19, offset: 0x51CBC9, size: 0x8, addend: 0x0, symName: __ZN8crashpad13process_types8internal27crashreporter_annotations_tINS1_8Traits64EE8ReadIntoEPNS_16ProcessReaderMacEyPS4_, symObjAddr: 0x6C8, symBinAddr: 0x100046238, symSize: 0xA0 }
  - { offsetInCU: 0xBB4A, offset: 0x51CCFA, size: 0x8, addend: 0x0, symName: __ZN8crashpad13process_types8internal12CrashpadInfoINS1_8Traits64EE8ReadIntoEPNS_16ProcessReaderMacEyPS4_, symObjAddr: 0x768, symBinAddr: 0x1000462D8, symSize: 0x1BC }
  - { offsetInCU: 0x78A2, offset: 0x524ECC, size: 0x8, addend: 0x0, symName: __ZN8crashpad12_GLOBAL__N_119ReadIntSysctlByNameIiEET_PKcS2_, symObjAddr: 0xBF4, symBinAddr: 0x100046CFC, symSize: 0xE8 }
  - { offsetInCU: 0x7A4D, offset: 0x525077, size: 0x8, addend: 0x0, symName: __ZN8crashpad12_GLOBAL__N_119CastIntSysctlByNameIhEET_PKcS2_, symObjAddr: 0x4A4, symBinAddr: 0x100046938, symSize: 0xB0 }
  - { offsetInCU: 0xA37E, offset: 0x5279A8, size: 0x8, addend: 0x0, symName: __ZN8crashpad8internal17SystemSnapshotMacC2Ev, symObjAddr: 0x0, symBinAddr: 0x100046494, symSize: 0x28 }
  - { offsetInCU: 0xA422, offset: 0x527A4C, size: 0x8, addend: 0x0, symName: __ZN8crashpad8internal17SystemSnapshotMacC1Ev, symObjAddr: 0x28, symBinAddr: 0x1000464BC, symSize: 0x28 }
  - { offsetInCU: 0xA44F, offset: 0x527A79, size: 0x8, addend: 0x0, symName: __ZN8crashpad8internal17SystemSnapshotMacC1Ev, symObjAddr: 0x28, symBinAddr: 0x1000464BC, symSize: 0x28 }
  - { offsetInCU: 0xA597, offset: 0x527BC1, size: 0x8, addend: 0x0, symName: __ZN8crashpad8internal17SystemSnapshotMacD2Ev, symObjAddr: 0x50, symBinAddr: 0x1000464E4, symSize: 0x58 }
  - { offsetInCU: 0xA81E, offset: 0x527E48, size: 0x8, addend: 0x0, symName: __ZN8crashpad8internal17SystemSnapshotMacD1Ev, symObjAddr: 0xA8, symBinAddr: 0x10004653C, symSize: 0x58 }
  - { offsetInCU: 0xAABD, offset: 0x5280E7, size: 0x8, addend: 0x0, symName: __ZN8crashpad8internal17SystemSnapshotMacD0Ev, symObjAddr: 0x100, symBinAddr: 0x100046594, symSize: 0x58 }
  - { offsetInCU: 0xAEC5, offset: 0x5284EF, size: 0x8, addend: 0x0, symName: __ZN8crashpad8internal17SystemSnapshotMac10InitializeEPNS_16ProcessReaderMacEPK7timeval, symObjAddr: 0x158, symBinAddr: 0x1000465EC, symSize: 0x268 }
  - { offsetInCU: 0xB91F, offset: 0x528F49, size: 0x8, addend: 0x0, symName: __ZNK8crashpad8internal17SystemSnapshotMac18GetCPUArchitectureEv, symObjAddr: 0x3C0, symBinAddr: 0x100046854, symSize: 0x8 }
  - { offsetInCU: 0xB944, offset: 0x528F6E, size: 0x8, addend: 0x0, symName: __ZNK8crashpad8internal17SystemSnapshotMac11CPURevisionEv, symObjAddr: 0x3C8, symBinAddr: 0x10004685C, symSize: 0xCC }
  - { offsetInCU: 0xBA69, offset: 0x529093, size: 0x8, addend: 0x0, symName: __ZNK8crashpad8internal17SystemSnapshotMac8CPUCountEv, symObjAddr: 0x494, symBinAddr: 0x100046928, symSize: 0x10 }
  - { offsetInCU: 0xBAA1, offset: 0x5290CB, size: 0x8, addend: 0x0, symName: __ZNK8crashpad8internal17SystemSnapshotMac9CPUVendorEv, symObjAddr: 0x554, symBinAddr: 0x1000469E8, symSize: 0x10 }
  - { offsetInCU: 0xBAE0, offset: 0x52910A, size: 0x8, addend: 0x0, symName: __ZNK8crashpad8internal17SystemSnapshotMac12CPUFrequencyEPyS2_, symObjAddr: 0x564, symBinAddr: 0x1000469F8, symSize: 0xC }
  - { offsetInCU: 0xBB1F, offset: 0x529149, size: 0x8, addend: 0x0, symName: __ZNK8crashpad8internal17SystemSnapshotMac15CPUX86SignatureEv, symObjAddr: 0x570, symBinAddr: 0x100046A04, symSize: 0x8 }
  - { offsetInCU: 0xBB44, offset: 0x52916E, size: 0x8, addend: 0x0, symName: __ZNK8crashpad8internal17SystemSnapshotMac14CPUX86FeaturesEv, symObjAddr: 0x578, symBinAddr: 0x100046A0C, symSize: 0x8 }
  - { offsetInCU: 0xBB69, offset: 0x529193, size: 0x8, addend: 0x0, symName: __ZNK8crashpad8internal17SystemSnapshotMac22CPUX86ExtendedFeaturesEv, symObjAddr: 0x580, symBinAddr: 0x100046A14, symSize: 0x8 }
  - { offsetInCU: 0xBB8E, offset: 0x5291B8, size: 0x8, addend: 0x0, symName: __ZNK8crashpad8internal17SystemSnapshotMac19CPUX86Leaf7FeaturesEv, symObjAddr: 0x588, symBinAddr: 0x100046A1C, symSize: 0x8 }
  - { offsetInCU: 0xBBB3, offset: 0x5291DD, size: 0x8, addend: 0x0, symName: __ZNK8crashpad8internal17SystemSnapshotMac17CPUX86SupportsDAZEv, symObjAddr: 0x590, symBinAddr: 0x100046A24, symSize: 0x8 }
  - { offsetInCU: 0xBBD9, offset: 0x529203, size: 0x8, addend: 0x0, symName: __ZNK8crashpad8internal17SystemSnapshotMac18GetOperatingSystemEv, symObjAddr: 0x598, symBinAddr: 0x100046A2C, symSize: 0x8 }
  - { offsetInCU: 0xBBFF, offset: 0x529229, size: 0x8, addend: 0x0, symName: __ZNK8crashpad8internal17SystemSnapshotMac8OSServerEv, symObjAddr: 0x5A0, symBinAddr: 0x100046A34, symSize: 0x8 }
  - { offsetInCU: 0xBC48, offset: 0x529272, size: 0x8, addend: 0x0, symName: __ZNK8crashpad8internal17SystemSnapshotMac9OSVersionEPiS2_S2_PNSt3__112basic_stringIcNS3_11char_traitsIcEENS3_9allocatorIcEEEE, symObjAddr: 0x5A8, symBinAddr: 0x100046A3C, symSize: 0x24 }
  - { offsetInCU: 0xBEBA, offset: 0x5294E4, size: 0x8, addend: 0x0, symName: __ZNK8crashpad8internal17SystemSnapshotMac13OSVersionFullEv, symObjAddr: 0x5CC, symBinAddr: 0x100046A60, symSize: 0xA4 }
  - { offsetInCU: 0xC299, offset: 0x5298C3, size: 0x8, addend: 0x0, symName: __ZNK8crashpad8internal17SystemSnapshotMac18MachineDescriptionEv, symObjAddr: 0x670, symBinAddr: 0x100046B04, symSize: 0x174 }
  - { offsetInCU: 0xC333, offset: 0x52995D, size: 0x8, addend: 0x0, symName: __ZNK8crashpad8internal17SystemSnapshotMac18MachineDescriptionEv, symObjAddr: 0x670, symBinAddr: 0x100046B04, symSize: 0x174 }
  - { offsetInCU: 0xCBAE, offset: 0x52A1D8, size: 0x8, addend: 0x0, symName: __ZNK8crashpad8internal17SystemSnapshotMac9NXEnabledEv, symObjAddr: 0x7E4, symBinAddr: 0x100046C78, symSize: 0x4C }
  - { offsetInCU: 0xCC6A, offset: 0x52A294, size: 0x8, addend: 0x0, symName: __ZNK8crashpad8internal17SystemSnapshotMac8TimeZoneEPNS_14SystemSnapshot24DaylightSavingTimeStatusEPiS5_PNSt3__112basic_stringIcNS6_11char_traitsIcEENS6_9allocatorIcEEEESD_, symObjAddr: 0x830, symBinAddr: 0x100046CC4, symSize: 0x8 }
  - { offsetInCU: 0xCD16, offset: 0x52A340, size: 0x8, addend: 0x0, symName: __ZNK8crashpad8internal17SystemSnapshotMac11AddressMaskEv, symObjAddr: 0x838, symBinAddr: 0x100046CCC, symSize: 0x30 }
  - { offsetInCU: 0xBA2F, offset: 0x53617D, size: 0x8, addend: 0x0, symName: __ZN8crashpad8internal17ThreadSnapshotMacC2Ev, symObjAddr: 0x0, symBinAddr: 0x100046DE4, symSize: 0x54 }
  - { offsetInCU: 0xBAB5, offset: 0x536203, size: 0x8, addend: 0x0, symName: __ZN8crashpad8internal17ThreadSnapshotMacC1Ev, symObjAddr: 0x54, symBinAddr: 0x100046E38, symSize: 0x54 }
  - { offsetInCU: 0xBC11, offset: 0x53635F, size: 0x8, addend: 0x0, symName: __ZN8crashpad8internal17ThreadSnapshotMacD2Ev, symObjAddr: 0xA8, symBinAddr: 0x100046E8C, symSize: 0x40 }
  - { offsetInCU: 0xBD60, offset: 0x5364AE, size: 0x8, addend: 0x0, symName: __ZN8crashpad8internal21MemorySnapshotGenericD1Ev, symObjAddr: 0xE8, symBinAddr: 0x100046ECC, symSize: 0x4 }
  - { offsetInCU: 0xBDA5, offset: 0x5364F3, size: 0x8, addend: 0x0, symName: __ZN8crashpad8internal17ThreadSnapshotMacD1Ev, symObjAddr: 0xEC, symBinAddr: 0x100046ED0, symSize: 0x40 }
  - { offsetInCU: 0xBF28, offset: 0x536676, size: 0x8, addend: 0x0, symName: __ZN8crashpad8internal17ThreadSnapshotMacD0Ev, symObjAddr: 0x12C, symBinAddr: 0x100046F10, symSize: 0x40 }
  - { offsetInCU: 0xC103, offset: 0x536851, size: 0x8, addend: 0x0, symName: __ZN8crashpad8internal17ThreadSnapshotMac10InitializeEPNS_16ProcessReaderMacERKNS2_6ThreadE, symObjAddr: 0x16C, symBinAddr: 0x100046F50, symSize: 0xA0 }
  - { offsetInCU: 0xC1E1, offset: 0x53692F, size: 0x8, addend: 0x0, symName: __ZNK8crashpad8internal17ThreadSnapshotMac7ContextEv, symObjAddr: 0x20C, symBinAddr: 0x100046FF0, symSize: 0x8 }
  - { offsetInCU: 0xC20A, offset: 0x536958, size: 0x8, addend: 0x0, symName: __ZNK8crashpad8internal17ThreadSnapshotMac5StackEv, symObjAddr: 0x214, symBinAddr: 0x100046FF8, symSize: 0x8 }
  - { offsetInCU: 0xC233, offset: 0x536981, size: 0x8, addend: 0x0, symName: __ZNK8crashpad8internal17ThreadSnapshotMac8ThreadIDEv, symObjAddr: 0x21C, symBinAddr: 0x100047000, symSize: 0x8 }
  - { offsetInCU: 0xC453, offset: 0x536BA1, size: 0x8, addend: 0x0, symName: __ZNK8crashpad8internal17ThreadSnapshotMac10ThreadNameEv, symObjAddr: 0x224, symBinAddr: 0x100047008, symSize: 0xA8 }
  - { offsetInCU: 0xC852, offset: 0x536FA0, size: 0x8, addend: 0x0, symName: __ZNK8crashpad8internal17ThreadSnapshotMac12SuspendCountEv, symObjAddr: 0x2CC, symBinAddr: 0x1000470B0, symSize: 0x8 }
  - { offsetInCU: 0xC888, offset: 0x536FD6, size: 0x8, addend: 0x0, symName: __ZNK8crashpad8internal17ThreadSnapshotMac12SuspendCountEv, symObjAddr: 0x2CC, symBinAddr: 0x1000470B0, symSize: 0x8 }
  - { offsetInCU: 0xC8B1, offset: 0x536FFF, size: 0x8, addend: 0x0, symName: __ZNK8crashpad8internal17ThreadSnapshotMac8PriorityEv, symObjAddr: 0x2D4, symBinAddr: 0x1000470B8, symSize: 0x8 }
  - { offsetInCU: 0xC8DA, offset: 0x537028, size: 0x8, addend: 0x0, symName: __ZNK8crashpad8internal17ThreadSnapshotMac25ThreadSpecificDataAddressEv, symObjAddr: 0x2DC, symBinAddr: 0x1000470C0, symSize: 0x8 }
  - { offsetInCU: 0xC93C, offset: 0x53708A, size: 0x8, addend: 0x0, symName: __ZNK8crashpad8internal17ThreadSnapshotMac11ExtraMemoryEv, symObjAddr: 0x2E4, symBinAddr: 0x1000470C8, symSize: 0xC }
  - { offsetInCU: 0xC963, offset: 0x5370B1, size: 0x8, addend: 0x0, symName: __ZNK8crashpad8internal17ThreadSnapshotMac11ExtraMemoryEv, symObjAddr: 0x2E4, symBinAddr: 0x1000470C8, symSize: 0xC }
  - { offsetInCU: 0xC980, offset: 0x5370CE, size: 0x8, addend: 0x0, symName: __ZNK8crashpad8internal17ThreadSnapshotMac11ExtraMemoryEv, symObjAddr: 0x2E4, symBinAddr: 0x1000470C8, symSize: 0xC }
  - { offsetInCU: 0xC99E, offset: 0x5370EC, size: 0x8, addend: 0x0, symName: __ZN8crashpad8internal21MemorySnapshotGenericD0Ev, symObjAddr: 0x2F0, symBinAddr: 0x1000470D4, symSize: 0x4 }
  - { offsetInCU: 0xC9C7, offset: 0x537115, size: 0x8, addend: 0x0, symName: __ZNK8crashpad8internal21MemorySnapshotGeneric7AddressEv, symObjAddr: 0x2F4, symBinAddr: 0x1000470D8, symSize: 0x8 }
  - { offsetInCU: 0xC9EE, offset: 0x53713C, size: 0x8, addend: 0x0, symName: __ZNK8crashpad8internal21MemorySnapshotGeneric4SizeEv, symObjAddr: 0x2FC, symBinAddr: 0x1000470E0, symSize: 0x8 }
  - { offsetInCU: 0xCB70, offset: 0x5372BE, size: 0x8, addend: 0x0, symName: __ZNK8crashpad8internal21MemorySnapshotGeneric4ReadEPNS_14MemorySnapshot8DelegateE, symObjAddr: 0x304, symBinAddr: 0x1000470E8, symSize: 0xB8 }
  - { offsetInCU: 0xCEA2, offset: 0x5375F0, size: 0x8, addend: 0x0, symName: __ZNK8crashpad8internal21MemorySnapshotGeneric22MergeWithOtherSnapshotEPKNS_14MemorySnapshotE, symObjAddr: 0x3BC, symBinAddr: 0x1000471A0, symSize: 0xD8 }
  - { offsetInCU: 0x26, offset: 0x537B94, size: 0x8, addend: 0x0, symName: __ZN8crashpad11ToolSupport7VersionERKN4base8FilePathE, symObjAddr: 0x0, symBinAddr: 0x100047278, symSize: 0x64 }
  - { offsetInCU: 0x530D, offset: 0x53CE7B, size: 0x8, addend: 0x0, symName: __ZN8crashpad11ToolSupport7VersionERKN4base8FilePathE, symObjAddr: 0x0, symBinAddr: 0x100047278, symSize: 0x64 }
  - { offsetInCU: 0x53A7, offset: 0x53CF15, size: 0x8, addend: 0x0, symName: __ZN8crashpad11ToolSupport9UsageTailERKN4base8FilePathE, symObjAddr: 0x64, symBinAddr: 0x1000472DC, symSize: 0x64 }
  - { offsetInCU: 0x5441, offset: 0x53CFAF, size: 0x8, addend: 0x0, symName: __ZN8crashpad11ToolSupport9UsageHintERKN4base8FilePathEPKc, symObjAddr: 0xC8, symBinAddr: 0x100047340, symSize: 0x78 }
  - { offsetInCU: 0x5575, offset: 0x53D0E3, size: 0x8, addend: 0x0, symName: __ZN8crashpad11ToolSupport7VersionERKNSt3__112basic_stringIcNS1_11char_traitsIcEENS1_9allocatorIcEEEE, symObjAddr: 0x140, symBinAddr: 0x1000473B8, symSize: 0x80 }
  - { offsetInCU: 0x5654, offset: 0x53D1C2, size: 0x8, addend: 0x0, symName: __ZN8crashpad11ToolSupport9UsageTailERKNSt3__112basic_stringIcNS1_11char_traitsIcEENS1_9allocatorIcEEEE, symObjAddr: 0x1C0, symBinAddr: 0x100047438, symSize: 0x80 }
  - { offsetInCU: 0x573E, offset: 0x53D2AC, size: 0x8, addend: 0x0, symName: __ZN8crashpad11ToolSupport9UsageHintERKNSt3__112basic_stringIcNS1_11char_traitsIcEENS1_9allocatorIcEEEEPKc, symObjAddr: 0x240, symBinAddr: 0x1000474B8, symSize: 0x98 }
  - { offsetInCU: 0x5AD0, offset: 0x53D63E, size: 0x8, addend: 0x0, symName: __ZN8crashpad11ToolSupport39CommandLineArgumentToFilePathStringTypeERKN4base16BasicStringPieceINSt3__112basic_stringIcNS3_11char_traitsIcEENS3_9allocatorIcEEEEEE, symObjAddr: 0x2D8, symBinAddr: 0x100047550, symSize: 0x98 }
  - { offsetInCU: 0x5E7A, offset: 0x53D9E8, size: 0x8, addend: 0x0, symName: __ZN8crashpad11ToolSupport29FilePathToCommandLineArgumentERKN4base8FilePathE, symObjAddr: 0x370, symBinAddr: 0x1000475E8, symSize: 0xA0 }
  - { offsetInCU: 0x5F62, offset: 0x53DAD0, size: 0x8, addend: 0x0, symName: __ZN8crashpad11ToolSupport29FilePathToCommandLineArgumentERKN4base8FilePathE, symObjAddr: 0x370, symBinAddr: 0x1000475E8, symSize: 0xA0 }
  - { offsetInCU: 0x26, offset: 0x53DF6E, size: 0x8, addend: 0x0, symName: __ZN8crashpad15CopyFileContentEPNS_19FileReaderInterfaceEPNS_19FileWriterInterfaceE, symObjAddr: 0x0, symBinAddr: 0x100047688, symSize: 0xB0 }
  - { offsetInCU: 0x2943, offset: 0x54088B, size: 0x8, addend: 0x0, symName: __ZN8crashpad15CopyFileContentEPNS_19FileReaderInterfaceEPNS_19FileWriterInterfaceE, symObjAddr: 0x0, symBinAddr: 0x100047688, symSize: 0xB0 }
  - { offsetInCU: 0x1D9, offset: 0x540B10, size: 0x8, addend: 0x0, symName: __ZN7logging17MakeCheckOpStringIliEEPNSt3__112basic_stringIcNS1_11char_traitsIcEENS1_9allocatorIcEEEERKT_RKT0_PKc, symObjAddr: 0xCD0, symBinAddr: 0x100048040, symSize: 0x2A0 }
  - { offsetInCU: 0xA9D, offset: 0x5413D4, size: 0x8, addend: 0x0, symName: __ZN8crashpad8internalL24kNativeWriteFunctionNameE, symObjAddr: 0x14CA, symBinAddr: 0x10007C8EC, symSize: 0x0 }
  - { offsetInCU: 0xAB7, offset: 0x5413EE, size: 0x8, addend: 0x0, symName: __ZN8crashpad8internalL23kNativeReadFunctionNameE, symObjAddr: 0x14D0, symBinAddr: 0x10007C8F2, symSize: 0x0 }
  - { offsetInCU: 0xD82, offset: 0x5416B9, size: 0x8, addend: 0x0, symName: __ZN8crashpad15ReadFileExactlyEiPvm, symObjAddr: 0x174, symBinAddr: 0x1000478AC, symSize: 0xA8 }
  - { offsetInCU: 0xEB6, offset: 0x5417ED, size: 0x8, addend: 0x0, symName: __ZN8crashpad22LoggingReadFileExactlyEiPvm, symObjAddr: 0x21C, symBinAddr: 0x100047954, symSize: 0x34 }
  - { offsetInCU: 0xF66, offset: 0x54189D, size: 0x8, addend: 0x0, symName: __ZN8crashpad9WriteFileEiPKvm, symObjAddr: 0x250, symBinAddr: 0x100047988, symSize: 0x68 }
  - { offsetInCU: 0x1097, offset: 0x5419CE, size: 0x8, addend: 0x0, symName: __ZN8crashpad16LoggingWriteFileEiPKvm, symObjAddr: 0x2B8, symBinAddr: 0x1000479F0, symSize: 0xCC }
  - { offsetInCU: 0x1275, offset: 0x541BAC, size: 0x8, addend: 0x0, symName: __ZN8crashpad22CheckedReadFileExactlyEiPvm, symObjAddr: 0x384, symBinAddr: 0x100047ABC, symSize: 0xA4 }
  - { offsetInCU: 0x1410, offset: 0x541D47, size: 0x8, addend: 0x0, symName: __ZN8crashpad16CheckedWriteFileEiPKvm, symObjAddr: 0x428, symBinAddr: 0x100047B60, symSize: 0x8C }
  - { offsetInCU: 0x151E, offset: 0x541E55, size: 0x8, addend: 0x0, symName: __ZN8crashpad20CheckedReadFileAtEOFEi, symObjAddr: 0x4B4, symBinAddr: 0x100047BEC, symSize: 0x134 }
  - { offsetInCU: 0x1750, offset: 0x542087, size: 0x8, addend: 0x0, symName: __ZN8crashpad16LoggingReadToEOFEiPNSt3__112basic_stringIcNS0_11char_traitsIcEENS0_9allocatorIcEEEE, symObjAddr: 0x5E8, symBinAddr: 0x100047D20, symSize: 0x16C }
  - { offsetInCU: 0x1B7A, offset: 0x5424B1, size: 0x8, addend: 0x0, symName: __ZN8crashpad21LoggingReadEntireFileERKN4base8FilePathEPNSt3__112basic_stringIcNS4_11char_traitsIcEENS4_9allocatorIcEEEE, symObjAddr: 0x754, symBinAddr: 0x100047E8C, symSize: 0x80 }
  - { offsetInCU: 0x1CEE, offset: 0x542625, size: 0x8, addend: 0x0, symName: __ZN8crashpad16CheckedCloseFileEi, symObjAddr: 0x810, symBinAddr: 0x100047F0C, symSize: 0x8C }
  - { offsetInCU: 0x8F5D, offset: 0x549894, size: 0x8, addend: 0x0, symName: __ZN8crashpad8internal19ReadExactlyInternal11ReadExactlyEPvmb, symObjAddr: 0x0, symBinAddr: 0x100047738, symSize: 0x118 }
  - { offsetInCU: 0x90AE, offset: 0x5499E5, size: 0x8, addend: 0x0, symName: __ZN8crashpad8internal16WriteAllInternal8WriteAllEPKvm, symObjAddr: 0x118, symBinAddr: 0x100047850, symSize: 0x5C }
  - { offsetInCU: 0x9539, offset: 0x549E70, size: 0x8, addend: 0x0, symName: __ZN8crashpad12_GLOBAL__N_117FileIOReadExactly4ReadEPvmb, symObjAddr: 0x89C, symBinAddr: 0x100047F98, symSize: 0xA0 }
  - { offsetInCU: 0x9632, offset: 0x549F69, size: 0x8, addend: 0x0, symName: __ZN8crashpad12_GLOBAL__N_114FileIOWriteAll5WriteEPKvm, symObjAddr: 0x93C, symBinAddr: 0x100048038, symSize: 0x8 }
  - { offsetInCU: 0x1E0, offset: 0x54AAA0, size: 0x8, addend: 0x0, symName: __ZN8crashpad8internalL23kNativeReadFunctionNameE, symObjAddr: 0xC24, symBinAddr: 0x10007C99F, symSize: 0x0 }
  - { offsetInCU: 0x739E, offset: 0x551C5E, size: 0x8, addend: 0x0, symName: __ZN8crashpad19FileReaderInterface11ReadExactlyEPvm, symObjAddr: 0x0, symBinAddr: 0x1000482E0, symSize: 0x30 }
  - { offsetInCU: 0x7468, offset: 0x551D28, size: 0x8, addend: 0x0, symName: __ZN8crashpad24WeakFileHandleFileReaderC2Ei, symObjAddr: 0x30, symBinAddr: 0x100048310, symSize: 0x30 }
  - { offsetInCU: 0x74AE, offset: 0x551D6E, size: 0x8, addend: 0x0, symName: __ZN8crashpad24WeakFileHandleFileReaderC2Ei, symObjAddr: 0x30, symBinAddr: 0x100048310, symSize: 0x30 }
  - { offsetInCU: 0x74D4, offset: 0x551D94, size: 0x8, addend: 0x0, symName: __ZN8crashpad24WeakFileHandleFileReaderC1Ei, symObjAddr: 0x60, symBinAddr: 0x100048340, symSize: 0x14 }
  - { offsetInCU: 0x74FD, offset: 0x551DBD, size: 0x8, addend: 0x0, symName: __ZN8crashpad24WeakFileHandleFileReaderD2Ev, symObjAddr: 0x74, symBinAddr: 0x100048354, symSize: 0x4 }
  - { offsetInCU: 0x7534, offset: 0x551DF4, size: 0x8, addend: 0x0, symName: __ZN8crashpad24WeakFileHandleFileReaderD1Ev, symObjAddr: 0x78, symBinAddr: 0x100048358, symSize: 0x4 }
  - { offsetInCU: 0x755F, offset: 0x551E1F, size: 0x8, addend: 0x0, symName: __ZN8crashpad24WeakFileHandleFileReaderD0Ev, symObjAddr: 0x7C, symBinAddr: 0x10004835C, symSize: 0x4 }
  - { offsetInCU: 0x7644, offset: 0x551F04, size: 0x8, addend: 0x0, symName: __ZN8crashpad24WeakFileHandleFileReader4ReadEPvm, symObjAddr: 0x80, symBinAddr: 0x100048360, symSize: 0xA4 }
  - { offsetInCU: 0x774D, offset: 0x55200D, size: 0x8, addend: 0x0, symName: __ZN8crashpad24WeakFileHandleFileReader4SeekExi, symObjAddr: 0x124, symBinAddr: 0x100048404, symSize: 0x8 }
  - { offsetInCU: 0x77CF, offset: 0x55208F, size: 0x8, addend: 0x0, symName: __ZTv0_n24_N8crashpad24WeakFileHandleFileReader4SeekExi, symObjAddr: 0x12C, symBinAddr: 0x10004840C, symSize: 0x14 }
  - { offsetInCU: 0x792A, offset: 0x5521EA, size: 0x8, addend: 0x0, symName: __ZN8crashpad10FileReaderC2Ev, symObjAddr: 0x140, symBinAddr: 0x100048420, symSize: 0x44 }
  - { offsetInCU: 0x7963, offset: 0x552223, size: 0x8, addend: 0x0, symName: __ZN8crashpad10FileReaderC2Ev, symObjAddr: 0x140, symBinAddr: 0x100048420, symSize: 0x44 }
  - { offsetInCU: 0x7A30, offset: 0x5522F0, size: 0x8, addend: 0x0, symName: __ZN8crashpad10FileReaderC1Ev, symObjAddr: 0x184, symBinAddr: 0x100048464, symSize: 0x28 }
  - { offsetInCU: 0x7B4C, offset: 0x55240C, size: 0x8, addend: 0x0, symName: __ZN8crashpad10FileReaderD2Ev, symObjAddr: 0x1AC, symBinAddr: 0x10004848C, symSize: 0x50 }
  - { offsetInCU: 0x7BF4, offset: 0x5524B4, size: 0x8, addend: 0x0, symName: __ZN8crashpad10FileReaderD1Ev, symObjAddr: 0x1FC, symBinAddr: 0x1000484DC, symSize: 0x48 }
  - { offsetInCU: 0x7C9B, offset: 0x55255B, size: 0x8, addend: 0x0, symName: __ZN8crashpad10FileReaderD0Ev, symObjAddr: 0x244, symBinAddr: 0x100048524, symSize: 0x40 }
  - { offsetInCU: 0x7DA5, offset: 0x552665, size: 0x8, addend: 0x0, symName: __ZN8crashpad10FileReader4OpenERKN4base8FilePathE, symObjAddr: 0x284, symBinAddr: 0x100048564, symSize: 0xE8 }
  - { offsetInCU: 0x7F22, offset: 0x5527E2, size: 0x8, addend: 0x0, symName: __ZN8crashpad10FileReader5CloseEv, symObjAddr: 0x36C, symBinAddr: 0x10004864C, symSize: 0xD0 }
  - { offsetInCU: 0x805F, offset: 0x55291F, size: 0x8, addend: 0x0, symName: __ZN8crashpad10FileReader4ReadEPvm, symObjAddr: 0x43C, symBinAddr: 0x10004871C, symSize: 0x8 }
  - { offsetInCU: 0x80BE, offset: 0x55297E, size: 0x8, addend: 0x0, symName: __ZN8crashpad10FileReader4SeekExi, symObjAddr: 0x444, symBinAddr: 0x100048724, symSize: 0x8 }
  - { offsetInCU: 0x80F3, offset: 0x5529B3, size: 0x8, addend: 0x0, symName: __ZN8crashpad10FileReader4SeekExi, symObjAddr: 0x444, symBinAddr: 0x100048724, symSize: 0x8 }
  - { offsetInCU: 0x816B, offset: 0x552A2B, size: 0x8, addend: 0x0, symName: __ZTv0_n24_N8crashpad10FileReader4SeekExi, symObjAddr: 0x44C, symBinAddr: 0x10004872C, symSize: 0x14 }
  - { offsetInCU: 0x81FB, offset: 0x552ABB, size: 0x8, addend: 0x0, symName: __ZN8crashpad19FileReaderInterfaceD1Ev, symObjAddr: 0x460, symBinAddr: 0x100066200, symSize: 0x4 }
  - { offsetInCU: 0x8224, offset: 0x552AE4, size: 0x8, addend: 0x0, symName: __ZN8crashpad19FileReaderInterfaceD0Ev, symObjAddr: 0x464, symBinAddr: 0x100066204, symSize: 0x4 }
  - { offsetInCU: 0x824D, offset: 0x552B0D, size: 0x8, addend: 0x0, symName: __ZN8crashpad12_GLOBAL__N_121FileReaderReadExactly4ReadEPvmb, symObjAddr: 0x468, symBinAddr: 0x100048740, symSize: 0x10 }
  - { offsetInCU: 0x6EC7, offset: 0x559F73, size: 0x8, addend: 0x0, symName: __ZN8crashpad19FileSeekerInterface7SeekGetEv, symObjAddr: 0x0, symBinAddr: 0x100048750, symSize: 0x14 }
  - { offsetInCU: 0x6FB5, offset: 0x55A061, size: 0x8, addend: 0x0, symName: __ZN8crashpad19FileSeekerInterface7SeekSetEx, symObjAddr: 0x14, symBinAddr: 0x100048764, symSize: 0xDC }
  - { offsetInCU: 0x7D4E, offset: 0x5623F3, size: 0x8, addend: 0x0, symName: __ZN8crashpad24WeakFileHandleFileWriterC2Ei, symObjAddr: 0x0, symBinAddr: 0x100048840, symSize: 0x30 }
  - { offsetInCU: 0x7D94, offset: 0x562439, size: 0x8, addend: 0x0, symName: __ZN8crashpad24WeakFileHandleFileWriterC2Ei, symObjAddr: 0x0, symBinAddr: 0x100048840, symSize: 0x30 }
  - { offsetInCU: 0x7DBA, offset: 0x56245F, size: 0x8, addend: 0x0, symName: __ZN8crashpad24WeakFileHandleFileWriterC1Ei, symObjAddr: 0x30, symBinAddr: 0x100048870, symSize: 0x14 }
  - { offsetInCU: 0x7DE3, offset: 0x562488, size: 0x8, addend: 0x0, symName: __ZN8crashpad24WeakFileHandleFileWriterD2Ev, symObjAddr: 0x44, symBinAddr: 0x100048884, symSize: 0x4 }
  - { offsetInCU: 0x7E1A, offset: 0x5624BF, size: 0x8, addend: 0x0, symName: __ZN8crashpad24WeakFileHandleFileWriterD1Ev, symObjAddr: 0x48, symBinAddr: 0x100048888, symSize: 0x4 }
  - { offsetInCU: 0x7E45, offset: 0x5624EA, size: 0x8, addend: 0x0, symName: __ZN8crashpad24WeakFileHandleFileWriterD0Ev, symObjAddr: 0x4C, symBinAddr: 0x10004888C, symSize: 0x4 }
  - { offsetInCU: 0x7E70, offset: 0x562515, size: 0x8, addend: 0x0, symName: __ZN8crashpad24WeakFileHandleFileWriter5WriteEPKvm, symObjAddr: 0x50, symBinAddr: 0x100048890, symSize: 0x8 }
  - { offsetInCU: 0x800C, offset: 0x5626B1, size: 0x8, addend: 0x0, symName: __ZN8crashpad24WeakFileHandleFileWriter10WriteIoVecEPNSt3__16vectorINS_13WritableIoVecENS1_9allocatorIS3_EEEE, symObjAddr: 0x58, symBinAddr: 0x100048898, symSize: 0x2A4 }
  - { offsetInCU: 0x8349, offset: 0x5629EE, size: 0x8, addend: 0x0, symName: __ZN8crashpad24WeakFileHandleFileWriter4SeekExi, symObjAddr: 0x2FC, symBinAddr: 0x100048B3C, symSize: 0x8 }
  - { offsetInCU: 0x83CB, offset: 0x562A70, size: 0x8, addend: 0x0, symName: __ZTv0_n24_N8crashpad24WeakFileHandleFileWriter4SeekExi, symObjAddr: 0x304, symBinAddr: 0x100048B44, symSize: 0x14 }
  - { offsetInCU: 0x8741, offset: 0x562DE6, size: 0x8, addend: 0x0, symName: __ZN8crashpad10FileWriterC2Ev, symObjAddr: 0x318, symBinAddr: 0x100048B58, symSize: 0x44 }
  - { offsetInCU: 0x877A, offset: 0x562E1F, size: 0x8, addend: 0x0, symName: __ZN8crashpad10FileWriterC2Ev, symObjAddr: 0x318, symBinAddr: 0x100048B58, symSize: 0x44 }
  - { offsetInCU: 0x8847, offset: 0x562EEC, size: 0x8, addend: 0x0, symName: __ZN8crashpad10FileWriterC1Ev, symObjAddr: 0x35C, symBinAddr: 0x100048B9C, symSize: 0x28 }
  - { offsetInCU: 0x8963, offset: 0x563008, size: 0x8, addend: 0x0, symName: __ZN8crashpad10FileWriterD2Ev, symObjAddr: 0x384, symBinAddr: 0x100048BC4, symSize: 0x50 }
  - { offsetInCU: 0x8A0B, offset: 0x5630B0, size: 0x8, addend: 0x0, symName: __ZN8crashpad10FileWriterD1Ev, symObjAddr: 0x3D4, symBinAddr: 0x100048C14, symSize: 0x48 }
  - { offsetInCU: 0x8AB2, offset: 0x563157, size: 0x8, addend: 0x0, symName: __ZN8crashpad10FileWriterD0Ev, symObjAddr: 0x41C, symBinAddr: 0x100048C5C, symSize: 0x40 }
  - { offsetInCU: 0x8BBC, offset: 0x563261, size: 0x8, addend: 0x0, symName: __ZN8crashpad10FileWriter4OpenERKN4base8FilePathENS_13FileWriteModeENS_15FilePermissionsE, symObjAddr: 0x45C, symBinAddr: 0x100048C9C, symSize: 0x100 }
  - { offsetInCU: 0x8D65, offset: 0x56340A, size: 0x8, addend: 0x0, symName: __ZN8crashpad10FileWriter5CloseEv, symObjAddr: 0x55C, symBinAddr: 0x100048D9C, symSize: 0xD0 }
  - { offsetInCU: 0x8ED0, offset: 0x563575, size: 0x8, addend: 0x0, symName: __ZN8crashpad10FileWriter5WriteEPKvm, symObjAddr: 0x62C, symBinAddr: 0x100048E6C, symSize: 0x8 }
  - { offsetInCU: 0x8F15, offset: 0x5635BA, size: 0x8, addend: 0x0, symName: __ZN8crashpad10FileWriter5WriteEPKvm, symObjAddr: 0x62C, symBinAddr: 0x100048E6C, symSize: 0x8 }
  - { offsetInCU: 0x8F5F, offset: 0x563604, size: 0x8, addend: 0x0, symName: __ZN8crashpad10FileWriter10WriteIoVecEPNSt3__16vectorINS_13WritableIoVecENS1_9allocatorIS3_EEEE, symObjAddr: 0x634, symBinAddr: 0x100048E74, symSize: 0x8 }
  - { offsetInCU: 0x8FAA, offset: 0x56364F, size: 0x8, addend: 0x0, symName: __ZN8crashpad10FileWriter4SeekExi, symObjAddr: 0x63C, symBinAddr: 0x100048E7C, symSize: 0x8 }
  - { offsetInCU: 0x8FDF, offset: 0x563684, size: 0x8, addend: 0x0, symName: __ZN8crashpad10FileWriter4SeekExi, symObjAddr: 0x63C, symBinAddr: 0x100048E7C, symSize: 0x8 }
  - { offsetInCU: 0x9057, offset: 0x5636FC, size: 0x8, addend: 0x0, symName: __ZTv0_n24_N8crashpad10FileWriter4SeekExi, symObjAddr: 0x644, symBinAddr: 0x100048E84, symSize: 0x14 }
  - { offsetInCU: 0x90E7, offset: 0x56378C, size: 0x8, addend: 0x0, symName: __ZN8crashpad19FileWriterInterfaceD1Ev, symObjAddr: 0x658, symBinAddr: 0x100066208, symSize: 0x4 }
  - { offsetInCU: 0x9110, offset: 0x5637B5, size: 0x8, addend: 0x0, symName: __ZN8crashpad19FileWriterInterfaceD0Ev, symObjAddr: 0x65C, symBinAddr: 0x10006620C, symSize: 0x4 }
  - { offsetInCU: 0x26, offset: 0x563D47, size: 0x8, addend: 0x0, symName: __ZN8crashpad22ScopedRemoveFileTraits4FreeERKN4base8FilePathE, symObjAddr: 0x0, symBinAddr: 0x100048E98, symSize: 0x4 }
  - { offsetInCU: 0x4ADE, offset: 0x5687FF, size: 0x8, addend: 0x0, symName: __ZN8crashpad22ScopedRemoveFileTraits4FreeERKN4base8FilePathE, symObjAddr: 0x0, symBinAddr: 0x100048E98, symSize: 0x4 }
  - { offsetInCU: 0x4B05, offset: 0x568826, size: 0x8, addend: 0x0, symName: __ZN8crashpad22ScopedRemoveFileTraits4FreeERKN4base8FilePathE, symObjAddr: 0x0, symBinAddr: 0x100048E98, symSize: 0x4 }
  - { offsetInCU: 0x26, offset: 0x56885E, size: 0x8, addend: 0x0, symName: __ZN4base18UmaHistogramSparseERKNSt3__112basic_stringIcNS0_11char_traitsIcEENS0_9allocatorIcEEEEi, symObjAddr: 0x0, symBinAddr: 0x100048E9C, symSize: 0x4 }
  - { offsetInCU: 0x2A67, offset: 0x56B29F, size: 0x8, addend: 0x0, symName: __ZN4base18UmaHistogramSparseERKNSt3__112basic_stringIcNS0_11char_traitsIcEENS0_9allocatorIcEEEEi, symObjAddr: 0x0, symBinAddr: 0x100048E9C, symSize: 0x4 }
  - { offsetInCU: 0x4917, offset: 0x56D14F, size: 0x8, addend: 0x0, symName: __ZN8crashpad7Metrics18CrashReportPendingENS0_19PendingReportReasonE, symObjAddr: 0x4, symBinAddr: 0x100048EA0, symSize: 0x4 }
  - { offsetInCU: 0x493B, offset: 0x56D173, size: 0x8, addend: 0x0, symName: __ZN8crashpad7Metrics15CrashReportSizeEx, symObjAddr: 0x8, symBinAddr: 0x100048EA4, symSize: 0x4 }
  - { offsetInCU: 0x495F, offset: 0x56D197, size: 0x8, addend: 0x0, symName: __ZN8crashpad7Metrics20CrashUploadAttemptedEb, symObjAddr: 0xC, symBinAddr: 0x100048EA8, symSize: 0x4 }
  - { offsetInCU: 0x4988, offset: 0x56D1C0, size: 0x8, addend: 0x0, symName: __ZN8crashpad7Metrics20CrashUploadErrorCodeEi, symObjAddr: 0x10, symBinAddr: 0x100048EAC, symSize: 0x4 }
  - { offsetInCU: 0x49AC, offset: 0x56D1E4, size: 0x8, addend: 0x0, symName: __ZN8crashpad7Metrics18CrashUploadSkippedENS0_18CrashSkippedReasonE, symObjAddr: 0x14, symBinAddr: 0x100048EB0, symSize: 0x4 }
  - { offsetInCU: 0x49D0, offset: 0x56D208, size: 0x8, addend: 0x0, symName: __ZN8crashpad7Metrics22ExceptionCaptureResultENS0_13CaptureResultE, symObjAddr: 0x18, symBinAddr: 0x100048EB4, symSize: 0x4 }
  - { offsetInCU: 0x49F4, offset: 0x56D22C, size: 0x8, addend: 0x0, symName: __ZN8crashpad7Metrics13ExceptionCodeEj, symObjAddr: 0x1C, symBinAddr: 0x100048EB8, symSize: 0x4 }
  - { offsetInCU: 0x4A18, offset: 0x56D250, size: 0x8, addend: 0x0, symName: __ZN8crashpad7Metrics20ExceptionEncounteredEv, symObjAddr: 0x20, symBinAddr: 0x100048EBC, symSize: 0x4 }
  - { offsetInCU: 0x4A2E, offset: 0x56D266, size: 0x8, addend: 0x0, symName: __ZN8crashpad7Metrics24HandlerLifetimeMilestoneENS0_17LifetimeMilestoneE, symObjAddr: 0x24, symBinAddr: 0x100048EC0, symSize: 0x4 }
  - { offsetInCU: 0x4A52, offset: 0x56D28A, size: 0x8, addend: 0x0, symName: __ZN8crashpad7Metrics14HandlerCrashedEj, symObjAddr: 0x28, symBinAddr: 0x100048EC4, symSize: 0x4 }
  - { offsetInCU: 0x26, offset: 0x56D2D4, size: 0x8, addend: 0x0, symName: __ZN8crashpad12RandomStringEv, symObjAddr: 0x0, symBinAddr: 0x100048EC8, symSize: 0x200 }
  - { offsetInCU: 0x4A81, offset: 0x571D2F, size: 0x8, addend: 0x0, symName: __ZN8crashpad12RandomStringEv, symObjAddr: 0x0, symBinAddr: 0x100048EC8, symSize: 0x200 }
  - { offsetInCU: 0x6F70, offset: 0x579036, size: 0x8, addend: 0x0, symName: __ZN8crashpad18ScopedForbidReturnD2Ev, symObjAddr: 0x0, symBinAddr: 0x1000490C8, symSize: 0x7C }
  - { offsetInCU: 0x7016, offset: 0x5790DC, size: 0x8, addend: 0x0, symName: __ZN8crashpad18ScopedForbidReturnD1Ev, symObjAddr: 0x88, symBinAddr: 0x100049144, symSize: 0x7C }
  - { offsetInCU: 0x26, offset: 0x5796E1, size: 0x8, addend: 0x0, symName: __ZNK8crashpad4UUIDeqERKS0_, symObjAddr: 0x0, symBinAddr: 0x1000491C0, symSize: 0x20 }
  - { offsetInCU: 0x40D7, offset: 0x57D792, size: 0x8, addend: 0x0, symName: __ZN8crashpad4UUID20InitializeFromStringERKN4base16BasicStringPieceINSt3__112basic_stringIcNS3_11char_traitsIcEENS3_9allocatorIcEEEEEE, symObjAddr: 0xBC, symBinAddr: 0x10004927C, symSize: 0xAC }
  - { offsetInCU: 0x40FD, offset: 0x57D7B8, size: 0x8, addend: 0x0, symName: __ZZN8crashpad4UUID20InitializeFromStringERKN4base16BasicStringPieceINSt3__112basic_stringIcNS3_11char_traitsIcEENS3_9allocatorIcEEEEEEE11kScanFormat, symObjAddr: 0x270, symBinAddr: 0x10007CAB4, symSize: 0x0 }
  - { offsetInCU: 0x5FCA, offset: 0x57F685, size: 0x8, addend: 0x0, symName: __ZNK8crashpad4UUIDeqERKS0_, symObjAddr: 0x0, symBinAddr: 0x1000491C0, symSize: 0x20 }
  - { offsetInCU: 0x6000, offset: 0x57F6BB, size: 0x8, addend: 0x0, symName: __ZNK8crashpad4UUIDltERKS0_, symObjAddr: 0x20, symBinAddr: 0x1000491E0, symSize: 0x4C }
  - { offsetInCU: 0x6036, offset: 0x57F6F1, size: 0x8, addend: 0x0, symName: __ZN8crashpad4UUID16InitializeToZeroEv, symObjAddr: 0x6C, symBinAddr: 0x10004922C, symSize: 0x8 }
  - { offsetInCU: 0x61CD, offset: 0x57F888, size: 0x8, addend: 0x0, symName: __ZN8crashpad4UUID19InitializeFromBytesEPKh, symObjAddr: 0x74, symBinAddr: 0x100049234, symSize: 0x48 }
  - { offsetInCU: 0x6200, offset: 0x57F8BB, size: 0x8, addend: 0x0, symName: __ZN8crashpad4UUID19InitializeFromBytesEPKh, symObjAddr: 0x74, symBinAddr: 0x100049234, symSize: 0x48 }
  - { offsetInCU: 0x621D, offset: 0x57F8D8, size: 0x8, addend: 0x0, symName: __ZN8crashpad4UUID19InitializeFromBytesEPKh, symObjAddr: 0x74, symBinAddr: 0x100049234, symSize: 0x48 }
  - { offsetInCU: 0x6665, offset: 0x57FD20, size: 0x8, addend: 0x0, symName: __ZN8crashpad4UUID17InitializeWithNewEv, symObjAddr: 0x168, symBinAddr: 0x100049328, symSize: 0xA0 }
  - { offsetInCU: 0x6A4D, offset: 0x580108, size: 0x8, addend: 0x0, symName: __ZNK8crashpad4UUID8ToStringEv, symObjAddr: 0x208, symBinAddr: 0x1000493C8, symSize: 0x68 }
  - { offsetInCU: 0x26, offset: 0x580172, size: 0x8, addend: 0x0, symName: __ZN8crashpad29ZlibWindowBitsWithGzipWrapperEi, symObjAddr: 0x0, symBinAddr: 0x100049430, symSize: 0x8 }
  - { offsetInCU: 0x4805, offset: 0x584951, size: 0x8, addend: 0x0, symName: __ZN8crashpad29ZlibWindowBitsWithGzipWrapperEi, symObjAddr: 0x0, symBinAddr: 0x100049430, symSize: 0x8 }
  - { offsetInCU: 0x4834, offset: 0x584980, size: 0x8, addend: 0x0, symName: __ZN8crashpad15ZlibErrorStringEi, symObjAddr: 0x8, symBinAddr: 0x100049438, symSize: 0x40 }
  - { offsetInCU: 0x26, offset: 0x584AE0, size: 0x8, addend: 0x0, symName: __ZN8crashpad20StringHTTPBodyStreamC2ERKNSt3__112basic_stringIcNS1_11char_traitsIcEENS1_9allocatorIcEEEE, symObjAddr: 0x0, symBinAddr: 0x100049478, symSize: 0xB4 }
  - { offsetInCU: 0x6970, offset: 0x58B42A, size: 0x8, addend: 0x0, symName: __ZN8crashpad20StringHTTPBodyStreamC2ERKNSt3__112basic_stringIcNS1_11char_traitsIcEENS1_9allocatorIcEEEE, symObjAddr: 0x0, symBinAddr: 0x100049478, symSize: 0xB4 }
  - { offsetInCU: 0x6D5B, offset: 0x58B815, size: 0x8, addend: 0x0, symName: __ZN8crashpad20StringHTTPBodyStreamC1ERKNSt3__112basic_stringIcNS1_11char_traitsIcEENS1_9allocatorIcEEEE, symObjAddr: 0xB4, symBinAddr: 0x10004952C, symSize: 0xB4 }
  - { offsetInCU: 0x6DB5, offset: 0x58B86F, size: 0x8, addend: 0x0, symName: __ZN8crashpad20StringHTTPBodyStreamC1ERKNSt3__112basic_stringIcNS1_11char_traitsIcEENS1_9allocatorIcEEEE, symObjAddr: 0xB4, symBinAddr: 0x10004952C, symSize: 0xB4 }
  - { offsetInCU: 0x71D1, offset: 0x58BC8B, size: 0x8, addend: 0x0, symName: __ZN8crashpad20StringHTTPBodyStreamD2Ev, symObjAddr: 0x168, symBinAddr: 0x1000495E0, symSize: 0x4C }
  - { offsetInCU: 0x7280, offset: 0x58BD3A, size: 0x8, addend: 0x0, symName: __ZN8crashpad20StringHTTPBodyStreamD2Ev, symObjAddr: 0x168, symBinAddr: 0x1000495E0, symSize: 0x4C }
  - { offsetInCU: 0x73E7, offset: 0x58BEA1, size: 0x8, addend: 0x0, symName: __ZN8crashpad20StringHTTPBodyStreamD1Ev, symObjAddr: 0x1B4, symBinAddr: 0x10004962C, symSize: 0x4C }
  - { offsetInCU: 0x7567, offset: 0x58C021, size: 0x8, addend: 0x0, symName: __ZN8crashpad20StringHTTPBodyStreamD0Ev, symObjAddr: 0x200, symBinAddr: 0x100049678, symSize: 0x4C }
  - { offsetInCU: 0x77D0, offset: 0x58C28A, size: 0x8, addend: 0x0, symName: __ZN8crashpad20StringHTTPBodyStream14GetBytesBufferEPhm, symObjAddr: 0x24C, symBinAddr: 0x1000496C4, symSize: 0xA0 }
  - { offsetInCU: 0x795A, offset: 0x58C414, size: 0x8, addend: 0x0, symName: __ZN8crashpad24FileReaderHTTPBodyStreamC2EPNS_19FileReaderInterfaceE, symObjAddr: 0x2EC, symBinAddr: 0x100049764, symSize: 0x14 }
  - { offsetInCU: 0x79AF, offset: 0x58C469, size: 0x8, addend: 0x0, symName: __ZN8crashpad24FileReaderHTTPBodyStreamC1EPNS_19FileReaderInterfaceE, symObjAddr: 0x300, symBinAddr: 0x100049778, symSize: 0x14 }
  - { offsetInCU: 0x79EA, offset: 0x58C4A4, size: 0x8, addend: 0x0, symName: __ZN8crashpad24FileReaderHTTPBodyStreamC1EPNS_19FileReaderInterfaceE, symObjAddr: 0x300, symBinAddr: 0x100049778, symSize: 0x14 }
  - { offsetInCU: 0x7A0D, offset: 0x58C4C7, size: 0x8, addend: 0x0, symName: __ZN8crashpad24FileReaderHTTPBodyStreamD2Ev, symObjAddr: 0x314, symBinAddr: 0x10004978C, symSize: 0x4 }
  - { offsetInCU: 0x7A38, offset: 0x58C4F2, size: 0x8, addend: 0x0, symName: __ZN8crashpad24FileReaderHTTPBodyStreamD1Ev, symObjAddr: 0x318, symBinAddr: 0x100049790, symSize: 0x4 }
  - { offsetInCU: 0x7A63, offset: 0x58C51D, size: 0x8, addend: 0x0, symName: __ZN8crashpad24FileReaderHTTPBodyStreamD0Ev, symObjAddr: 0x31C, symBinAddr: 0x100049794, symSize: 0x4 }
  - { offsetInCU: 0x7A8E, offset: 0x58C548, size: 0x8, addend: 0x0, symName: __ZN8crashpad24FileReaderHTTPBodyStream14GetBytesBufferEPhm, symObjAddr: 0x320, symBinAddr: 0x100049798, symSize: 0x50 }
  - { offsetInCU: 0x7E49, offset: 0x58C903, size: 0x8, addend: 0x0, symName: __ZN8crashpad23CompositeHTTPBodyStreamC2ERKNSt3__16vectorIPNS_14HTTPBodyStreamENS1_9allocatorIS4_EEEE, symObjAddr: 0x370, symBinAddr: 0x1000497E8, symSize: 0xB8 }
  - { offsetInCU: 0x8305, offset: 0x58CDBF, size: 0x8, addend: 0x0, symName: __ZNKSt3__16vectorIPN8crashpad14HTTPBodyStreamENS_9allocatorIS3_EEE20__throw_length_errorB8ue170006Ev, symObjAddr: 0x79C, symBinAddr: 0x100049B8C, symSize: 0x14 }
  - { offsetInCU: 0x8366, offset: 0x58CE20, size: 0x8, addend: 0x0, symName: __ZN8crashpad23CompositeHTTPBodyStreamC1ERKNSt3__16vectorIPNS_14HTTPBodyStreamENS1_9allocatorIS4_EEEE, symObjAddr: 0x428, symBinAddr: 0x1000498A0, symSize: 0xB8 }
  - { offsetInCU: 0x88B9, offset: 0x58D373, size: 0x8, addend: 0x0, symName: __ZN8crashpad23CompositeHTTPBodyStreamD2Ev, symObjAddr: 0x4E0, symBinAddr: 0x100049958, symSize: 0x80 }
  - { offsetInCU: 0x8AE6, offset: 0x58D5A0, size: 0x8, addend: 0x0, symName: __ZN8crashpad23CompositeHTTPBodyStreamD1Ev, symObjAddr: 0x560, symBinAddr: 0x1000499D8, symSize: 0x80 }
  - { offsetInCU: 0x8CF6, offset: 0x58D7B0, size: 0x8, addend: 0x0, symName: __ZN8crashpad23CompositeHTTPBodyStreamD0Ev, symObjAddr: 0x5E0, symBinAddr: 0x100049A58, symSize: 0x80 }
  - { offsetInCU: 0x8F44, offset: 0x58D9FE, size: 0x8, addend: 0x0, symName: __ZN8crashpad23CompositeHTTPBodyStream14GetBytesBufferEPhm, symObjAddr: 0x660, symBinAddr: 0x100049AD8, symSize: 0xB4 }
  - { offsetInCU: 0x7B9F, offset: 0x59572C, size: 0x8, addend: 0x0, symName: __ZN8crashpad18GzipHTTPBodyStreamC2ENSt3__110unique_ptrINS_14HTTPBodyStreamENS1_14default_deleteIS3_EEEE, symObjAddr: 0x0, symBinAddr: 0x100049BA0, symSize: 0x94 }
  - { offsetInCU: 0x7E0F, offset: 0x59599C, size: 0x8, addend: 0x0, symName: __ZN8crashpad18GzipHTTPBodyStreamC1ENSt3__110unique_ptrINS_14HTTPBodyStreamENS1_14default_deleteIS3_EEEE, symObjAddr: 0x94, symBinAddr: 0x100049C34, symSize: 0x94 }
  - { offsetInCU: 0x810F, offset: 0x595C9C, size: 0x8, addend: 0x0, symName: __ZN8crashpad18GzipHTTPBodyStreamD2Ev, symObjAddr: 0x128, symBinAddr: 0x100049CC8, symSize: 0x54 }
  - { offsetInCU: 0x8290, offset: 0x595E1D, size: 0x8, addend: 0x0, symName: __ZN8crashpad18GzipHTTPBodyStreamD1Ev, symObjAddr: 0x17C, symBinAddr: 0x100049D1C, symSize: 0x54 }
  - { offsetInCU: 0x842F, offset: 0x595FBC, size: 0x8, addend: 0x0, symName: __ZN8crashpad18GzipHTTPBodyStreamD0Ev, symObjAddr: 0x1D0, symBinAddr: 0x100049D70, symSize: 0x54 }
  - { offsetInCU: 0x87DB, offset: 0x596368, size: 0x8, addend: 0x0, symName: __ZN8crashpad18GzipHTTPBodyStream14GetBytesBufferEPhm, symObjAddr: 0x224, symBinAddr: 0x100049DC4, symSize: 0x36C }
  - { offsetInCU: 0x8FCC, offset: 0x596B59, size: 0x8, addend: 0x0, symName: __ZN8crashpad18GzipHTTPBodyStream4DoneENS0_5StateE, symObjAddr: 0x590, symBinAddr: 0x10004A130, symSize: 0x104 }
  - { offsetInCU: 0x70, offset: 0x597433, size: 0x8, addend: 0x0, symName: __ZN8crashpad12_GLOBAL__N_113kBoundaryCRLFE, symObjAddr: 0x2D16, symBinAddr: 0x10007CBA0, symSize: 0x0 }
  - { offsetInCU: 0x8A, offset: 0x59744D, size: 0x8, addend: 0x0, symName: __ZN8crashpad12_GLOBAL__N_15kCRLFE, symObjAddr: 0x2D1B, symBinAddr: 0x10007CBA5, symSize: 0x0 }
  - { offsetInCU: 0x10A, offset: 0x5974CD, size: 0x8, addend: 0x0, symName: __ZN8crashpad12_GLOBAL__N_115EncodeMIMEFieldERKNSt3__112basic_stringIcNS1_11char_traitsIcEENS1_9allocatorIcEEEE, symObjAddr: 0x604, symBinAddr: 0x10004A838, symSize: 0x13C }
  - { offsetInCU: 0xA393, offset: 0x5A1756, size: 0x8, addend: 0x0, symName: __ZNSt3__113__tree_removeB8ue170006IPNS_16__tree_node_baseIPvEEEEvT_S5_, symObjAddr: 0x22DC, symBinAddr: 0x10004BDCC, symSize: 0x3C4 }
  - { offsetInCU: 0xE5B9, offset: 0x5A597C, size: 0x8, addend: 0x0, symName: __ZN8crashpad20HTTPMultipartBuilderC2Ev, symObjAddr: 0x0, symBinAddr: 0x10004A234, symSize: 0xCC }
  - { offsetInCU: 0xEC5B, offset: 0x5A601E, size: 0x8, addend: 0x0, symName: __ZN8crashpad20HTTPMultipartBuilderC1Ev, symObjAddr: 0xCC, symBinAddr: 0x10004A300, symSize: 0xCC }
  - { offsetInCU: 0xF3D6, offset: 0x5A6799, size: 0x8, addend: 0x0, symName: __ZN8crashpad20HTTPMultipartBuilderD2Ev, symObjAddr: 0x198, symBinAddr: 0x10004A3CC, symSize: 0x58 }
  - { offsetInCU: 0xF670, offset: 0x5A6A33, size: 0x8, addend: 0x0, symName: __ZNSt3__16__treeINS_12__value_typeINS_12basic_stringIcNS_11char_traitsIcEENS_9allocatorIcEEEEN8crashpad20HTTPMultipartBuilder14FileAttachmentEEENS_19__map_value_compareIS7_SB_NS_4lessIS7_EELb1EEENS5_ISB_EEE7destroyEPNS_11__tree_nodeISB_PvEE, symObjAddr: 0x1A58, symBinAddr: 0x10004B6FC, symSize: 0x90 }
  - { offsetInCU: 0xFE33, offset: 0x5A71F6, size: 0x8, addend: 0x0, symName: __ZN8crashpad20HTTPMultipartBuilderD1Ev, symObjAddr: 0x1F0, symBinAddr: 0x10004A424, symSize: 0x58 }
  - { offsetInCU: 0x100EF, offset: 0x5A74B2, size: 0x8, addend: 0x0, symName: __ZN8crashpad20HTTPMultipartBuilder14SetGzipEnabledEb, symObjAddr: 0x248, symBinAddr: 0x10004A47C, symSize: 0x8 }
  - { offsetInCU: 0x10146, offset: 0x5A7509, size: 0x8, addend: 0x0, symName: __ZN8crashpad20HTTPMultipartBuilder11SetFormDataERKNSt3__112basic_stringIcNS1_11char_traitsIcEENS1_9allocatorIcEEEES9_, symObjAddr: 0x250, symBinAddr: 0x10004A484, symSize: 0x64 }
  - { offsetInCU: 0x101FB, offset: 0x5A75BE, size: 0x8, addend: 0x0, symName: __ZN8crashpad20HTTPMultipartBuilder8EraseKeyERKNSt3__112basic_stringIcNS1_11char_traitsIcEENS1_9allocatorIcEEEE, symObjAddr: 0x2B4, symBinAddr: 0x10004A4E8, symSize: 0x100 }
  - { offsetInCU: 0x1081F, offset: 0x5A7BE2, size: 0x8, addend: 0x0, symName: __ZNSt3__16__treeINS_12__value_typeINS_12basic_stringIcNS_11char_traitsIcEENS_9allocatorIcEEEES7_EENS_19__map_value_compareIS7_S8_NS_4lessIS7_EELb1EEENS5_IS8_EEE25__emplace_unique_key_argsIS7_JRKNS_21piecewise_construct_tENS_5tupleIJRKS7_EEENSJ_IJEEEEEENS_4pairINS_15__tree_iteratorIS8_PNS_11__tree_nodeIS8_PvEElEEbEERKT_DpOT0_, symObjAddr: 0x1AE8, symBinAddr: 0x10004B78C, symSize: 0x1D8 }
  - { offsetInCU: 0x11540, offset: 0x5A8903, size: 0x8, addend: 0x0, symName: __ZNSt3__16__treeINS_12__value_typeINS_12basic_stringIcNS_11char_traitsIcEENS_9allocatorIcEEEES7_EENS_19__map_value_compareIS7_S8_NS_4lessIS7_EELb1EEENS5_IS8_EEE4findIS7_EENS_15__tree_iteratorIS8_PNS_11__tree_nodeIS8_PvEElEERKT_, symObjAddr: 0x21C4, symBinAddr: 0x10004BCB4, symSize: 0x118 }
  - { offsetInCU: 0x1188A, offset: 0x5A8C4D, size: 0x8, addend: 0x0, symName: __ZNSt3__16__treeINS_12__value_typeINS_12basic_stringIcNS_11char_traitsIcEENS_9allocatorIcEEEEN8crashpad20HTTPMultipartBuilder14FileAttachmentEEENS_19__map_value_compareIS7_SB_NS_4lessIS7_EELb1EEENS5_ISB_EEE4findIS7_EENS_15__tree_iteratorISB_PNS_11__tree_nodeISB_PvEElEERKT_, symObjAddr: 0x26A0, symBinAddr: 0x10004C190, symSize: 0x118 }
  - { offsetInCU: 0x11BD4, offset: 0x5A8F97, size: 0x8, addend: 0x0, symName: __ZNSt3__16__treeINS_12__value_typeINS_12basic_stringIcNS_11char_traitsIcEENS_9allocatorIcEEEEN8crashpad20HTTPMultipartBuilder14FileAttachmentEEENS_19__map_value_compareIS7_SB_NS_4lessIS7_EELb1EEENS5_ISB_EEE5eraseENS_21__tree_const_iteratorISB_PNS_11__tree_nodeISB_PvEElEE, symObjAddr: 0x27B8, symBinAddr: 0x10004C2A8, symSize: 0xD8 }
  - { offsetInCU: 0x1237E, offset: 0x5A9741, size: 0x8, addend: 0x0, symName: __ZN8crashpad20HTTPMultipartBuilder17SetFileAttachmentERKNSt3__112basic_stringIcNS1_11char_traitsIcEENS1_9allocatorIcEEEES9_PNS_19FileReaderInterfaceES9_, symObjAddr: 0x3B4, symBinAddr: 0x10004A5E8, symSize: 0x250 }
  - { offsetInCU: 0x12E3B, offset: 0x5AA1FE, size: 0x8, addend: 0x0, symName: __ZNSt3__16__treeINS_12__value_typeINS_12basic_stringIcNS_11char_traitsIcEENS_9allocatorIcEEEEN8crashpad20HTTPMultipartBuilder14FileAttachmentEEENS_19__map_value_compareIS7_SB_NS_4lessIS7_EELb1EEENS5_ISB_EEE25__emplace_unique_key_argsIS7_JRKNS_21piecewise_construct_tENS_5tupleIJRKS7_EEENSM_IJEEEEEENS_4pairINS_15__tree_iteratorISB_PNS_11__tree_nodeISB_PvEElEEbEERKT_DpOT0_, symObjAddr: 0x1E74, symBinAddr: 0x10004B964, symSize: 0x1E4 }
  - { offsetInCU: 0x13938, offset: 0x5AACFB, size: 0x8, addend: 0x0, symName: __ZN8crashpad20HTTPMultipartBuilder14FileAttachmentD1Ev, symObjAddr: 0x740, symBinAddr: 0x10004A974, symSize: 0x58 }
  - { offsetInCU: 0x14631, offset: 0x5AB9F4, size: 0x8, addend: 0x0, symName: __ZN8crashpad20HTTPMultipartBuilder13GetBodyStreamEv, symObjAddr: 0x798, symBinAddr: 0x10004A9CC, symSize: 0xB6C }
  - { offsetInCU: 0x184C7, offset: 0x5AF88A, size: 0x8, addend: 0x0, symName: __ZNK8crashpad20HTTPMultipartBuilder22PopulateContentHeadersEPNSt3__13mapINS1_12basic_stringIcNS1_11char_traitsIcEENS1_9allocatorIcEEEES8_NS1_4lessIS8_EENS6_INS1_4pairIKS8_S8_EEEEEE, symObjAddr: 0x1304, symBinAddr: 0x10004B538, symSize: 0x1C4 }
  - { offsetInCU: 0x1914E, offset: 0x5B0511, size: 0x8, addend: 0x0, symName: __ZNSt3__16__treeINS_12__value_typeINS_12basic_stringIcNS_11char_traitsIcEENS_9allocatorIcEEEES7_EENS_19__map_value_compareIS7_S8_NS_4lessIS7_EELb1EEENS5_IS8_EEE25__emplace_unique_key_argsIS7_JRKNS_21piecewise_construct_tENS_5tupleIJOS7_EEENSJ_IJEEEEEENS_4pairINS_15__tree_iteratorIS8_PNS_11__tree_nodeIS8_PvEElEEbEERKT_DpOT0_, symObjAddr: 0x2058, symBinAddr: 0x10004BB48, symSize: 0x16C }
  - { offsetInCU: 0x26, offset: 0x5B1CFC, size: 0x8, addend: 0x0, symName: __ZN8crashpad13HTTPTransportC2Ev, symObjAddr: 0x0, symBinAddr: 0x10004C380, symSize: 0xB0 }
  - { offsetInCU: 0x7336, offset: 0x5B900C, size: 0x8, addend: 0x0, symName: __ZN8crashpad13HTTPTransportC2Ev, symObjAddr: 0x0, symBinAddr: 0x10004C380, symSize: 0xB0 }
  - { offsetInCU: 0x77F7, offset: 0x5B94CD, size: 0x8, addend: 0x0, symName: __ZN8crashpad13HTTPTransportC2Ev.cold.1, symObjAddr: 0x688, symBinAddr: 0x100066210, symSize: 0x48 }
  - { offsetInCU: 0x79F5, offset: 0x5B96CB, size: 0x8, addend: 0x0, symName: __ZN8crashpad13HTTPTransportD2Ev, symObjAddr: 0xB0, symBinAddr: 0x10004C430, symSize: 0xA8 }
  - { offsetInCU: 0x814F, offset: 0x5B9E25, size: 0x8, addend: 0x0, symName: __ZN8crashpad13HTTPTransportD1Ev, symObjAddr: 0x158, symBinAddr: 0x10004C4D8, symSize: 0x4 }
  - { offsetInCU: 0x8178, offset: 0x5B9E4E, size: 0x8, addend: 0x0, symName: __ZN8crashpad13HTTPTransportD0Ev, symObjAddr: 0x15C, symBinAddr: 0x10004C4DC, symSize: 0x4 }
  - { offsetInCU: 0x81A1, offset: 0x5B9E77, size: 0x8, addend: 0x0, symName: __ZN8crashpad13HTTPTransport6SetURLERKNSt3__112basic_stringIcNS1_11char_traitsIcEENS1_9allocatorIcEEEE, symObjAddr: 0x160, symBinAddr: 0x10004C4E0, symSize: 0x8 }
  - { offsetInCU: 0x81D7, offset: 0x5B9EAD, size: 0x8, addend: 0x0, symName: __ZN8crashpad13HTTPTransport12SetHTTPProxyERKNSt3__112basic_stringIcNS1_11char_traitsIcEENS1_9allocatorIcEEEE, symObjAddr: 0x168, symBinAddr: 0x10004C4E8, symSize: 0x8 }
  - { offsetInCU: 0x820D, offset: 0x5B9EE3, size: 0x8, addend: 0x0, symName: __ZN8crashpad13HTTPTransport9SetMethodERKNSt3__112basic_stringIcNS1_11char_traitsIcEENS1_9allocatorIcEEEE, symObjAddr: 0x170, symBinAddr: 0x10004C4F0, symSize: 0x8 }
  - { offsetInCU: 0x8268, offset: 0x5B9F3E, size: 0x8, addend: 0x0, symName: __ZN8crashpad13HTTPTransport9SetHeaderERKNSt3__112basic_stringIcNS1_11char_traitsIcEENS1_9allocatorIcEEEES9_, symObjAddr: 0x178, symBinAddr: 0x10004C4F8, symSize: 0x4C }
  - { offsetInCU: 0x89B2, offset: 0x5BA688, size: 0x8, addend: 0x0, symName: __ZN8crashpad13HTTPTransport13SetBodyStreamENSt3__110unique_ptrINS_14HTTPBodyStreamENS1_14default_deleteIS3_EEEE, symObjAddr: 0x1C4, symBinAddr: 0x10004C544, symSize: 0x28 }
  - { offsetInCU: 0x8A9A, offset: 0x5BA770, size: 0x8, addend: 0x0, symName: __ZN8crashpad13HTTPTransport10SetTimeoutEd, symObjAddr: 0x1EC, symBinAddr: 0x10004C56C, symSize: 0x8 }
  - { offsetInCU: 0x8ACF, offset: 0x5BA7A5, size: 0x8, addend: 0x0, symName: __ZN8crashpad13HTTPTransport24SetRootCACertificatePathERKN4base8FilePathE, symObjAddr: 0x1F4, symBinAddr: 0x10004C574, symSize: 0x8 }
  - { offsetInCU: 0x4B, offset: 0x5BAFA5, size: 0x8, addend: 0x0, symName: __ZN8crashpad8CrackURLERKNSt3__112basic_stringIcNS0_11char_traitsIcEENS0_9allocatorIcEEEEPS6_S9_S9_S9_, symObjAddr: 0x17C, symBinAddr: 0x10004C6F8, symSize: 0x79C }
  - { offsetInCU: 0x75, offset: 0x5BAFCF, size: 0x8, addend: 0x0, symName: __ZZN8crashpad8CrackURLERKNSt3__112basic_stringIcNS0_11char_traitsIcEENS0_9allocatorIcEEEEPS6_S9_S9_S9_E5kHttp, symObjAddr: 0xF5D, symBinAddr: 0x10007CBC3, symSize: 0x0 }
  - { offsetInCU: 0x8B, offset: 0x5BAFE5, size: 0x8, addend: 0x0, symName: __ZZN8crashpad8CrackURLERKNSt3__112basic_stringIcNS0_11char_traitsIcEENS0_9allocatorIcEEEEPS6_S9_S9_S9_E6kHttps, symObjAddr: 0xF65, symBinAddr: 0x10007CBCB, symSize: 0x0 }
  - { offsetInCU: 0xA1, offset: 0x5BAFFB, size: 0x8, addend: 0x0, symName: __ZZN8crashpad8CrackURLERKNSt3__112basic_stringIcNS0_11char_traitsIcEENS0_9allocatorIcEEEEPS6_S9_S9_S9_E6kSocks, symObjAddr: 0xF6E, symBinAddr: 0x10007CBD4, symSize: 0x0 }
  - { offsetInCU: 0x2A39, offset: 0x5BD993, size: 0x8, addend: 0x0, symName: __ZN8crashpad9URLEncodeERKNSt3__112basic_stringIcNS0_11char_traitsIcEENS0_9allocatorIcEEEE, symObjAddr: 0x0, symBinAddr: 0x10004C57C, symSize: 0x17C }
  - { offsetInCU: 0x7E17, offset: 0x5C2D71, size: 0x8, addend: 0x0, symName: __ZNSt3__120__throw_out_of_rangeB8ue170006EPKc, symObjAddr: 0x9C0, symBinAddr: 0x10004CEA8, symSize: 0x50 }
  - { offsetInCU: 0xAC65, offset: 0x5C5BBF, size: 0x8, addend: 0x0, symName: __ZNKSt3__112basic_stringIcNS_11char_traitsIcEENS_9allocatorIcEEE20__throw_out_of_rangeB8ue170006Ev, symObjAddr: 0x9AC, symBinAddr: 0x10004CE94, symSize: 0x14 }
  - { offsetInCU: 0xAC8F, offset: 0x5C5BE9, size: 0x8, addend: 0x0, symName: __ZNSt3__120__throw_out_of_rangeB8ue170006EPKc, symObjAddr: 0x9C0, symBinAddr: 0x10004CEA8, symSize: 0x50 }
  - { offsetInCU: 0xACFE, offset: 0x5C5C58, size: 0x8, addend: 0x0, symName: __ZNSt12out_of_rangeC1B8ue170006EPKc, symObjAddr: 0xA10, symBinAddr: 0x10004CEF8, symSize: 0x24 }
  - { offsetInCU: 0x26, offset: 0x5C6021, size: 0x8, addend: 0x0, symName: __ZN8crashpad8internal26CheckedAddressRangeGenericIyyEC2Ev, symObjAddr: 0x0, symBinAddr: 0x10004CF1C, symSize: 0x10 }
  - { offsetInCU: 0x4CEE, offset: 0x5CACE9, size: 0x8, addend: 0x0, symName: __ZN8crashpad8internal26CheckedAddressRangeGenericIyyEC2Ev, symObjAddr: 0x0, symBinAddr: 0x10004CF1C, symSize: 0x10 }
  - { offsetInCU: 0x4D12, offset: 0x5CAD0D, size: 0x8, addend: 0x0, symName: __ZN8crashpad8internal26CheckedAddressRangeGenericIyyEC2Ev, symObjAddr: 0x0, symBinAddr: 0x10004CF1C, symSize: 0x10 }
  - { offsetInCU: 0x4D3D, offset: 0x5CAD38, size: 0x8, addend: 0x0, symName: __ZN8crashpad8internal26CheckedAddressRangeGenericIyyEC2Ev, symObjAddr: 0x0, symBinAddr: 0x10004CF1C, symSize: 0x10 }
  - { offsetInCU: 0x4D68, offset: 0x5CAD63, size: 0x8, addend: 0x0, symName: __ZN8crashpad8internal26CheckedAddressRangeGenericIyyEC2Ev, symObjAddr: 0x0, symBinAddr: 0x10004CF1C, symSize: 0x10 }
  - { offsetInCU: 0x4DB4, offset: 0x5CADAF, size: 0x8, addend: 0x0, symName: __ZN8crashpad8internal26CheckedAddressRangeGenericIyyEC1Ev, symObjAddr: 0x10, symBinAddr: 0x10004CF2C, symSize: 0x10 }
  - { offsetInCU: 0x4DE2, offset: 0x5CADDD, size: 0x8, addend: 0x0, symName: __ZN8crashpad8internal26CheckedAddressRangeGenericIyyEC1Ev, symObjAddr: 0x10, symBinAddr: 0x10004CF2C, symSize: 0x10 }
  - { offsetInCU: 0x4DFF, offset: 0x5CADFA, size: 0x8, addend: 0x0, symName: __ZN8crashpad8internal26CheckedAddressRangeGenericIyyEC1Ev, symObjAddr: 0x10, symBinAddr: 0x10004CF2C, symSize: 0x10 }
  - { offsetInCU: 0x4E2A, offset: 0x5CAE25, size: 0x8, addend: 0x0, symName: __ZN8crashpad8internal26CheckedAddressRangeGenericIyyEC1Ev, symObjAddr: 0x10, symBinAddr: 0x10004CF2C, symSize: 0x10 }
  - { offsetInCU: 0x4E55, offset: 0x5CAE50, size: 0x8, addend: 0x0, symName: __ZN8crashpad8internal26CheckedAddressRangeGenericIyyEC1Ev, symObjAddr: 0x10, symBinAddr: 0x10004CF2C, symSize: 0x10 }
  - { offsetInCU: 0x4EEB, offset: 0x5CAEE6, size: 0x8, addend: 0x0, symName: __ZN8crashpad8internal26CheckedAddressRangeGenericIyyEC2Ebyy, symObjAddr: 0x20, symBinAddr: 0x10004CF3C, symSize: 0x34 }
  - { offsetInCU: 0x4F8B, offset: 0x5CAF86, size: 0x8, addend: 0x0, symName: __ZN8crashpad8internal26CheckedAddressRangeGenericIyyE8SetRangeEbyy, symObjAddr: 0x54, symBinAddr: 0x10004CF70, symSize: 0x34 }
  - { offsetInCU: 0x504B, offset: 0x5CB046, size: 0x8, addend: 0x0, symName: __ZN8crashpad8internal26CheckedAddressRangeGenericIyyEC1Ebyy, symObjAddr: 0x88, symBinAddr: 0x10004CFA4, symSize: 0x34 }
  - { offsetInCU: 0x516D, offset: 0x5CB168, size: 0x8, addend: 0x0, symName: __ZNK8crashpad8internal26CheckedAddressRangeGenericIyyE4BaseEv, symObjAddr: 0xBC, symBinAddr: 0x10004CFD8, symSize: 0x18 }
  - { offsetInCU: 0x51F8, offset: 0x5CB1F3, size: 0x8, addend: 0x0, symName: __ZNK8crashpad8internal26CheckedAddressRangeGenericIyyE4SizeEv, symObjAddr: 0xD4, symBinAddr: 0x10004CFF0, symSize: 0x18 }
  - { offsetInCU: 0x5289, offset: 0x5CB284, size: 0x8, addend: 0x0, symName: __ZNK8crashpad8internal26CheckedAddressRangeGenericIyyE3EndEv, symObjAddr: 0xEC, symBinAddr: 0x10004D008, symSize: 0x20 }
  - { offsetInCU: 0x5516, offset: 0x5CB511, size: 0x8, addend: 0x0, symName: __ZNK8crashpad8internal26CheckedAddressRangeGenericIyyE7IsValidEv, symObjAddr: 0x10C, symBinAddr: 0x10004D028, symSize: 0x38 }
  - { offsetInCU: 0x56B2, offset: 0x5CB6AD, size: 0x8, addend: 0x0, symName: __ZNK8crashpad8internal26CheckedAddressRangeGenericIyyE7Is64BitEv, symObjAddr: 0x144, symBinAddr: 0x10004D060, symSize: 0x8 }
  - { offsetInCU: 0x571B, offset: 0x5CB716, size: 0x8, addend: 0x0, symName: __ZNK8crashpad8internal26CheckedAddressRangeGenericIyyE13ContainsValueEy, symObjAddr: 0x14C, symBinAddr: 0x10004D068, symSize: 0x58 }
  - { offsetInCU: 0x5853, offset: 0x5CB84E, size: 0x8, addend: 0x0, symName: __ZNK8crashpad8internal26CheckedAddressRangeGenericIyyE13ContainsRangeERKS2_, symObjAddr: 0x1A4, symBinAddr: 0x10004D0C0, symSize: 0x70 }
  - { offsetInCU: 0x59D9, offset: 0x5CB9D4, size: 0x8, addend: 0x0, symName: __ZNK8crashpad8internal26CheckedAddressRangeGenericIyyE8AsStringEv, symObjAddr: 0x214, symBinAddr: 0x10004D130, symSize: 0x50 }
  - { offsetInCU: 0x6F58, offset: 0x5D29BD, size: 0x8, addend: 0x0, symName: __ZNK8crashpad13ProcessMemory4ReadEyyPv, symObjAddr: 0x0, symBinAddr: 0x10004D180, symSize: 0x10C }
  - { offsetInCU: 0x7154, offset: 0x5D2BB9, size: 0x8, addend: 0x0, symName: __ZNK8crashpad13ProcessMemory19ReadCStringInternalEybyPNSt3__112basic_stringIcNS1_11char_traitsIcEENS1_9allocatorIcEEEE, symObjAddr: 0x10C, symBinAddr: 0x10004D28C, symSize: 0x210 }
  - { offsetInCU: 0x73EE, offset: 0x5D2E53, size: 0x8, addend: 0x0, symName: __ZN8crashpad13ProcessMemoryD1Ev, symObjAddr: 0x31C, symBinAddr: 0x100066258, symSize: 0x4 }
  - { offsetInCU: 0x7417, offset: 0x5D2E7C, size: 0x8, addend: 0x0, symName: __ZN8crashpad13ProcessMemoryD0Ev, symObjAddr: 0x320, symBinAddr: 0x10006625C, symSize: 0x4 }
  - { offsetInCU: 0x26, offset: 0x5D33A4, size: 0x8, addend: 0x0, symName: __ZN8crashpad15AlignedAllocateEmm, symObjAddr: 0x0, symBinAddr: 0x10004D49C, symSize: 0x54 }
  - { offsetInCU: 0x2943, offset: 0x5D5CC1, size: 0x8, addend: 0x0, symName: __ZN8crashpad15AlignedAllocateEmm, symObjAddr: 0x0, symBinAddr: 0x10004D49C, symSize: 0x54 }
  - { offsetInCU: 0x29A7, offset: 0x5D5D25, size: 0x8, addend: 0x0, symName: __ZN8crashpad11AlignedFreeEPv, symObjAddr: 0x54, symBinAddr: 0x10004D4F0, symSize: 0x4 }
  - { offsetInCU: 0x26, offset: 0x5D5D94, size: 0x8, addend: 0x0, symName: __ZN8crashpad14StringToNumberERKNSt3__112basic_stringIcNS0_11char_traitsIcEENS0_9allocatorIcEEEEPi, symObjAddr: 0x0, symBinAddr: 0x10004D4F4, symSize: 0x10C }
  - { offsetInCU: 0x501F, offset: 0x5DAD8D, size: 0x8, addend: 0x0, symName: __ZN8crashpad14StringToNumberERKNSt3__112basic_stringIcNS0_11char_traitsIcEENS0_9allocatorIcEEEEPi, symObjAddr: 0x0, symBinAddr: 0x10004D4F4, symSize: 0x10C }
  - { offsetInCU: 0x5264, offset: 0x5DAFD2, size: 0x8, addend: 0x0, symName: __ZN8crashpad14StringToNumberERKNSt3__112basic_stringIcNS0_11char_traitsIcEENS0_9allocatorIcEEEEPj, symObjAddr: 0x10C, symBinAddr: 0x10004D600, symSize: 0x124 }
  - { offsetInCU: 0x549F, offset: 0x5DB20D, size: 0x8, addend: 0x0, symName: __ZN8crashpad14StringToNumberERKNSt3__112basic_stringIcNS0_11char_traitsIcEENS0_9allocatorIcEEEEPl, symObjAddr: 0x230, symBinAddr: 0x10004D724, symSize: 0x108 }
  - { offsetInCU: 0x56E4, offset: 0x5DB452, size: 0x8, addend: 0x0, symName: __ZN8crashpad14StringToNumberERKNSt3__112basic_stringIcNS0_11char_traitsIcEENS0_9allocatorIcEEEEPm, symObjAddr: 0x338, symBinAddr: 0x10004D82C, symSize: 0x128 }
  - { offsetInCU: 0x5921, offset: 0x5DB68F, size: 0x8, addend: 0x0, symName: __ZN8crashpad14StringToNumberERKNSt3__112basic_stringIcNS0_11char_traitsIcEENS0_9allocatorIcEEEEPx, symObjAddr: 0x460, symBinAddr: 0x10004D954, symSize: 0x108 }
  - { offsetInCU: 0x5B66, offset: 0x5DB8D4, size: 0x8, addend: 0x0, symName: __ZN8crashpad14StringToNumberERKNSt3__112basic_stringIcNS0_11char_traitsIcEENS0_9allocatorIcEEEEPy, symObjAddr: 0x568, symBinAddr: 0x10004DA5C, symSize: 0x128 }
  - { offsetInCU: 0x26, offset: 0x5DBC37, size: 0x8, addend: 0x0, symName: __ZN8crashpad7c16lcpyEPDsPKDsm, symObjAddr: 0x0, symBinAddr: 0x10004DB84, symSize: 0xA4 }
  - { offsetInCU: 0x2C6B, offset: 0x5DE87C, size: 0x8, addend: 0x0, symName: __ZN8crashpad7c16lcpyEPDsPKDsm, symObjAddr: 0x0, symBinAddr: 0x10004DB84, symSize: 0xA4 }
  - { offsetInCU: 0x26, offset: 0x5DED16, size: 0x8, addend: 0x0, symName: __ZN8crashpad16SplitStringFirstERKNSt3__112basic_stringIcNS0_11char_traitsIcEENS0_9allocatorIcEEEEcPS6_S9_, symObjAddr: 0x0, symBinAddr: 0x10004DC28, symSize: 0xFC }
  - { offsetInCU: 0x6766, offset: 0x5E5456, size: 0x8, addend: 0x0, symName: __ZN8crashpad16SplitStringFirstERKNSt3__112basic_stringIcNS0_11char_traitsIcEENS0_9allocatorIcEEEEcPS6_S9_, symObjAddr: 0x0, symBinAddr: 0x10004DC28, symSize: 0xFC }
  - { offsetInCU: 0x6AD7, offset: 0x5E57C7, size: 0x8, addend: 0x0, symName: __ZN8crashpad11SplitStringERKNSt3__112basic_stringIcNS0_11char_traitsIcEENS0_9allocatorIcEEEEc, symObjAddr: 0xFC, symBinAddr: 0x10004DD24, symSize: 0x374 }
  - { offsetInCU: 0x6AE9, offset: 0x5E57D9, size: 0x8, addend: 0x0, symName: __ZN8crashpad11SplitStringERKNSt3__112basic_stringIcNS0_11char_traitsIcEENS0_9allocatorIcEEEEc, symObjAddr: 0xFC, symBinAddr: 0x10004DD24, symSize: 0x374 }
  - { offsetInCU: 0x26, offset: 0x5E870A, size: 0x8, addend: 0x0, symName: __ZN8crashpad6ThreadC2Ev, symObjAddr: 0x0, symBinAddr: 0x10004E098, symSize: 0x10 }
  - { offsetInCU: 0x2A4E, offset: 0x5EB132, size: 0x8, addend: 0x0, symName: __ZN8crashpad6ThreadC2Ev, symObjAddr: 0x0, symBinAddr: 0x10004E098, symSize: 0x10 }
  - { offsetInCU: 0x2A79, offset: 0x5EB15D, size: 0x8, addend: 0x0, symName: __ZN8crashpad6ThreadD2Ev, symObjAddr: 0x10, symBinAddr: 0x10004E0A8, symSize: 0x10 }
  - { offsetInCU: 0x2AA4, offset: 0x5EB188, size: 0x8, addend: 0x0, symName: __ZN8crashpad6ThreadD1Ev, symObjAddr: 0x20, symBinAddr: 0x10004E0B8, symSize: 0x4 }
  - { offsetInCU: 0x2ACD, offset: 0x5EB1B1, size: 0x8, addend: 0x0, symName: __ZN8crashpad6ThreadD0Ev, symObjAddr: 0x24, symBinAddr: 0x10004E0BC, symSize: 0x4 }
  - { offsetInCU: 0x26, offset: 0x5EB205, size: 0x8, addend: 0x0, symName: __ZN8crashpad12WorkerThreadC2EdPNS0_8DelegateE, symObjAddr: 0x0, symBinAddr: 0x10004E0C0, symSize: 0x10 }
  - { offsetInCU: 0x2B8B, offset: 0x5EDD6A, size: 0x8, addend: 0x0, symName: __ZN8crashpad12WorkerThreadC2EdPNS0_8DelegateE, symObjAddr: 0x0, symBinAddr: 0x10004E0C0, symSize: 0x10 }
  - { offsetInCU: 0x2BEF, offset: 0x5EDDCE, size: 0x8, addend: 0x0, symName: __ZN8crashpad12WorkerThreadC1EdPNS0_8DelegateE, symObjAddr: 0x10, symBinAddr: 0x10004E0D0, symSize: 0x10 }
  - { offsetInCU: 0x2C38, offset: 0x5EDE17, size: 0x8, addend: 0x0, symName: __ZN8crashpad12WorkerThreadC1EdPNS0_8DelegateE, symObjAddr: 0x10, symBinAddr: 0x10004E0D0, symSize: 0x10 }
  - { offsetInCU: 0x2D27, offset: 0x5EDF06, size: 0x8, addend: 0x0, symName: __ZN8crashpad12WorkerThreadD2Ev, symObjAddr: 0x20, symBinAddr: 0x10004E0E0, symSize: 0x40 }
  - { offsetInCU: 0x2E3A, offset: 0x5EE019, size: 0x8, addend: 0x0, symName: __ZN8crashpad12WorkerThreadD1Ev, symObjAddr: 0x60, symBinAddr: 0x10004E120, symSize: 0x40 }
  - { offsetInCU: 0x2FD4, offset: 0x5EE1B3, size: 0x8, addend: 0x0, symName: __ZN8crashpad12WorkerThread5StartEd, symObjAddr: 0xA0, symBinAddr: 0x10004E160, symSize: 0xB8 }
  - { offsetInCU: 0x3109, offset: 0x5EE2E8, size: 0x8, addend: 0x0, symName: __ZN8crashpad12WorkerThread4StopEv, symObjAddr: 0x158, symBinAddr: 0x10004E218, symSize: 0x64 }
  - { offsetInCU: 0x327A, offset: 0x5EE459, size: 0x8, addend: 0x0, symName: __ZN8crashpad12WorkerThread9DoWorkNowEv, symObjAddr: 0x1BC, symBinAddr: 0x10004E27C, symSize: 0x18 }
  - { offsetInCU: 0x3362, offset: 0x5EE541, size: 0x8, addend: 0x0, symName: __ZN8crashpad8internal16WorkerThreadImplD1Ev, symObjAddr: 0x1D4, symBinAddr: 0x10004E294, symSize: 0x28 }
  - { offsetInCU: 0x33A5, offset: 0x5EE584, size: 0x8, addend: 0x0, symName: __ZN8crashpad8internal16WorkerThreadImplD0Ev, symObjAddr: 0x1FC, symBinAddr: 0x10004E2BC, symSize: 0x2C }
  - { offsetInCU: 0x3452, offset: 0x5EE631, size: 0x8, addend: 0x0, symName: __ZN8crashpad8internal16WorkerThreadImpl10ThreadMainEv, symObjAddr: 0x228, symBinAddr: 0x10004E2E8, symSize: 0x84 }
  - { offsetInCU: 0x78C2, offset: 0x5F600F, size: 0x8, addend: 0x0, symName: __ZN8crashpad15DirectoryReaderC2Ev, symObjAddr: 0x0, symBinAddr: 0x10004E36C, symSize: 0x8 }
  - { offsetInCU: 0x78E5, offset: 0x5F6032, size: 0x8, addend: 0x0, symName: __ZN8crashpad15DirectoryReaderC2Ev, symObjAddr: 0x0, symBinAddr: 0x10004E36C, symSize: 0x8 }
  - { offsetInCU: 0x7902, offset: 0x5F604F, size: 0x8, addend: 0x0, symName: __ZN8crashpad15DirectoryReaderC2Ev, symObjAddr: 0x0, symBinAddr: 0x10004E36C, symSize: 0x8 }
  - { offsetInCU: 0x791F, offset: 0x5F606C, size: 0x8, addend: 0x0, symName: __ZN8crashpad15DirectoryReaderC2Ev, symObjAddr: 0x0, symBinAddr: 0x10004E36C, symSize: 0x8 }
  - { offsetInCU: 0x793C, offset: 0x5F6089, size: 0x8, addend: 0x0, symName: __ZN8crashpad15DirectoryReaderC2Ev, symObjAddr: 0x0, symBinAddr: 0x10004E36C, symSize: 0x8 }
  - { offsetInCU: 0x797C, offset: 0x5F60C9, size: 0x8, addend: 0x0, symName: __ZN8crashpad15DirectoryReaderC1Ev, symObjAddr: 0x8, symBinAddr: 0x10004E374, symSize: 0x8 }
  - { offsetInCU: 0x79A9, offset: 0x5F60F6, size: 0x8, addend: 0x0, symName: __ZN8crashpad15DirectoryReaderC1Ev, symObjAddr: 0x8, symBinAddr: 0x10004E374, symSize: 0x8 }
  - { offsetInCU: 0x79C6, offset: 0x5F6113, size: 0x8, addend: 0x0, symName: __ZN8crashpad15DirectoryReaderC1Ev, symObjAddr: 0x8, symBinAddr: 0x10004E374, symSize: 0x8 }
  - { offsetInCU: 0x79E3, offset: 0x5F6130, size: 0x8, addend: 0x0, symName: __ZN8crashpad15DirectoryReaderC1Ev, symObjAddr: 0x8, symBinAddr: 0x10004E374, symSize: 0x8 }
  - { offsetInCU: 0x7A00, offset: 0x5F614D, size: 0x8, addend: 0x0, symName: __ZN8crashpad15DirectoryReaderC1Ev, symObjAddr: 0x8, symBinAddr: 0x10004E374, symSize: 0x8 }
  - { offsetInCU: 0x7A1D, offset: 0x5F616A, size: 0x8, addend: 0x0, symName: __ZN8crashpad15DirectoryReaderC1Ev, symObjAddr: 0x8, symBinAddr: 0x10004E374, symSize: 0x8 }
  - { offsetInCU: 0x7A87, offset: 0x5F61D4, size: 0x8, addend: 0x0, symName: __ZN8crashpad15DirectoryReaderD2Ev, symObjAddr: 0x10, symBinAddr: 0x10004E37C, symSize: 0x34 }
  - { offsetInCU: 0x7B14, offset: 0x5F6261, size: 0x8, addend: 0x0, symName: __ZN8crashpad15DirectoryReaderD1Ev, symObjAddr: 0x44, symBinAddr: 0x10004E3B0, symSize: 0x34 }
  - { offsetInCU: 0x7CE9, offset: 0x5F6436, size: 0x8, addend: 0x0, symName: __ZN8crashpad15DirectoryReader4OpenERKN4base8FilePathE, symObjAddr: 0x78, symBinAddr: 0x10004E3E4, symSize: 0x100 }
  - { offsetInCU: 0x81EC, offset: 0x5F6939, size: 0x8, addend: 0x0, symName: __ZN8crashpad15DirectoryReader8NextFileEPN4base8FilePathE, symObjAddr: 0x178, symBinAddr: 0x10004E4E4, symSize: 0x21C }
  - { offsetInCU: 0x89E6, offset: 0x5F7133, size: 0x8, addend: 0x0, symName: __ZN8crashpad15DirectoryReader11DirectoryFDEv, symObjAddr: 0x394, symBinAddr: 0x10004E700, symSize: 0xB0 }
  - { offsetInCU: 0x386, offset: 0x5F7902, size: 0x8, addend: 0x0, symName: __ZN8crashpad8internal15NativeWriteFileEiPKvm, symObjAddr: 0x0, symBinAddr: 0x10004E7B0, symSize: 0x68 }
  - { offsetInCU: 0x491, offset: 0x5F7A0D, size: 0x8, addend: 0x0, symName: __ZN8crashpad8ReadFileEiPvm, symObjAddr: 0x68, symBinAddr: 0x10004E818, symSize: 0x68 }
  - { offsetInCU: 0x59B, offset: 0x5F7B17, size: 0x8, addend: 0x0, symName: __ZN8crashpad15OpenFileForReadERKN4base8FilePathE, symObjAddr: 0xD0, symBinAddr: 0x10004E880, symSize: 0x54 }
  - { offsetInCU: 0x670, offset: 0x5F7BEC, size: 0x8, addend: 0x0, symName: __ZN8crashpad16OpenFileForWriteERKN4base8FilePathENS_13FileWriteModeENS_15FilePermissionsE, symObjAddr: 0x124, symBinAddr: 0x10004E8D4, symSize: 0x94 }
  - { offsetInCU: 0x787, offset: 0x5F7D03, size: 0x8, addend: 0x0, symName: __ZN8crashpad23OpenFileForReadAndWriteERKN4base8FilePathENS_13FileWriteModeENS_15FilePermissionsE, symObjAddr: 0x1B8, symBinAddr: 0x10004E968, symSize: 0x94 }
  - { offsetInCU: 0x8D6, offset: 0x5F7E52, size: 0x8, addend: 0x0, symName: __ZN8crashpad22LoggingOpenFileForReadERKN4base8FilePathE, symObjAddr: 0x24C, symBinAddr: 0x10004E9FC, symSize: 0xFC }
  - { offsetInCU: 0xB1A, offset: 0x5F8096, size: 0x8, addend: 0x0, symName: __ZN8crashpad23LoggingOpenFileForWriteERKN4base8FilePathENS_13FileWriteModeENS_15FilePermissionsE, symObjAddr: 0x348, symBinAddr: 0x10004EAF8, symSize: 0x11C }
  - { offsetInCU: 0xDC2, offset: 0x5F833E, size: 0x8, addend: 0x0, symName: __ZN8crashpad30LoggingOpenFileForReadAndWriteERKN4base8FilePathENS_13FileWriteModeENS_15FilePermissionsE, symObjAddr: 0x464, symBinAddr: 0x10004EC14, symSize: 0x11C }
  - { offsetInCU: 0x1037, offset: 0x5F85B3, size: 0x8, addend: 0x0, symName: __ZN8crashpad15LoggingLockFileEiNS_11FileLockingENS_19FileLockingBlockingE, symObjAddr: 0x580, symBinAddr: 0x10004ED30, symSize: 0xF8 }
  - { offsetInCU: 0x1151, offset: 0x5F86CD, size: 0x8, addend: 0x0, symName: __ZN8crashpad17LoggingUnlockFileEi, symObjAddr: 0x678, symBinAddr: 0x10004EE28, symSize: 0x9C }
  - { offsetInCU: 0x1220, offset: 0x5F879C, size: 0x8, addend: 0x0, symName: __ZN8crashpad15LoggingSeekFileEixi, symObjAddr: 0x714, symBinAddr: 0x10004EEC4, symSize: 0xAC }
  - { offsetInCU: 0x1318, offset: 0x5F8894, size: 0x8, addend: 0x0, symName: __ZN8crashpad19LoggingTruncateFileEi, symObjAddr: 0x7C0, symBinAddr: 0x10004EF70, symSize: 0xC4 }
  - { offsetInCU: 0x13F5, offset: 0x5F8971, size: 0x8, addend: 0x0, symName: __ZN8crashpad16LoggingCloseFileEi, symObjAddr: 0x884, symBinAddr: 0x10004F034, symSize: 0xB4 }
  - { offsetInCU: 0x14DD, offset: 0x5F8A59, size: 0x8, addend: 0x0, symName: __ZN8crashpad23LoggingFileSizeByHandleEi, symObjAddr: 0x938, symBinAddr: 0x10004F0E8, symSize: 0xA0 }
  - { offsetInCU: 0x15B4, offset: 0x5F8B30, size: 0x8, addend: 0x0, symName: __ZN8crashpad15StdioFileHandleENS_11StdioStreamE, symObjAddr: 0x9D8, symBinAddr: 0x10004F188, symSize: 0xC }
  - { offsetInCU: 0x51C0, offset: 0x605444, size: 0x8, addend: 0x0, symName: __ZN8crashpad20FileModificationTimeERKN4base8FilePathEP8timespec, symObjAddr: 0x0, symBinAddr: 0x10004F194, symSize: 0xDC }
  - { offsetInCU: 0x53A6, offset: 0x60562A, size: 0x8, addend: 0x0, symName: __ZN8crashpad22LoggingCreateDirectoryERKN4base8FilePathENS_15FilePermissionsEb, symObjAddr: 0xDC, symBinAddr: 0x10004F270, symSize: 0x190 }
  - { offsetInCU: 0x5690, offset: 0x605914, size: 0x8, addend: 0x0, symName: __ZN8crashpad11IsDirectoryERKN4base8FilePathEb, symObjAddr: 0x26C, symBinAddr: 0x10004F400, symSize: 0x1AC }
  - { offsetInCU: 0x5919, offset: 0x605B9D, size: 0x8, addend: 0x0, symName: __ZN8crashpad19MoveFileOrDirectoryERKN4base8FilePathES3_, symObjAddr: 0x418, symBinAddr: 0x10004F5AC, symSize: 0x130 }
  - { offsetInCU: 0x5CFF, offset: 0x605F83, size: 0x8, addend: 0x0, symName: __ZN8crashpad13IsRegularFileERKN4base8FilePathE, symObjAddr: 0x548, symBinAddr: 0x10004F6DC, symSize: 0x110 }
  - { offsetInCU: 0x5ED5, offset: 0x606159, size: 0x8, addend: 0x0, symName: __ZN8crashpad17LoggingRemoveFileERKN4base8FilePathE, symObjAddr: 0x658, symBinAddr: 0x10004F7EC, symSize: 0xC8 }
  - { offsetInCU: 0x6093, offset: 0x606317, size: 0x8, addend: 0x0, symName: __ZN8crashpad22LoggingRemoveDirectoryERKN4base8FilePathE, symObjAddr: 0x720, symBinAddr: 0x10004F8B4, symSize: 0xC8 }
  - { offsetInCU: 0x6251, offset: 0x6064D5, size: 0x8, addend: 0x0, symName: __ZN8crashpad11GetFileSizeERKN4base8FilePathE, symObjAddr: 0x7E8, symBinAddr: 0x10004F97C, symSize: 0xF4 }
  - { offsetInCU: 0x64A5, offset: 0x606729, size: 0x8, addend: 0x0, symName: __ZN8crashpad16GetDirectorySizeERKN4base8FilePathE, symObjAddr: 0x8DC, symBinAddr: 0x10004FA70, symSize: 0x118 }
  - { offsetInCU: 0x26, offset: 0x6092A5, size: 0x8, addend: 0x0, symName: __ZN8crashpad16SleepNanosecondsEy, symObjAddr: 0x0, symBinAddr: 0x10004FB88, symSize: 0x68 }
  - { offsetInCU: 0x295B, offset: 0x60BBDA, size: 0x8, addend: 0x0, symName: __ZN8crashpad16SleepNanosecondsEy, symObjAddr: 0x0, symBinAddr: 0x10004FB88, symSize: 0x68 }
  - { offsetInCU: 0x6ED0, offset: 0x612B4F, size: 0x8, addend: 0x0, symName: __ZN8crashpad19CloseStdinAndStdoutEv, symObjAddr: 0x0, symBinAddr: 0x10004FBF0, symSize: 0x24 }
  - { offsetInCU: 0x6F1D, offset: 0x612B9C, size: 0x8, addend: 0x0, symName: __ZN8crashpad12_GLOBAL__N_116CloseStdioStreamEii, symObjAddr: 0x24, symBinAddr: 0x10004FC14, symSize: 0x1C8 }
  - { offsetInCU: 0x7019, offset: 0x61A656, size: 0x8, addend: 0x0, symName: __ZN8crashpad8internal20ScopedDIRCloseTraits4FreeEP3DIR, symObjAddr: 0x0, symBinAddr: 0x10004FDDC, symSize: 0xA0 }
  - { offsetInCU: 0x9A28, offset: 0x624694, size: 0x8, addend: 0x0, symName: __ZN8crashpad7Signals10OldActions15ActionForSignalEi, symObjAddr: 0x0, symBinAddr: 0x10004FE7C, symSize: 0xC }
  - { offsetInCU: 0x9B22, offset: 0x62478E, size: 0x8, addend: 0x0, symName: __ZN8crashpad7Signals14InstallHandlerEiPFviP9__siginfoPvEiP9sigaction, symObjAddr: 0xC, symBinAddr: 0x10004FE88, symSize: 0xB8 }
  - { offsetInCU: 0x9C3B, offset: 0x6248A7, size: 0x8, addend: 0x0, symName: __ZN8crashpad7Signals21InstallDefaultHandlerEi, symObjAddr: 0xC4, symBinAddr: 0x10004FF40, symSize: 0x30 }
  - { offsetInCU: 0x9D88, offset: 0x6249F4, size: 0x8, addend: 0x0, symName: __ZN8crashpad7Signals20InstallCrashHandlersEPFviP9__siginfoPvEiPNS0_10OldActionsEPKNSt3__13setIiNS8_4lessIiEENS8_9allocatorIiEEEE, symObjAddr: 0xF4, symBinAddr: 0x10004FF70, symSize: 0x508 }
  - { offsetInCU: 0xA143, offset: 0x624DAF, size: 0x8, addend: 0x0, symName: __ZN8crashpad7Signals24InstallTerminateHandlersEPFviP9__siginfoPvEiPNS0_10OldActionsE, symObjAddr: 0x5FC, symBinAddr: 0x100050478, symSize: 0x1D8 }
  - { offsetInCU: 0xA390, offset: 0x624FFC, size: 0x8, addend: 0x0, symName: __ZN8crashpad7Signals29WillSignalReraiseAutonomouslyEPK9__siginfo, symObjAddr: 0x7D4, symBinAddr: 0x100050650, symSize: 0x48 }
  - { offsetInCU: 0xA3F0, offset: 0x62505C, size: 0x8, addend: 0x0, symName: __ZN8crashpad7Signals38RestoreHandlerAndReraiseSignalOnReturnEPK9__siginfoPK9sigaction, symObjAddr: 0x81C, symBinAddr: 0x100050698, symSize: 0xBC }
  - { offsetInCU: 0xA4F4, offset: 0x625160, size: 0x8, addend: 0x0, symName: __ZN8crashpad7Signals13IsCrashSignalEi, symObjAddr: 0x8D8, symBinAddr: 0x100050754, symSize: 0x18 }
  - { offsetInCU: 0xA51F, offset: 0x62518B, size: 0x8, addend: 0x0, symName: __ZN8crashpad7Signals13IsCrashSignalEi, symObjAddr: 0x8D8, symBinAddr: 0x100050754, symSize: 0x18 }
  - { offsetInCU: 0xA541, offset: 0x6251AD, size: 0x8, addend: 0x0, symName: __ZN8crashpad7Signals13IsCrashSignalEi, symObjAddr: 0x8D8, symBinAddr: 0x100050754, symSize: 0x18 }
  - { offsetInCU: 0xA55D, offset: 0x6251C9, size: 0x8, addend: 0x0, symName: __ZN8crashpad7Signals17IsTerminateSignalEi, symObjAddr: 0x8F0, symBinAddr: 0x10005076C, symSize: 0x1C }
  - { offsetInCU: 0xA588, offset: 0x6251F4, size: 0x8, addend: 0x0, symName: __ZN8crashpad7Signals17IsTerminateSignalEi, symObjAddr: 0x8F0, symBinAddr: 0x10005076C, symSize: 0x1C }
  - { offsetInCU: 0xA5AA, offset: 0x625216, size: 0x8, addend: 0x0, symName: __ZN8crashpad7Signals17IsTerminateSignalEi, symObjAddr: 0x8F0, symBinAddr: 0x10005076C, symSize: 0x1C }
  - { offsetInCU: 0x6F79, offset: 0x62C6E3, size: 0x8, addend: 0x0, symName: __ZN8crashpad6Thread5StartEv, symObjAddr: 0x0, symBinAddr: 0x100050788, symSize: 0xCC }
  - { offsetInCU: 0x70EA, offset: 0x62C854, size: 0x8, addend: 0x0, symName: __ZN8crashpad6Thread16ThreadEntryThunkEPv, symObjAddr: 0xCC, symBinAddr: 0x100050854, symSize: 0x20 }
  - { offsetInCU: 0x7135, offset: 0x62C89F, size: 0x8, addend: 0x0, symName: __ZN8crashpad6Thread4JoinEv, symObjAddr: 0xEC, symBinAddr: 0x100050874, symSize: 0xD0 }
  - { offsetInCU: 0x727A, offset: 0x62C9E4, size: 0x8, addend: 0x0, symName: __ZN8crashpad6Thread21GetThreadIdForTestingEv, symObjAddr: 0x1BC, symBinAddr: 0x100050944, symSize: 0xC4 }
  - { offsetInCU: 0x9C67, offset: 0x636CF7, size: 0x8, addend: 0x0, symName: __ZN8crashpad15SpawnSubprocessERKNSt3__16vectorINS0_12basic_stringIcNS0_11char_traitsIcEENS0_9allocatorIcEEEENS5_IS7_EEEEPSA_ibPFvvE, symObjAddr: 0x0, symBinAddr: 0x100050A08, symSize: 0xAA0 }
  - { offsetInCU: 0xC2E3, offset: 0x639373, size: 0x8, addend: 0x0, symName: __ZNKSt3__16vectorIPKcNS_9allocatorIS2_EEE20__throw_length_errorB8ue170006Ev, symObjAddr: 0xEF0, symBinAddr: 0x1000518EC, symSize: 0x14 }
  - { offsetInCU: 0xC355, offset: 0x6393E5, size: 0x8, addend: 0x0, symName: __ZN8crashpad12_GLOBAL__N_114PosixSpawnAttrC1Ev, symObjAddr: 0xAA0, symBinAddr: 0x1000514A8, symSize: 0xC0 }
  - { offsetInCU: 0xC49C, offset: 0x63952C, size: 0x8, addend: 0x0, symName: __ZN8crashpad12_GLOBAL__N_114PosixSpawnAttr8SetFlagsEs, symObjAddr: 0xB60, symBinAddr: 0x100051568, symSize: 0xB4 }
  - { offsetInCU: 0xC60E, offset: 0x63969E, size: 0x8, addend: 0x0, symName: __ZN8crashpad12_GLOBAL__N_121PosixSpawnFileActionsC1Ev, symObjAddr: 0xC14, symBinAddr: 0x10005161C, symSize: 0xC0 }
  - { offsetInCU: 0xC755, offset: 0x6397E5, size: 0x8, addend: 0x0, symName: __ZN8crashpad12_GLOBAL__N_121PosixSpawnFileActions26AddInheritedFileDescriptorEi, symObjAddr: 0xCD4, symBinAddr: 0x1000516DC, symSize: 0xB0 }
  - { offsetInCU: 0xC898, offset: 0x639928, size: 0x8, addend: 0x0, symName: __ZN8crashpad12_GLOBAL__N_121PosixSpawnFileActionsD1Ev, symObjAddr: 0xD84, symBinAddr: 0x10005178C, symSize: 0xB0 }
  - { offsetInCU: 0xC9E0, offset: 0x639A70, size: 0x8, addend: 0x0, symName: __ZN8crashpad12_GLOBAL__N_114PosixSpawnAttrD1Ev, symObjAddr: 0xE34, symBinAddr: 0x10005183C, symSize: 0xB0 }
  - { offsetInCU: 0x1AC, offset: 0x63A390, size: 0x8, addend: 0x0, symName: __ZN8crashpad9ReadXattrERKN4base8FilePathERKNS0_16BasicStringPieceINSt3__112basic_stringIcNS5_11char_traitsIcEENS5_9allocatorIcEEEEEEPSB_, symObjAddr: 0x0, symBinAddr: 0x100051900, symSize: 0x284 }
  - { offsetInCU: 0x93D, offset: 0x63AB21, size: 0x8, addend: 0x0, symName: __ZN8crashpad10WriteXattrERKN4base8FilePathERKNS0_16BasicStringPieceINSt3__112basic_stringIcNS5_11char_traitsIcEENS5_9allocatorIcEEEEEERKSB_, symObjAddr: 0x284, symBinAddr: 0x100051B84, symSize: 0x118 }
  - { offsetInCU: 0xC5B, offset: 0x63AE3F, size: 0x8, addend: 0x0, symName: __ZN8crashpad13ReadXattrBoolERKN4base8FilePathERKNS0_16BasicStringPieceINSt3__112basic_stringIcNS5_11char_traitsIcEENS5_9allocatorIcEEEEEEPb, symObjAddr: 0x39C, symBinAddr: 0x100051C9C, symSize: 0x194 }
  - { offsetInCU: 0x1265, offset: 0x63B449, size: 0x8, addend: 0x0, symName: __ZN8crashpad14WriteXattrBoolERKN4base8FilePathERKNS0_16BasicStringPieceINSt3__112basic_stringIcNS5_11char_traitsIcEENS5_9allocatorIcEEEEEEb, symObjAddr: 0x530, symBinAddr: 0x100051E30, symSize: 0x8C }
  - { offsetInCU: 0x175D, offset: 0x63B941, size: 0x8, addend: 0x0, symName: __ZN8crashpad12ReadXattrIntERKN4base8FilePathERKNS0_16BasicStringPieceINSt3__112basic_stringIcNS5_11char_traitsIcEENS5_9allocatorIcEEEEEEPi, symObjAddr: 0x5BC, symBinAddr: 0x100051EBC, symSize: 0x16C }
  - { offsetInCU: 0x1D51, offset: 0x63BF35, size: 0x8, addend: 0x0, symName: __ZN8crashpad13WriteXattrIntERKN4base8FilePathERKNS0_16BasicStringPieceINSt3__112basic_stringIcNS5_11char_traitsIcEENS5_9allocatorIcEEEEEEi, symObjAddr: 0x728, symBinAddr: 0x100052028, symSize: 0x94 }
  - { offsetInCU: 0x2045, offset: 0x63C229, size: 0x8, addend: 0x0, symName: __ZN8crashpad14ReadXattrTimeTERKN4base8FilePathERKNS0_16BasicStringPieceINSt3__112basic_stringIcNS5_11char_traitsIcEENS5_9allocatorIcEEEEEEPl, symObjAddr: 0x7BC, symBinAddr: 0x1000520BC, symSize: 0x174 }
  - { offsetInCU: 0x2650, offset: 0x63C834, size: 0x8, addend: 0x0, symName: __ZN8crashpad15WriteXattrTimeTERKN4base8FilePathERKNS0_16BasicStringPieceINSt3__112basic_stringIcNS5_11char_traitsIcEENS5_9allocatorIcEEEEEEl, symObjAddr: 0x930, symBinAddr: 0x100052230, symSize: 0x94 }
  - { offsetInCU: 0x2944, offset: 0x63CB28, size: 0x8, addend: 0x0, symName: __ZN8crashpad11RemoveXattrERKN4base8FilePathERKNS0_16BasicStringPieceINSt3__112basic_stringIcNS5_11char_traitsIcEENS5_9allocatorIcEEEEEE, symObjAddr: 0x9C4, symBinAddr: 0x1000522C4, symSize: 0x114 }
  - { offsetInCU: 0xB234, offset: 0x6500D2, size: 0x8, addend: 0x0, symName: __ZN8crashpad26CompositeMachMessageServerC2Ev, symObjAddr: 0x0, symBinAddr: 0x1000523D8, symSize: 0x28 }
  - { offsetInCU: 0xB313, offset: 0x6501B1, size: 0x8, addend: 0x0, symName: __ZN8crashpad26CompositeMachMessageServerC1Ev, symObjAddr: 0x28, symBinAddr: 0x100052400, symSize: 0x28 }
  - { offsetInCU: 0xB340, offset: 0x6501DE, size: 0x8, addend: 0x0, symName: __ZN8crashpad26CompositeMachMessageServerC1Ev, symObjAddr: 0x28, symBinAddr: 0x100052400, symSize: 0x28 }
  - { offsetInCU: 0xB480, offset: 0x65031E, size: 0x8, addend: 0x0, symName: __ZN8crashpad26CompositeMachMessageServerD2Ev, symObjAddr: 0x50, symBinAddr: 0x100052428, symSize: 0x34 }
  - { offsetInCU: 0xB54B, offset: 0x6503E9, size: 0x8, addend: 0x0, symName: __ZNSt3__16__treeINS_12__value_typeIiPN8crashpad17MachMessageServer9InterfaceEEENS_19__map_value_compareIiS6_NS_4lessIiEELb1EEENS_9allocatorIS6_EEE7destroyEPNS_11__tree_nodeIS6_PvEE, symObjAddr: 0x4E4, symBinAddr: 0x1000528B0, symSize: 0x40 }
  - { offsetInCU: 0xB6B1, offset: 0x65054F, size: 0x8, addend: 0x0, symName: __ZN8crashpad26CompositeMachMessageServerD1Ev, symObjAddr: 0x84, symBinAddr: 0x10005245C, symSize: 0x34 }
  - { offsetInCU: 0xBCD1, offset: 0x650B6F, size: 0x8, addend: 0x0, symName: __ZN8crashpad26CompositeMachMessageServer10AddHandlerEPNS_17MachMessageServer9InterfaceE, symObjAddr: 0xB8, symBinAddr: 0x100052490, symSize: 0x240 }
  - { offsetInCU: 0xC4C3, offset: 0x651361, size: 0x8, addend: 0x0, symName: __ZNSt3__16__treeIiNS_4lessIiEENS_9allocatorIiEEE7destroyEPNS_11__tree_nodeIiPvEE, symObjAddr: 0x524, symBinAddr: 0x1000528F0, symSize: 0x40 }
  - { offsetInCU: 0xC6E1, offset: 0x65157F, size: 0x8, addend: 0x0, symName: __ZN8crashpad26CompositeMachMessageServer25MachMessageServerFunctionEPK17mach_msg_header_tPS1_Pb, symObjAddr: 0x2F8, symBinAddr: 0x1000526D0, symSize: 0x94 }
  - { offsetInCU: 0xCCDB, offset: 0x651B79, size: 0x8, addend: 0x0, symName: __ZN8crashpad26CompositeMachMessageServer27MachMessageServerRequestIDsEv, symObjAddr: 0x38C, symBinAddr: 0x100052764, symSize: 0x13C }
  - { offsetInCU: 0xD287, offset: 0x652125, size: 0x8, addend: 0x0, symName: __ZN8crashpad26CompositeMachMessageServer28MachMessageServerRequestSizeEv, symObjAddr: 0x4C8, symBinAddr: 0x1000528A0, symSize: 0x8 }
  - { offsetInCU: 0xD2B0, offset: 0x65214E, size: 0x8, addend: 0x0, symName: __ZN8crashpad26CompositeMachMessageServer26MachMessageServerReplySizeEv, symObjAddr: 0x4D0, symBinAddr: 0x1000528A8, symSize: 0x8 }
  - { offsetInCU: 0x26, offset: 0x6527F1, size: 0x8, addend: 0x0, symName: __ZN8crashpad23UniversalExceptionRaiseEijjjiPKxjPiPKjjPjS5_, symObjAddr: 0x0, symBinAddr: 0x100052930, symSize: 0x410 }
  - { offsetInCU: 0x47F0, offset: 0x656FBB, size: 0x8, addend: 0x0, symName: __ZN8crashpad23UniversalExceptionRaiseEijjjiPKxjPiPKjjPjS5_, symObjAddr: 0x0, symBinAddr: 0x100052930, symSize: 0x410 }
  - { offsetInCU: 0x5380, offset: 0x657B4B, size: 0x8, addend: 0x0, symName: __ZNKSt3__16vectorIiNS_9allocatorIiEEE20__throw_length_errorB8ue170006Ev, symObjAddr: 0x410, symBinAddr: 0x100052D40, symSize: 0x14 }
  - { offsetInCU: 0x26, offset: 0x657C18, size: 0x8, addend: 0x0, symName: __ZN8crashpad22UniversalMachExcServerC2EPNS0_9InterfaceE, symObjAddr: 0x0, symBinAddr: 0x100052D54, symSize: 0xF4 }
  - { offsetInCU: 0xCE4, offset: 0x6588D6, size: 0x8, addend: 0x0, symName: __ZN8crashpad30ExcServerSuccessfulReturnValueEiib, symObjAddr: 0x180, symBinAddr: 0x100052ED4, symSize: 0x38 }
  - { offsetInCU: 0xD5A, offset: 0x65894C, size: 0x8, addend: 0x0, symName: __ZN8crashpad18ExcServerCopyStateEiPKjjPjS2_, symObjAddr: 0x1B8, symBinAddr: 0x100052F0C, symSize: 0x64 }
  - { offsetInCU: 0x6040, offset: 0x65DC32, size: 0x8, addend: 0x0, symName: __ZN8crashpad12_GLOBAL__N_19ExcServerINS0_9ExcTraitsEE25MachMessageServerFunctionEPK17mach_msg_header_tPS4_Pb, symObjAddr: 0x5E0, symBinAddr: 0x100053334, symSize: 0x1EC }
  - { offsetInCU: 0x65F4, offset: 0x65E1E6, size: 0x8, addend: 0x0, symName: __ZN8crashpad12_GLOBAL__N_19ExcServerINS0_13MachExcTraitsEE25MachMessageServerFunctionEPK17mach_msg_header_tPS4_Pb, symObjAddr: 0xFF4, symBinAddr: 0x100053B2C, symSize: 0x1EC }
  - { offsetInCU: 0x8D9E, offset: 0x660990, size: 0x8, addend: 0x0, symName: __ZN8crashpad22UniversalMachExcServerC2EPNS0_9InterfaceE, symObjAddr: 0x0, symBinAddr: 0x100052D54, symSize: 0xF4 }
  - { offsetInCU: 0x8F9A, offset: 0x660B8C, size: 0x8, addend: 0x0, symName: __ZN8crashpad22UniversalMachExcServerC1EPNS0_9InterfaceE, symObjAddr: 0xF4, symBinAddr: 0x100052E48, symSize: 0x4 }
  - { offsetInCU: 0x8FD8, offset: 0x660BCA, size: 0x8, addend: 0x0, symName: __ZN8crashpad22UniversalMachExcServerC1EPNS0_9InterfaceE, symObjAddr: 0xF4, symBinAddr: 0x100052E48, symSize: 0x4 }
  - { offsetInCU: 0x90AF, offset: 0x660CA1, size: 0x8, addend: 0x0, symName: __ZN8crashpad22UniversalMachExcServerD2Ev, symObjAddr: 0xF8, symBinAddr: 0x100052E4C, symSize: 0x34 }
  - { offsetInCU: 0x91CA, offset: 0x660DBC, size: 0x8, addend: 0x0, symName: __ZN8crashpad22UniversalMachExcServerD1Ev, symObjAddr: 0x12C, symBinAddr: 0x100052E80, symSize: 0x34 }
  - { offsetInCU: 0x9308, offset: 0x660EFA, size: 0x8, addend: 0x0, symName: __ZN8crashpad22UniversalMachExcServer25MachMessageServerFunctionEPK17mach_msg_header_tPS1_Pb, symObjAddr: 0x160, symBinAddr: 0x100052EB4, symSize: 0x8 }
  - { offsetInCU: 0x9361, offset: 0x660F53, size: 0x8, addend: 0x0, symName: __ZN8crashpad22UniversalMachExcServer25MachMessageServerFunctionEPK17mach_msg_header_tPS1_Pb, symObjAddr: 0x160, symBinAddr: 0x100052EB4, symSize: 0x8 }
  - { offsetInCU: 0x9380, offset: 0x660F72, size: 0x8, addend: 0x0, symName: __ZN8crashpad22UniversalMachExcServer27MachMessageServerRequestIDsEv, symObjAddr: 0x168, symBinAddr: 0x100052EBC, symSize: 0x8 }
  - { offsetInCU: 0x93AC, offset: 0x660F9E, size: 0x8, addend: 0x0, symName: __ZN8crashpad22UniversalMachExcServer27MachMessageServerRequestIDsEv, symObjAddr: 0x168, symBinAddr: 0x100052EBC, symSize: 0x8 }
  - { offsetInCU: 0x93CB, offset: 0x660FBD, size: 0x8, addend: 0x0, symName: __ZN8crashpad22UniversalMachExcServer28MachMessageServerRequestSizeEv, symObjAddr: 0x170, symBinAddr: 0x100052EC4, symSize: 0x8 }
  - { offsetInCU: 0x93F7, offset: 0x660FE9, size: 0x8, addend: 0x0, symName: __ZN8crashpad22UniversalMachExcServer28MachMessageServerRequestSizeEv, symObjAddr: 0x170, symBinAddr: 0x100052EC4, symSize: 0x8 }
  - { offsetInCU: 0x9416, offset: 0x661008, size: 0x8, addend: 0x0, symName: __ZN8crashpad22UniversalMachExcServer26MachMessageServerReplySizeEv, symObjAddr: 0x178, symBinAddr: 0x100052ECC, symSize: 0x8 }
  - { offsetInCU: 0x9442, offset: 0x661034, size: 0x8, addend: 0x0, symName: __ZN8crashpad22UniversalMachExcServer26MachMessageServerReplySizeEv, symObjAddr: 0x178, symBinAddr: 0x100052ECC, symSize: 0x8 }
  - { offsetInCU: 0x996B, offset: 0x66155D, size: 0x8, addend: 0x0, symName: __ZN8crashpad8internal26UniversalMachExcServerImpl14CatchExceptionEijjjiPKijPiPKjjPjS7_PK18mach_msg_trailer_tPb, symObjAddr: 0x21C, symBinAddr: 0x100052F70, symSize: 0x304 }
  - { offsetInCU: 0xA327, offset: 0x661F19, size: 0x8, addend: 0x0, symName: __ZNKSt3__16vectorIxNS_9allocatorIxEEE20__throw_length_errorB8ue170006Ev, symObjAddr: 0x1558, symBinAddr: 0x100054090, symSize: 0x14 }
  - { offsetInCU: 0xA35C, offset: 0x661F4E, size: 0x8, addend: 0x0, symName: __ZN8crashpad8internal26UniversalMachExcServerImpl14CatchExceptionEijjjiPKxjPiPKjjPjS7_PK18mach_msg_trailer_tPb, symObjAddr: 0x520, symBinAddr: 0x100053274, symSize: 0x48 }
  - { offsetInCU: 0xA42F, offset: 0x662021, size: 0x8, addend: 0x0, symName: __ZThn40_N8crashpad8internal26UniversalMachExcServerImpl14CatchExceptionEijjjiPKijPiPKjjPjS7_PK18mach_msg_trailer_tPb, symObjAddr: 0x568, symBinAddr: 0x1000532BC, symSize: 0x30 }
  - { offsetInCU: 0xA552, offset: 0x662144, size: 0x8, addend: 0x0, symName: __ZThn48_N8crashpad8internal26UniversalMachExcServerImpl14CatchExceptionEijjjiPKxjPiPKjjPjS7_PK18mach_msg_trailer_tPb, symObjAddr: 0x598, symBinAddr: 0x1000532EC, symSize: 0x48 }
  - { offsetInCU: 0xA6D7, offset: 0x6622C9, size: 0x8, addend: 0x0, symName: __ZN8crashpad12_GLOBAL__N_19ExcServerINS0_9ExcTraitsEE27MachMessageServerRequestIDsEv, symObjAddr: 0x7CC, symBinAddr: 0x100053520, symSize: 0x70 }
  - { offsetInCU: 0xA76D, offset: 0x66235F, size: 0x8, addend: 0x0, symName: __ZNSt3__13setIiNS_4lessIiEENS_9allocatorIiEEEC2B8ue170006IPKiEET_S9_RKS2_, symObjAddr: 0xB3C, symBinAddr: 0x100053890, symSize: 0xF4 }
  - { offsetInCU: 0xAB67, offset: 0x662759, size: 0x8, addend: 0x0, symName: __ZN8crashpad12_GLOBAL__N_19ExcServerINS0_9ExcTraitsEE28MachMessageServerRequestSizeEv, symObjAddr: 0x83C, symBinAddr: 0x100053590, symSize: 0x8 }
  - { offsetInCU: 0xAB8A, offset: 0x66277C, size: 0x8, addend: 0x0, symName: __ZN8crashpad12_GLOBAL__N_19ExcServerINS0_9ExcTraitsEE26MachMessageServerReplySizeEv, symObjAddr: 0x844, symBinAddr: 0x100053598, symSize: 0x8 }
  - { offsetInCU: 0xABAD, offset: 0x66279F, size: 0x8, addend: 0x0, symName: __ZN8crashpad12_GLOBAL__N_119SimplifiedExcServerINS0_9ExcTraitsEE19CatchExceptionRaiseEjjjiPKijPK18mach_msg_trailer_tPb, symObjAddr: 0x84C, symBinAddr: 0x1000535A0, symSize: 0x74 }
  - { offsetInCU: 0xAC68, offset: 0x66285A, size: 0x8, addend: 0x0, symName: __ZN8crashpad12_GLOBAL__N_119SimplifiedExcServerINS0_9ExcTraitsEE24CatchExceptionRaiseStateEjiPKijPiPKjjPjS9_PK18mach_msg_trailer_t, symObjAddr: 0x8C0, symBinAddr: 0x100053614, symSize: 0x84 }
  - { offsetInCU: 0xAD27, offset: 0x662919, size: 0x8, addend: 0x0, symName: __ZN8crashpad12_GLOBAL__N_119SimplifiedExcServerINS0_9ExcTraitsEE32CatchExceptionRaiseStateIdentityEjjjiPKijPiPKjjPjS9_PK18mach_msg_trailer_tPb, symObjAddr: 0x944, symBinAddr: 0x100053698, symSize: 0x80 }
  - { offsetInCU: 0xAE93, offset: 0x662A85, size: 0x8, addend: 0x0, symName: __ZThn16_N8crashpad12_GLOBAL__N_119SimplifiedExcServerINS0_9ExcTraitsEE19CatchExceptionRaiseEjjjiPKijPK18mach_msg_trailer_tPb, symObjAddr: 0x9C4, symBinAddr: 0x100053718, symSize: 0x74 }
  - { offsetInCU: 0xAFFE, offset: 0x662BF0, size: 0x8, addend: 0x0, symName: __ZThn16_N8crashpad12_GLOBAL__N_119SimplifiedExcServerINS0_9ExcTraitsEE24CatchExceptionRaiseStateEjiPKijPiPKjjPjS9_PK18mach_msg_trailer_t, symObjAddr: 0xA38, symBinAddr: 0x10005378C, symSize: 0x84 }
  - { offsetInCU: 0xB189, offset: 0x662D7B, size: 0x8, addend: 0x0, symName: __ZThn16_N8crashpad12_GLOBAL__N_119SimplifiedExcServerINS0_9ExcTraitsEE32CatchExceptionRaiseStateIdentityEjjjiPKijPiPKjjPjS9_PK18mach_msg_trailer_tPb, symObjAddr: 0xABC, symBinAddr: 0x100053810, symSize: 0x80 }
  - { offsetInCU: 0xB5FB, offset: 0x6631ED, size: 0x8, addend: 0x0, symName: __ZNSt3__16__treeIiNS_4lessIiEENS_9allocatorIiEEE12__find_equalIiEERPNS_16__tree_node_baseIPvEENS_21__tree_const_iteratorIiPNS_11__tree_nodeIiS8_EElEERPNS_15__tree_end_nodeISA_EESB_RKT_, symObjAddr: 0xC30, symBinAddr: 0x100053984, symSize: 0x1A8 }
  - { offsetInCU: 0xB664, offset: 0x663256, size: 0x8, addend: 0x0, symName: __ZNSt3__16__treeIiNS_4lessIiEENS_9allocatorIiEEE12__find_equalIiEERPNS_16__tree_node_baseIPvEENS_21__tree_const_iteratorIiPNS_11__tree_nodeIiS8_EElEERPNS_15__tree_end_nodeISA_EESB_RKT_, symObjAddr: 0xC30, symBinAddr: 0x100053984, symSize: 0x1A8 }
  - { offsetInCU: 0xB682, offset: 0x663274, size: 0x8, addend: 0x0, symName: __ZNSt3__16__treeIiNS_4lessIiEENS_9allocatorIiEEE12__find_equalIiEERPNS_16__tree_node_baseIPvEENS_21__tree_const_iteratorIiPNS_11__tree_nodeIiS8_EElEERPNS_15__tree_end_nodeISA_EESB_RKT_, symObjAddr: 0xC30, symBinAddr: 0x100053984, symSize: 0x1A8 }
  - { offsetInCU: 0xBBFF, offset: 0x6637F1, size: 0x8, addend: 0x0, symName: __ZN8crashpad12_GLOBAL__N_19ExcServerINS0_13MachExcTraitsEE27MachMessageServerRequestIDsEv, symObjAddr: 0x11E0, symBinAddr: 0x100053D18, symSize: 0x70 }
  - { offsetInCU: 0xBC95, offset: 0x663887, size: 0x8, addend: 0x0, symName: __ZN8crashpad12_GLOBAL__N_19ExcServerINS0_13MachExcTraitsEE28MachMessageServerRequestSizeEv, symObjAddr: 0x1250, symBinAddr: 0x100053D88, symSize: 0x8 }
  - { offsetInCU: 0xBCB8, offset: 0x6638AA, size: 0x8, addend: 0x0, symName: __ZN8crashpad12_GLOBAL__N_19ExcServerINS0_13MachExcTraitsEE26MachMessageServerReplySizeEv, symObjAddr: 0x1258, symBinAddr: 0x100053D90, symSize: 0x8 }
  - { offsetInCU: 0xBCDB, offset: 0x6638CD, size: 0x8, addend: 0x0, symName: __ZN8crashpad12_GLOBAL__N_119SimplifiedExcServerINS0_13MachExcTraitsEE19CatchExceptionRaiseEjjjiPKxjPK18mach_msg_trailer_tPb, symObjAddr: 0x1260, symBinAddr: 0x100053D98, symSize: 0x74 }
  - { offsetInCU: 0xBD91, offset: 0x663983, size: 0x8, addend: 0x0, symName: __ZN8crashpad12_GLOBAL__N_119SimplifiedExcServerINS0_13MachExcTraitsEE24CatchExceptionRaiseStateEjiPKxjPiPKjjPjS9_PK18mach_msg_trailer_t, symObjAddr: 0x12D4, symBinAddr: 0x100053E0C, symSize: 0x88 }
  - { offsetInCU: 0xBE4B, offset: 0x663A3D, size: 0x8, addend: 0x0, symName: __ZN8crashpad12_GLOBAL__N_119SimplifiedExcServerINS0_13MachExcTraitsEE32CatchExceptionRaiseStateIdentityEjjjiPKxjPiPKjjPjS9_PK18mach_msg_trailer_tPb, symObjAddr: 0x135C, symBinAddr: 0x100053E94, symSize: 0x80 }
  - { offsetInCU: 0xBFB2, offset: 0x663BA4, size: 0x8, addend: 0x0, symName: __ZThn16_N8crashpad12_GLOBAL__N_119SimplifiedExcServerINS0_13MachExcTraitsEE19CatchExceptionRaiseEjjjiPKxjPK18mach_msg_trailer_tPb, symObjAddr: 0x13DC, symBinAddr: 0x100053F14, symSize: 0x74 }
  - { offsetInCU: 0xC118, offset: 0x663D0A, size: 0x8, addend: 0x0, symName: __ZThn16_N8crashpad12_GLOBAL__N_119SimplifiedExcServerINS0_13MachExcTraitsEE24CatchExceptionRaiseStateEjiPKxjPiPKjjPjS9_PK18mach_msg_trailer_t, symObjAddr: 0x1450, symBinAddr: 0x100053F88, symSize: 0x88 }
  - { offsetInCU: 0xC29E, offset: 0x663E90, size: 0x8, addend: 0x0, symName: __ZThn16_N8crashpad12_GLOBAL__N_119SimplifiedExcServerINS0_13MachExcTraitsEE32CatchExceptionRaiseStateIdentityEjjjiPKxjPiPKjjPjS9_PK18mach_msg_trailer_tPb, symObjAddr: 0x14D8, symBinAddr: 0x100054010, symSize: 0x80 }
  - { offsetInCU: 0x26, offset: 0x664000, size: 0x8, addend: 0x0, symName: __ZN8crashpad25ExceptionBehaviorHasStateEi, symObjAddr: 0x0, symBinAddr: 0x1000540A4, symSize: 0x10 }
  - { offsetInCU: 0x38, offset: 0x664012, size: 0x8, addend: 0x0, symName: __ZN8crashpad25ExceptionBehaviorHasStateEi, symObjAddr: 0x0, symBinAddr: 0x1000540A4, symSize: 0x10 }
  - { offsetInCU: 0x77, offset: 0x664051, size: 0x8, addend: 0x0, symName: __ZN8crashpad22ExceptionBehaviorBasicEi, symObjAddr: 0x10, symBinAddr: 0x1000540B4, symSize: 0x8 }
  - { offsetInCU: 0xA6, offset: 0x664080, size: 0x8, addend: 0x0, symName: __ZN8crashpad28ExceptionBehaviorHasIdentityEi, symObjAddr: 0x18, symBinAddr: 0x1000540BC, symSize: 0x14 }
  - { offsetInCU: 0xE5, offset: 0x6640BF, size: 0x8, addend: 0x0, symName: __ZN8crashpad38ExceptionBehaviorHasMachExceptionCodesEi, symObjAddr: 0x2C, symBinAddr: 0x1000540D0, symSize: 0x8 }
  - { offsetInCU: 0x86EE, offset: 0x66C7F0, size: 0x8, addend: 0x0, symName: __ZN8crashpad14ExceptionPorts22ExceptionHandlerVectorC2Ev, symObjAddr: 0x0, symBinAddr: 0x1000540D8, symSize: 0xC }
  - { offsetInCU: 0x8711, offset: 0x66C813, size: 0x8, addend: 0x0, symName: __ZN8crashpad14ExceptionPorts22ExceptionHandlerVectorC2Ev, symObjAddr: 0x0, symBinAddr: 0x1000540D8, symSize: 0xC }
  - { offsetInCU: 0x872E, offset: 0x66C830, size: 0x8, addend: 0x0, symName: __ZN8crashpad14ExceptionPorts22ExceptionHandlerVectorC2Ev, symObjAddr: 0x0, symBinAddr: 0x1000540D8, symSize: 0xC }
  - { offsetInCU: 0x8768, offset: 0x66C86A, size: 0x8, addend: 0x0, symName: __ZN8crashpad14ExceptionPorts22ExceptionHandlerVectorC1Ev, symObjAddr: 0xC, symBinAddr: 0x1000540E4, symSize: 0xC }
  - { offsetInCU: 0x8795, offset: 0x66C897, size: 0x8, addend: 0x0, symName: __ZN8crashpad14ExceptionPorts22ExceptionHandlerVectorC1Ev, symObjAddr: 0xC, symBinAddr: 0x1000540E4, symSize: 0xC }
  - { offsetInCU: 0x87B2, offset: 0x66C8B4, size: 0x8, addend: 0x0, symName: __ZN8crashpad14ExceptionPorts22ExceptionHandlerVectorC1Ev, symObjAddr: 0xC, symBinAddr: 0x1000540E4, symSize: 0xC }
  - { offsetInCU: 0x87CF, offset: 0x66C8D1, size: 0x8, addend: 0x0, symName: __ZN8crashpad14ExceptionPorts22ExceptionHandlerVectorC1Ev, symObjAddr: 0xC, symBinAddr: 0x1000540E4, symSize: 0xC }
  - { offsetInCU: 0x88E8, offset: 0x66C9EA, size: 0x8, addend: 0x0, symName: __ZN8crashpad14ExceptionPorts22ExceptionHandlerVectorD2Ev, symObjAddr: 0x18, symBinAddr: 0x1000540F0, symSize: 0x38 }
  - { offsetInCU: 0x8A88, offset: 0x66CB8A, size: 0x8, addend: 0x0, symName: __ZN8crashpad14ExceptionPorts22ExceptionHandlerVector10DeallocateEv, symObjAddr: 0x50, symBinAddr: 0x100054128, symSize: 0xDC }
  - { offsetInCU: 0x8C02, offset: 0x66CD04, size: 0x8, addend: 0x0, symName: __ZN8crashpad14ExceptionPorts22ExceptionHandlerVectorD1Ev, symObjAddr: 0x138, symBinAddr: 0x100054204, symSize: 0x38 }
  - { offsetInCU: 0x8E02, offset: 0x66CF04, size: 0x8, addend: 0x0, symName: __ZN8crashpad14ExceptionPorts22ExceptionHandlerVector5clearEv, symObjAddr: 0x170, symBinAddr: 0x10005423C, symSize: 0x28 }
  - { offsetInCU: 0x8EC4, offset: 0x66CFC6, size: 0x8, addend: 0x0, symName: __ZN8crashpad14ExceptionPortsC2ENS0_10TargetTypeEj, symObjAddr: 0x198, symBinAddr: 0x100054264, symSize: 0x124 }
  - { offsetInCU: 0x8F64, offset: 0x66D066, size: 0x8, addend: 0x0, symName: __ZN8crashpad14ExceptionPortsC1ENS0_10TargetTypeEj, symObjAddr: 0x2BC, symBinAddr: 0x100054388, symSize: 0x124 }
  - { offsetInCU: 0x909C, offset: 0x66D19E, size: 0x8, addend: 0x0, symName: __ZN8crashpad14ExceptionPortsD2Ev, symObjAddr: 0x3E0, symBinAddr: 0x1000544AC, symSize: 0x98 }
  - { offsetInCU: 0x9169, offset: 0x66D26B, size: 0x8, addend: 0x0, symName: __ZN8crashpad14ExceptionPortsD1Ev, symObjAddr: 0x478, symBinAddr: 0x100054544, symSize: 0x98 }
  - { offsetInCU: 0x9275, offset: 0x66D377, size: 0x8, addend: 0x0, symName: __ZNK8crashpad14ExceptionPorts17GetExceptionPortsEjPNS0_22ExceptionHandlerVectorE, symObjAddr: 0x510, symBinAddr: 0x1000545DC, symSize: 0x188 }
  - { offsetInCU: 0x956C, offset: 0x66D66E, size: 0x8, addend: 0x0, symName: __ZN8crashpad14ExceptionPorts22ExceptionHandlerVector9push_backERNS0_16ExceptionHandlerE, symObjAddr: 0x6A0, symBinAddr: 0x10005476C, symSize: 0x108 }
  - { offsetInCU: 0x9AC1, offset: 0x66DBC3, size: 0x8, addend: 0x0, symName: __ZNK8crashpad14ExceptionPorts16SetExceptionPortEjjii, symObjAddr: 0x7A8, symBinAddr: 0x100054874, symSize: 0xBC }
  - { offsetInCU: 0x9ACC, offset: 0x66DBCE, size: 0x8, addend: 0x0, symName: __ZNK8crashpad14ExceptionPorts14TargetTypeNameEv, symObjAddr: 0x698, symBinAddr: 0x100054764, symSize: 0x8 }
  - { offsetInCU: 0x9E43, offset: 0x66DF45, size: 0x8, addend: 0x0, symName: __ZNKSt3__16vectorIN8crashpad14ExceptionPorts16ExceptionHandlerENS_9allocatorIS3_EEE20__throw_length_errorB8ue170006Ev, symObjAddr: 0x9F0, symBinAddr: 0x100054ABC, symSize: 0x14 }
  - { offsetInCU: 0x9E78, offset: 0x66DF7A, size: 0x8, addend: 0x0, symName: __ZNK8crashpad14ExceptionPorts16SetExceptionPortEjjii, symObjAddr: 0x7A8, symBinAddr: 0x100054874, symSize: 0xBC }
  - { offsetInCU: 0xA010, offset: 0x66E112, size: 0x8, addend: 0x0, symName: __ZNK8crashpad14ExceptionPorts18SwapExceptionPortsEjjiiPNS0_22ExceptionHandlerVectorE, symObjAddr: 0x864, symBinAddr: 0x100054930, symSize: 0x18C }
  - { offsetInCU: 0x6ECC, offset: 0x675877, size: 0x8, addend: 0x0, symName: __ZN8crashpad14MachThreadSelfEv, symObjAddr: 0x0, symBinAddr: 0x100054AD0, symSize: 0x14 }
  - { offsetInCU: 0x6F07, offset: 0x6758B2, size: 0x8, addend: 0x0, symName: __ZN8crashpad11NewMachPortEj, symObjAddr: 0x14, symBinAddr: 0x100054AE4, symSize: 0x9C }
  - { offsetInCU: 0x6FD4, offset: 0x67597F, size: 0x8, addend: 0x0, symName: __ZN8crashpad10ExcMaskAllEv, symObjAddr: 0xB0, symBinAddr: 0x100054B80, symSize: 0x8 }
  - { offsetInCU: 0x701D, offset: 0x6759C8, size: 0x8, addend: 0x0, symName: __ZN8crashpad12ExcMaskValidEv, symObjAddr: 0xB8, symBinAddr: 0x100054B88, symSize: 0x8 }
  - { offsetInCU: 0x123, offset: 0x67614C, size: 0x8, addend: 0x0, symName: __ZN8crashpad30MachMessageDeadlineFromTimeoutEj, symObjAddr: 0x0, symBinAddr: 0x100054B90, symSize: 0x58 }
  - { offsetInCU: 0x16F, offset: 0x676198, size: 0x8, addend: 0x0, symName: __ZN8crashpad23MachMessageWithDeadlineEP17mach_msg_header_tijjyjb, symObjAddr: 0x58, symBinAddr: 0x100054BE8, symSize: 0x4A4 }
  - { offsetInCU: 0x521, offset: 0x67654A, size: 0x8, addend: 0x0, symName: __ZN8crashpad26PrepareMIGReplyFromRequestEPK17mach_msg_header_tPS0_, symObjAddr: 0x4FC, symBinAddr: 0x10005508C, symSize: 0x3C }
  - { offsetInCU: 0x556, offset: 0x67657F, size: 0x8, addend: 0x0, symName: __ZN8crashpad16SetMIGReplyErrorEP17mach_msg_header_ti, symObjAddr: 0x538, symBinAddr: 0x1000550C8, symSize: 0x8 }
  - { offsetInCU: 0x58B, offset: 0x6765B4, size: 0x8, addend: 0x0, symName: __ZN8crashpad28MachMessageTrailerFromHeaderEPK17mach_msg_header_t, symObjAddr: 0x540, symBinAddr: 0x1000550D0, symSize: 0x14 }
  - { offsetInCU: 0x5DA, offset: 0x676603, size: 0x8, addend: 0x0, symName: __ZN8crashpad30MachMessageDestroyReceivedPortEjj, symObjAddr: 0x554, symBinAddr: 0x1000550E4, symSize: 0x198 }
  - { offsetInCU: 0x79B, offset: 0x6767C4, size: 0x8, addend: 0x0, symName: __ZN8crashpad30AuditPIDFromMachMessageTrailerEPK18mach_msg_trailer_t, symObjAddr: 0x6EC, symBinAddr: 0x10005527C, symSize: 0x110 }
  - { offsetInCU: 0x6C06, offset: 0x684ACF, size: 0x8, addend: 0x0, symName: __ZN8crashpad17MachMessageServer3RunEPNS0_9InterfaceEjiNS0_10PersistentENS0_12ReceiveLargeEj, symObjAddr: 0x0, symBinAddr: 0x10005538C, symSize: 0x514 }
  - { offsetInCU: 0x7313, offset: 0x6851DC, size: 0x8, addend: 0x0, symName: __ZN8crashpad12_GLOBAL__N_117MachMessageBufferD1Ev, symObjAddr: 0x514, symBinAddr: 0x1000558A0, symSize: 0x40 }
  - { offsetInCU: 0x26, offset: 0x6857BD, size: 0x8, addend: 0x0, symName: __ZN8crashpad17ExceptionToStringEij, symObjAddr: 0x0, symBinAddr: 0x1000558E0, symSize: 0x124 }
  - { offsetInCU: 0x63, offset: 0x6857FA, size: 0x8, addend: 0x0, symName: __ZN8crashpad21StringToExceptionMaskERKN4base16BasicStringPieceINSt3__112basic_stringIcNS2_11char_traitsIcEENS2_9allocatorIcEEEEEEjPj, symObjAddr: 0xAE4, symBinAddr: 0x1000563C4, symSize: 0x73C }
  - { offsetInCU: 0x8F, offset: 0x685826, size: 0x8, addend: 0x0, symName: __ZZN8crashpad21StringToExceptionMaskERKN4base16BasicStringPieceINSt3__112basic_stringIcNS2_11char_traitsIcEENS2_9allocatorIcEEEEEEjPjE11kExcMaskAll, symObjAddr: 0x26E6, symBinAddr: 0x10007CF47, symSize: 0x0 }
  - { offsetInCU: 0xBED, offset: 0x686384, size: 0x8, addend: 0x0, symName: __ZN8crashpad17ExceptionToStringEij, symObjAddr: 0x0, symBinAddr: 0x1000558E0, symSize: 0x124 }
  - { offsetInCU: 0x1059, offset: 0x6867F0, size: 0x8, addend: 0x0, symName: __ZN8crashpad17StringToExceptionERKN4base16BasicStringPieceINSt3__112basic_stringIcNS2_11char_traitsIcEENS2_9allocatorIcEEEEEEjPi, symObjAddr: 0x124, symBinAddr: 0x100055A04, symSize: 0x618 }
  - { offsetInCU: 0x106B, offset: 0x686802, size: 0x8, addend: 0x0, symName: __ZN8crashpad17StringToExceptionERKN4base16BasicStringPieceINSt3__112basic_stringIcNS2_11char_traitsIcEENS2_9allocatorIcEEEEEEjPi, symObjAddr: 0x124, symBinAddr: 0x100055A04, symSize: 0x618 }
  - { offsetInCU: 0x1936, offset: 0x6870CD, size: 0x8, addend: 0x0, symName: __ZN8crashpad21ExceptionMaskToStringEjj, symObjAddr: 0x73C, symBinAddr: 0x10005601C, symSize: 0x3A8 }
  - { offsetInCU: 0x22B5, offset: 0x687A4C, size: 0x8, addend: 0x0, symName: __ZN8crashpad25ExceptionBehaviorToStringEij, symObjAddr: 0x1220, symBinAddr: 0x100056B00, symSize: 0x144 }
  - { offsetInCU: 0x26AF, offset: 0x687E46, size: 0x8, addend: 0x0, symName: __ZN8crashpad25StringToExceptionBehaviorERKN4base16BasicStringPieceINSt3__112basic_stringIcNS2_11char_traitsIcEENS2_9allocatorIcEEEEEEjPi, symObjAddr: 0x1364, symBinAddr: 0x100056C44, symSize: 0x3F0 }
  - { offsetInCU: 0x31A2, offset: 0x688939, size: 0x8, addend: 0x0, symName: __ZN8crashpad25ThreadStateFlavorToStringEij, symObjAddr: 0x1754, symBinAddr: 0x100057034, symSize: 0x178 }
  - { offsetInCU: 0x3577, offset: 0x688D0E, size: 0x8, addend: 0x0, symName: __ZN12_GLOBAL__N_128ThreadStateFlavorFullToShortERKN4base16BasicStringPieceINSt3__112basic_stringIcNS2_11char_traitsIcEENS2_9allocatorIcEEEEEE, symObjAddr: 0x18CC, symBinAddr: 0x1000571AC, symSize: 0x320 }
  - { offsetInCU: 0x3589, offset: 0x688D20, size: 0x8, addend: 0x0, symName: __ZN8crashpad25StringToThreadStateFlavorERKN4base16BasicStringPieceINSt3__112basic_stringIcNS2_11char_traitsIcEENS2_9allocatorIcEEEEEEjPi, symObjAddr: 0x1BEC, symBinAddr: 0x1000574CC, symSize: 0x4C8 }
  - { offsetInCU: 0x4278, offset: 0x689A0F, size: 0x8, addend: 0x0, symName: __ZN12_GLOBAL__N_115kExceptionNamesE, symObjAddr: 0x2360, symBinAddr: 0x100083BA8, symSize: 0x0 }
  - { offsetInCU: 0x4292, offset: 0x689A29, size: 0x8, addend: 0x0, symName: __ZN12_GLOBAL__N_110kExcPrefixE, symObjAddr: 0x26D7, symBinAddr: 0x10007CF38, symSize: 0x0 }
  - { offsetInCU: 0x42AC, offset: 0x689A43, size: 0x8, addend: 0x0, symName: __ZN12_GLOBAL__N_114kExcMaskPrefixE, symObjAddr: 0x26DC, symBinAddr: 0x10007CF3D, symSize: 0x0 }
  - { offsetInCU: 0x42C6, offset: 0x689A5D, size: 0x8, addend: 0x0, symName: __ZN12_GLOBAL__N_114kBehaviorNamesE, symObjAddr: 0x23D0, symBinAddr: 0x100083C18, symSize: 0x0 }
  - { offsetInCU: 0x42E0, offset: 0x689A77, size: 0x8, addend: 0x0, symName: __ZN12_GLOBAL__N_115kBehaviorPrefixE, symObjAddr: 0x26EA, symBinAddr: 0x10007CF4B, symSize: 0x0 }
  - { offsetInCU: 0x42FA, offset: 0x689A91, size: 0x8, addend: 0x0, symName: __ZN12_GLOBAL__N_124kMachExceptionCodesShortE, symObjAddr: 0x26F5, symBinAddr: 0x10007CF56, symSize: 0x0 }
  - { offsetInCU: 0x4314, offset: 0x689AAB, size: 0x8, addend: 0x0, symName: __ZN12_GLOBAL__N_123kMachExceptionCodesFullE, symObjAddr: 0x26FA, symBinAddr: 0x10007CF5B, symSize: 0x0 }
  - { offsetInCU: 0x432E, offset: 0x689AC5, size: 0x8, addend: 0x0, symName: __ZN12_GLOBAL__N_112kFlavorNamesE, symObjAddr: 0x23F0, symBinAddr: 0x100083C38, symSize: 0x0 }
  - { offsetInCU: 0x4348, offset: 0x689ADF, size: 0x8, addend: 0x0, symName: __ZN12_GLOBAL__N_119kGenericFlavorNamesE, symObjAddr: 0x2480, symBinAddr: 0x100083CC8, symSize: 0x0 }
  - { offsetInCU: 0x4374, offset: 0x689B0B, size: 0x8, addend: 0x0, symName: __ZN12_GLOBAL__N_128ThreadStateFlavorFullToShortERKN4base16BasicStringPieceINSt3__112basic_stringIcNS2_11char_traitsIcEENS2_9allocatorIcEEEEEE, symObjAddr: 0x18CC, symBinAddr: 0x1000571AC, symSize: 0x320 }
  - { offsetInCU: 0x439E, offset: 0x689B35, size: 0x8, addend: 0x0, symName: __ZZN12_GLOBAL__N_128ThreadStateFlavorFullToShortERKN4base16BasicStringPieceINSt3__112basic_stringIcNS2_11char_traitsIcEENS2_9allocatorIcEEEEEEE12kThreadState, symObjAddr: 0x270F, symBinAddr: 0x10007CF70, symSize: 0x0 }
  - { offsetInCU: 0x43B4, offset: 0x689B4B, size: 0x8, addend: 0x0, symName: __ZZN12_GLOBAL__N_128ThreadStateFlavorFullToShortERKN4base16BasicStringPieceINSt3__112basic_stringIcNS2_11char_traitsIcEENS2_9allocatorIcEEEEEEE11kArchPrefix, symObjAddr: 0x271D, symBinAddr: 0x10007CF7E, symSize: 0x0 }
  - { offsetInCU: 0x43CA, offset: 0x689B61, size: 0x8, addend: 0x0, symName: __ZZN12_GLOBAL__N_128ThreadStateFlavorFullToShortERKN4base16BasicStringPieceINSt3__112basic_stringIcNS2_11char_traitsIcEENS2_9allocatorIcEEEEEEE14kStateSuffixes, symObjAddr: 0x24A0, symBinAddr: 0x100083CE8, symSize: 0x0 }
  - { offsetInCU: 0x26, offset: 0x690C7C, size: 0x8, addend: 0x0, symName: __ZN8crashpad25ClockMonotonicNanosecondsEv, symObjAddr: 0x0, symBinAddr: 0x100057994, symSize: 0x8 }
  - { offsetInCU: 0x79, offset: 0x690CCF, size: 0x8, addend: 0x0, symName: __ZN8crashpad25ClockMonotonicNanosecondsEv, symObjAddr: 0x0, symBinAddr: 0x100057994, symSize: 0x8 }
  - { offsetInCU: 0x74EE, offset: 0x698213, size: 0x8, addend: 0x0, symName: __ZN8crashpad5Paths10ExecutableEPN4base8FilePathE, symObjAddr: 0x0, symBinAddr: 0x10005799C, symSize: 0x1DC }
  - { offsetInCU: 0x7269, offset: 0x69FD83, size: 0x8, addend: 0x0, symName: __ZN8crashpad12_GLOBAL__N_119AppendEscapedFormatEP8NSStringS2_S2_, symObjAddr: 0x10B0, symBinAddr: 0x100058C28, symSize: 0xF8 }
  - { offsetInCU: 0x97D8, offset: 0x6A22F2, size: 0x8, addend: 0x0, symName: '-[CrashpadHTTPBodyStreamTransport initWithBodyStream:]', symObjAddr: 0x0, symBinAddr: 0x100057B78, symSize: 0x5C }
  - { offsetInCU: 0x981F, offset: 0x6A2339, size: 0x8, addend: 0x0, symName: '-[CrashpadHTTPBodyStreamTransport hasBytesAvailable]', symObjAddr: 0x5C, symBinAddr: 0x100057BD4, symSize: 0x1C }
  - { offsetInCU: 0x9856, offset: 0x6A2370, size: 0x8, addend: 0x0, symName: '-[CrashpadHTTPBodyStreamTransport read:maxLength:]', symObjAddr: 0x78, symBinAddr: 0x100057BF0, symSize: 0x68 }
  - { offsetInCU: 0x98D8, offset: 0x6A23F2, size: 0x8, addend: 0x0, symName: '-[CrashpadHTTPBodyStreamTransport getBuffer:length:]', symObjAddr: 0xE0, symBinAddr: 0x100057C58, symSize: 0x8 }
  - { offsetInCU: 0x9921, offset: 0x6A243B, size: 0x8, addend: 0x0, symName: '-[CrashpadHTTPBodyStreamTransport scheduleInRunLoop:forMode:]', symObjAddr: 0xE8, symBinAddr: 0x100057C60, symSize: 0x4 }
  - { offsetInCU: 0x9966, offset: 0x6A2480, size: 0x8, addend: 0x0, symName: '-[CrashpadHTTPBodyStreamTransport removeFromRunLoop:forMode:]', symObjAddr: 0xEC, symBinAddr: 0x100057C64, symSize: 0x4 }
  - { offsetInCU: 0x99AB, offset: 0x6A24C5, size: 0x8, addend: 0x0, symName: '-[CrashpadHTTPBodyStreamTransport open]', symObjAddr: 0xF0, symBinAddr: 0x100057C68, symSize: 0x14 }
  - { offsetInCU: 0x99DC, offset: 0x6A24F6, size: 0x8, addend: 0x0, symName: '-[CrashpadHTTPBodyStreamTransport close]', symObjAddr: 0x104, symBinAddr: 0x100057C7C, symSize: 0x14 }
  - { offsetInCU: 0x9A0D, offset: 0x6A2527, size: 0x8, addend: 0x0, symName: '-[CrashpadHTTPBodyStreamTransport streamStatus]', symObjAddr: 0x118, symBinAddr: 0x100057C90, symSize: 0x10 }
  - { offsetInCU: 0x9A44, offset: 0x6A255E, size: 0x8, addend: 0x0, symName: '-[CrashpadHTTPBodyStreamTransport delegate]', symObjAddr: 0x128, symBinAddr: 0x100057CA0, symSize: 0x10 }
  - { offsetInCU: 0x9A7B, offset: 0x6A2595, size: 0x8, addend: 0x0, symName: '-[CrashpadHTTPBodyStreamTransport setDelegate:]', symObjAddr: 0x138, symBinAddr: 0x100057CB0, symSize: 0x14 }
  - { offsetInCU: 0x9ABE, offset: 0x6A25D8, size: 0x8, addend: 0x0, symName: '-[CrashpadHTTPBodyStreamTransport propertyForKey:]', symObjAddr: 0x14C, symBinAddr: 0x100057CC4, symSize: 0x8 }
  - { offsetInCU: 0x9AFC, offset: 0x6A2616, size: 0x8, addend: 0x0, symName: '-[CrashpadHTTPBodyStreamTransport setProperty:forKey:]', symObjAddr: 0x154, symBinAddr: 0x100057CCC, symSize: 0x8 }
  - { offsetInCU: 0x9B45, offset: 0x6A265F, size: 0x8, addend: 0x0, symName: '-[CrashpadHTTPBodyStreamTransport .cxx_destruct]', symObjAddr: 0x15C, symBinAddr: 0x100057CD4, symSize: 0x14 }
  - { offsetInCU: 0xA167, offset: 0x6A2C81, size: 0x8, addend: 0x0, symName: __ZN8crashpad13HTTPTransport6CreateEv, symObjAddr: 0x170, symBinAddr: 0x100057CE8, symSize: 0x50 }
  - { offsetInCU: 0xA27E, offset: 0x6A2D98, size: 0x8, addend: 0x0, symName: __ZN8crashpad12_GLOBAL__N_116HTTPTransportMacD1Ev, symObjAddr: 0x1C0, symBinAddr: 0x100057D38, symSize: 0x4 }
  - { offsetInCU: 0xA2A1, offset: 0x6A2DBB, size: 0x8, addend: 0x0, symName: __ZN8crashpad12_GLOBAL__N_116HTTPTransportMacD1Ev, symObjAddr: 0x1C0, symBinAddr: 0x100057D38, symSize: 0x4 }
  - { offsetInCU: 0xA2D8, offset: 0x6A2DF2, size: 0x8, addend: 0x0, symName: __ZN8crashpad12_GLOBAL__N_116HTTPTransportMacD0Ev, symObjAddr: 0x1C4, symBinAddr: 0x100057D3C, symSize: 0x14 }
  - { offsetInCU: 0xB40C, offset: 0x6A3F26, size: 0x8, addend: 0x0, symName: __ZN8crashpad12_GLOBAL__N_116HTTPTransportMac20ExecuteSynchronouslyEPNSt3__112basic_stringIcNS2_11char_traitsIcEENS2_9allocatorIcEEEE, symObjAddr: 0x1D8, symBinAddr: 0x100057D50, symSize: 0xED8 }
